---
triple:          'arm64-apple-darwin'
binary-path:     '/Volumes/EngData/builds/data-capture-sdk/build/_build/ios/native/libs/sdc/barcode/ios/Release-iphoneos/ScanditBarcodeCapture.framework/ScanditBarcodeCapture'
relocations:
  - { offsetInCU: 0x27, offset: 0x73967, size: 0x8, addend: 0x0, symName: '-[SDCAnimatableView initWithFrame:]', symObjAddr: 0x0, symBinAddr: 0x4000, symSize: 0xEC }
  - { offsetInCU: 0xF1E, offset: 0x7485E, size: 0x8, addend: 0x0, symName: '-[SDCAnimatableView initWithFrame:]', symObjAddr: 0x0, symBinAddr: 0x4000, symSize: 0xEC }
  - { offsetInCU: 0xF61, offset: 0x748A1, size: 0x8, addend: 0x0, symName: '-[SDCAnimatableView willEnterForeground]', symObjAddr: 0xEC, symBinAddr: 0x40EC, symSize: 0x4 }
  - { offsetInCU: 0xF92, offset: 0x748D2, size: 0x8, addend: 0x0, symName: '-[SDCAnimatableView willMoveToWindow:]', symObjAddr: 0xF0, symBinAddr: 0x40F0, symSize: 0xA4 }
  - { offsetInCU: 0xFD5, offset: 0x74915, size: 0x8, addend: 0x0, symName: '-[SDCAnimatableView setAnimating:]', symObjAddr: 0x194, symBinAddr: 0x4194, symSize: 0x10 }
  - { offsetInCU: 0x1012, offset: 0x74952, size: 0x8, addend: 0x0, symName: '-[SDCAnimatableView updateAnimationStatus]', symObjAddr: 0x1A4, symBinAddr: 0x41A4, symSize: 0x38 }
  - { offsetInCU: 0x1045, offset: 0x74985, size: 0x8, addend: 0x0, symName: '-[SDCAnimatableView startAnimating]', symObjAddr: 0x1DC, symBinAddr: 0x41DC, symSize: 0x4 }
  - { offsetInCU: 0x1074, offset: 0x749B4, size: 0x8, addend: 0x0, symName: '-[SDCAnimatableView stopAnimating]', symObjAddr: 0x1E0, symBinAddr: 0x41E0, symSize: 0x4 }
  - { offsetInCU: 0x10A3, offset: 0x749E3, size: 0x8, addend: 0x0, symName: '-[SDCAnimatableView isAnimating]', symObjAddr: 0x1E4, symBinAddr: 0x41E4, symSize: 0x10 }
  - { offsetInCU: 0x1EA, offset: 0x75C8F, size: 0x8, addend: 0x0, symName: __ZN3sdc4core20cppVectorWithNSArrayINSt3__110shared_ptrINS0_11ArucoMarkerEEEU8__strongU13block_pointerFS5_P14SDCArucoMarkerEEENS2_6vectorIT_NS2_9allocatorISC_EEEEP7NSArrayOT0_, symObjAddr: 0x2E4, symBinAddr: 0x44D8, symSize: 0x218 }
  - { offsetInCU: 0x74ED, offset: 0x7CF92, size: 0x8, addend: 0x0, symName: __ZNSt3__120__throw_length_errorB8ue170006EPKc, symObjAddr: 0xBE8, symBinAddr: 0x4DDC, symSize: 0x50 }
  - { offsetInCU: 0x79E7, offset: 0x7D48C, size: 0x8, addend: 0x0, symName: __ZSt28__throw_bad_array_new_lengthB8ue170006v, symObjAddr: 0xC5C, symBinAddr: 0x4E50, symSize: 0x28 }
  - { offsetInCU: 0x82B4, offset: 0x7DD59, size: 0x8, addend: 0x0, symName: __ZN6djinni18get_cpp_proxy_implI18SDCArucoDictionaryN3sdc4core15ArucoDictionaryEEEPT_RKNSt3__110shared_ptrIT0_EE, symObjAddr: 0x820, symBinAddr: 0x4A14, symSize: 0xE8 }
  - { offsetInCU: 0xA899, offset: 0x8033E, size: 0x8, addend: 0x0, symName: '+[SDCArucoDictionary arucoDictionaryWithPreset:]', symObjAddr: 0x0, symBinAddr: 0x41F4, symSize: 0xC4 }
  - { offsetInCU: 0xAA02, offset: 0x804A7, size: 0x8, addend: 0x0, symName: __ZNSt3__110shared_ptrIN3sdc4core15ArucoDictionaryEED1B8ue170006Ev, symObjAddr: 0xC4, symBinAddr: 0x42B8, symSize: 0x68 }
  - { offsetInCU: 0xAC57, offset: 0x806FC, size: 0x8, addend: 0x0, symName: '+[SDCArucoDictionary arucoDictionaryWithMarkerSize:markers:]', symObjAddr: 0x12C, symBinAddr: 0x4320, symSize: 0x1B8 }
  - { offsetInCU: 0xB09D, offset: 0x80B42, size: 0x8, addend: 0x0, symName: __ZNSt3__16vectorINS_10shared_ptrIN3sdc4core11ArucoMarkerEEENS_9allocatorIS5_EEED1B8ue170006Ev, symObjAddr: 0x560, symBinAddr: 0x4754, symSize: 0x98 }
  - { offsetInCU: 0xB4AD, offset: 0x80F52, size: 0x8, addend: 0x0, symName: __ZNSt3__16vectorINS_10shared_ptrIN3sdc4core11ArucoMarkerEEENS_9allocatorIS5_EEE7reserveEm, symObjAddr: 0xA50, symBinAddr: 0x4C44, symSize: 0x110 }
  - { offsetInCU: 0xB953, offset: 0x813F8, size: 0x8, addend: 0x0, symName: __ZNSt3__110shared_ptrIN3sdc4core11ArucoMarkerEED1B8ue170006Ev, symObjAddr: 0xB60, symBinAddr: 0x4D54, symSize: 0x68 }
  - { offsetInCU: 0xB967, offset: 0x8140C, size: 0x8, addend: 0x0, symName: __ZNSt3__16vectorINS_10shared_ptrIN3sdc4core11ArucoMarkerEEENS_9allocatorIS5_EEE24__emplace_back_slow_pathIJS5_EEEvDpOT_, symObjAddr: 0xC84, symBinAddr: 0x4E78, symSize: 0x160 }
  - { offsetInCU: 0xBF1E, offset: 0x819C3, size: 0x8, addend: 0x0, symName: __ZZN6djinni18get_cpp_proxy_implI18SDCArucoDictionaryN3sdc4core15ArucoDictionaryEEEPT_RKNSt3__110shared_ptrIT0_EEENUlRKNS8_IvEEE_8__invokeESF_.cold.1, symObjAddr: 0xDE4, symBinAddr: 0x271484, symSize: 0x4C }
  - { offsetInCU: 0xBF36, offset: 0x819DB, size: 0x8, addend: 0x0, symName: __ZNSt3__110shared_ptrIN3sdc4core11ArucoMarkerEED1B8ue170006Ev, symObjAddr: 0xB60, symBinAddr: 0x4D54, symSize: 0x68 }
  - { offsetInCU: 0xC04F, offset: 0x81AF4, size: 0x8, addend: 0x0, symName: '___60+[SDCArucoDictionary arucoDictionaryWithMarkerSize:markers:]_block_invoke', symObjAddr: 0x4FC, symBinAddr: 0x46F0, symSize: 0x64 }
  - { offsetInCU: 0xC202, offset: 0x81CA7, size: 0x8, addend: 0x0, symName: '-[SDCArucoDictionary initWithCpp:]', symObjAddr: 0x5F8, symBinAddr: 0x47EC, symSize: 0xD0 }
  - { offsetInCU: 0xC44E, offset: 0x81EF3, size: 0x8, addend: 0x0, symName: '-[SDCArucoDictionary cppImpl]', symObjAddr: 0x6C8, symBinAddr: 0x48BC, symSize: 0x8 }
  - { offsetInCU: 0xC487, offset: 0x81F2C, size: 0x8, addend: 0x0, symName: '-[SDCArucoDictionary cppImpl]', symObjAddr: 0x6C8, symBinAddr: 0x48BC, symSize: 0x8 }
  - { offsetInCU: 0xC510, offset: 0x81FB5, size: 0x8, addend: 0x0, symName: '-[SDCArucoDictionary typeErasedCppImpl]', symObjAddr: 0x6D0, symBinAddr: 0x48C4, symSize: 0x24 }
  - { offsetInCU: 0xC547, offset: 0x81FEC, size: 0x8, addend: 0x0, symName: '-[SDCArucoDictionary typeErasedCppImpl]', symObjAddr: 0x6D0, symBinAddr: 0x48C4, symSize: 0x24 }
  - { offsetInCU: 0xC570, offset: 0x82015, size: 0x8, addend: 0x0, symName: '-[SDCArucoDictionary typeErasedCppImpl]', symObjAddr: 0x6D0, symBinAddr: 0x48C4, symSize: 0x24 }
  - { offsetInCU: 0xC6B7, offset: 0x8215C, size: 0x8, addend: 0x0, symName: '-[SDCArucoDictionary .cxx_destruct]', symObjAddr: 0x6F4, symBinAddr: 0x48E8, symSize: 0xE4 }
  - { offsetInCU: 0xC9CD, offset: 0x82472, size: 0x8, addend: 0x0, symName: '-[SDCArucoDictionary .cxx_construct]', symObjAddr: 0x7D8, symBinAddr: 0x49CC, symSize: 0x48 }
  - { offsetInCU: 0xCB69, offset: 0x8260E, size: 0x8, addend: 0x0, symName: __ZNSt3__110shared_ptrIvED1B8ue170006Ev, symObjAddr: 0x908, symBinAddr: 0x4AFC, symSize: 0x68 }
  - { offsetInCU: 0xCD77, offset: 0x8281C, size: 0x8, addend: 0x0, symName: __ZZN6djinni18get_cpp_proxy_implI18SDCArucoDictionaryN3sdc4core15ArucoDictionaryEEEPT_RKNSt3__110shared_ptrIT0_EEENUlRKNS8_IvEEE_8__invokeESF_, symObjAddr: 0x970, symBinAddr: 0x4B64, symSize: 0xE0 }
  - { offsetInCU: 0xD029, offset: 0x82ACE, size: 0x8, addend: 0x0, symName: __ZZN6djinni18get_cpp_proxy_implI18SDCArucoDictionaryN3sdc4core15ArucoDictionaryEEEPT_RKNSt3__110shared_ptrIT0_EEENUlRKNS8_IvEEE_8__invokeESF_.cold.1, symObjAddr: 0xDE4, symBinAddr: 0x271484, symSize: 0x4C }
  - { offsetInCU: 0xD279, offset: 0x82D1E, size: 0x8, addend: 0x0, symName: __ZNKSt3__16vectorINS_10shared_ptrIN3sdc4core11ArucoMarkerEEENS_9allocatorIS5_EEE20__throw_length_errorB8ue170006Ev, symObjAddr: 0xBD4, symBinAddr: 0x4DC8, symSize: 0x14 }
  - { offsetInCU: 0xD2A3, offset: 0x82D48, size: 0x8, addend: 0x0, symName: __ZNSt3__120__throw_length_errorB8ue170006EPKc, symObjAddr: 0xBE8, symBinAddr: 0x4DDC, symSize: 0x50 }
  - { offsetInCU: 0xD2AE, offset: 0x82D53, size: 0x8, addend: 0x0, symName: __ZNSt12length_errorC1B8ue170006EPKc, symObjAddr: 0xC38, symBinAddr: 0x4E2C, symSize: 0x24 }
  - { offsetInCU: 0x27, offset: 0x82FA7, size: 0x8, addend: 0x0, symName: '-[SDCArucoMarker initWithMarkerSize:markerData:]', symObjAddr: 0x0, symBinAddr: 0x4FD8, symSize: 0x194 }
  - { offsetInCU: 0x41FD, offset: 0x8717D, size: 0x8, addend: 0x0, symName: '-[SDCArucoMarker initWithMarkerSize:markerData:]', symObjAddr: 0x0, symBinAddr: 0x4FD8, symSize: 0x194 }
  - { offsetInCU: 0x48AD, offset: 0x8782D, size: 0x8, addend: 0x0, symName: '-[SDCArucoMarker initWithCpp:]', symObjAddr: 0x1FC, symBinAddr: 0x516C, symSize: 0xD0 }
  - { offsetInCU: 0x4AFA, offset: 0x87A7A, size: 0x8, addend: 0x0, symName: '-[SDCArucoMarker cppImpl]', symObjAddr: 0x2CC, symBinAddr: 0x523C, symSize: 0x8 }
  - { offsetInCU: 0x4B33, offset: 0x87AB3, size: 0x8, addend: 0x0, symName: '-[SDCArucoMarker cppImpl]', symObjAddr: 0x2CC, symBinAddr: 0x523C, symSize: 0x8 }
  - { offsetInCU: 0x4B6B, offset: 0x87AEB, size: 0x8, addend: 0x0, symName: '-[SDCArucoMarker size]', symObjAddr: 0x2D4, symBinAddr: 0x5244, symSize: 0x1C }
  - { offsetInCU: 0x4BC2, offset: 0x87B42, size: 0x8, addend: 0x0, symName: '-[SDCArucoMarker data]', symObjAddr: 0x2F0, symBinAddr: 0x5260, symSize: 0x18 }
  - { offsetInCU: 0x4C93, offset: 0x87C13, size: 0x8, addend: 0x0, symName: '-[SDCArucoMarker typeErasedCppImpl]', symObjAddr: 0x308, symBinAddr: 0x5278, symSize: 0x24 }
  - { offsetInCU: 0x4CCA, offset: 0x87C4A, size: 0x8, addend: 0x0, symName: '-[SDCArucoMarker typeErasedCppImpl]', symObjAddr: 0x308, symBinAddr: 0x5278, symSize: 0x24 }
  - { offsetInCU: 0x4CF3, offset: 0x87C73, size: 0x8, addend: 0x0, symName: '-[SDCArucoMarker typeErasedCppImpl]', symObjAddr: 0x308, symBinAddr: 0x5278, symSize: 0x24 }
  - { offsetInCU: 0x4E66, offset: 0x87DE6, size: 0x8, addend: 0x0, symName: '-[SDCArucoMarker .cxx_destruct]', symObjAddr: 0x32C, symBinAddr: 0x529C, symSize: 0xE4 }
  - { offsetInCU: 0x517C, offset: 0x880FC, size: 0x8, addend: 0x0, symName: '-[SDCArucoMarker .cxx_construct]', symObjAddr: 0x410, symBinAddr: 0x5380, symSize: 0x48 }
  - { offsetInCU: 0x1D53E, offset: 0xA57B6, size: 0x8, addend: 0x0, symName: __ZN6djinni13set_cpp_proxyIU8__strongP10SDCBarcodeNSt3__110shared_ptrIN3sdc4core7BarcodeEEEEEvRKT0_T_b, symObjAddr: 0x760, symBinAddr: 0x5B28, symSize: 0x104 }
  - { offsetInCU: 0x1D75D, offset: 0xA59D5, size: 0x8, addend: 0x0, symName: __ZN6djinni18get_cpp_proxy_implI23SDCStructuredAppendDataN3sdc4core28AbstractStructuredAppendDataEEEPT_RKNSt3__110shared_ptrIT0_EE, symObjAddr: 0x13FC, symBinAddr: 0x66DC, symSize: 0xE8 }
  - { offsetInCU: 0x1F907, offset: 0xA7B7F, size: 0x8, addend: 0x0, symName: _NSStringFromCompositeFlag, symObjAddr: 0x0, symBinAddr: 0x53C8, symSize: 0xAC }
  - { offsetInCU: 0x1FCC5, offset: 0xA7F3D, size: 0x8, addend: 0x0, symName: _SDCCompositeFlagFromJSONString, symObjAddr: 0xAC, symBinAddr: 0x5474, symSize: 0x188 }
  - { offsetInCU: 0x2045C, offset: 0xA86D4, size: 0x8, addend: 0x0, symName: __ZN3bar6resultIN3sdc4core13CompositeFlagENSt3__112basic_stringIcNS4_11char_traitsIcEENS4_9allocatorIcEEEEE14value_or_throwEv, symObjAddr: 0x2D4, symBinAddr: 0x569C, symSize: 0x108 }
  - { offsetInCU: 0x207CD, offset: 0xA8A45, size: 0x8, addend: 0x0, symName: __ZNSt3__112basic_stringIcNS_11char_traitsIcEENS_9allocatorIcEEEC1B8ue170006ILi0EEEPKc, symObjAddr: 0x234, symBinAddr: 0x55FC, symSize: 0xA0 }
  - { offsetInCU: 0x20B91, offset: 0xA8E09, size: 0x8, addend: 0x0, symName: __ZN3bar6resultIN3sdc4core13CompositeFlagENSt3__112basic_stringIcNS4_11char_traitsIcEENS4_9allocatorIcEEEEE14value_or_throwEv, symObjAddr: 0x2D4, symBinAddr: 0x569C, symSize: 0x108 }
  - { offsetInCU: 0x20DD1, offset: 0xA9049, size: 0x8, addend: 0x0, symName: __ZNKSt3__112basic_stringIcNS_11char_traitsIcEENS_9allocatorIcEEE20__throw_length_errorB8ue170006Ev, symObjAddr: 0x11E0, symBinAddr: 0x659C, symSize: 0x14 }
  - { offsetInCU: 0x20EC3, offset: 0xA913B, size: 0x8, addend: 0x0, symName: __ZNK3bar6resultIN3sdc4core13CompositeFlagENSt3__112basic_stringIcNS4_11char_traitsIcEENS4_9allocatorIcEEEEE5errorEv, symObjAddr: 0x1268, symBinAddr: 0x65B0, symSize: 0x12C }
  - { offsetInCU: 0x2145A, offset: 0xA96D2, size: 0x8, addend: 0x0, symName: '+[SDCBarcode barcodeWithBarcodeInfo:]', symObjAddr: 0x3DC, symBinAddr: 0x57A4, symSize: 0x5C }
  - { offsetInCU: 0x21634, offset: 0xA98AC, size: 0x8, addend: 0x0, symName: '-[SDCBarcode initWithCpp:]', symObjAddr: 0x438, symBinAddr: 0x5800, symSize: 0xF0 }
  - { offsetInCU: 0x21A01, offset: 0xA9C79, size: 0x8, addend: 0x0, symName: '-[SDCBarcode initWithBarcodeInfo:]', symObjAddr: 0x528, symBinAddr: 0x58F0, symSize: 0x1D0 }
  - { offsetInCU: 0x21FBF, offset: 0xAA237, size: 0x8, addend: 0x0, symName: __ZNSt3__110shared_ptrIN3sdc4core7BarcodeEED1B8ue170006Ev, symObjAddr: 0x6F8, symBinAddr: 0x5AC0, symSize: 0x68 }
  - { offsetInCU: 0x221CE, offset: 0xAA446, size: 0x8, addend: 0x0, symName: '-[SDCBarcode cppImpl]', symObjAddr: 0x864, symBinAddr: 0x5C2C, symSize: 0x8 }
  - { offsetInCU: 0x22208, offset: 0xAA480, size: 0x8, addend: 0x0, symName: '-[SDCBarcode cppImpl]', symObjAddr: 0x864, symBinAddr: 0x5C2C, symSize: 0x8 }
  - { offsetInCU: 0x22271, offset: 0xAA4E9, size: 0x8, addend: 0x0, symName: '-[SDCBarcode symbology]', symObjAddr: 0x86C, symBinAddr: 0x5C34, symSize: 0xA8 }
  - { offsetInCU: 0x2243D, offset: 0xAA6B5, size: 0x8, addend: 0x0, symName: '-[SDCBarcode data]', symObjAddr: 0x914, symBinAddr: 0x5CDC, symSize: 0xAC }
  - { offsetInCU: 0x228C0, offset: 0xAAB38, size: 0x8, addend: 0x0, symName: '-[SDCBarcode rawData]', symObjAddr: 0x9C0, symBinAddr: 0x5D88, symSize: 0x9C }
  - { offsetInCU: 0x22BFB, offset: 0xAAE73, size: 0x8, addend: 0x0, symName: '-[SDCBarcode rawDataNoCopy]', symObjAddr: 0xA5C, symBinAddr: 0x5E24, symSize: 0x88 }
  - { offsetInCU: 0x22C87, offset: 0xAAEFF, size: 0x8, addend: 0x0, symName: '-[SDCBarcode addOnData]', symObjAddr: 0xAE4, symBinAddr: 0x5EAC, symSize: 0x18 }
  - { offsetInCU: 0x22CEC, offset: 0xAAF64, size: 0x8, addend: 0x0, symName: '-[SDCBarcode compositeData]', symObjAddr: 0xAFC, symBinAddr: 0x5EC4, symSize: 0x18 }
  - { offsetInCU: 0x22D6C, offset: 0xAAFE4, size: 0x8, addend: 0x0, symName: '-[SDCBarcode compositeRawData]', symObjAddr: 0xB14, symBinAddr: 0x5EDC, symSize: 0xB4 }
  - { offsetInCU: 0x230C0, offset: 0xAB338, size: 0x8, addend: 0x0, symName: '-[SDCBarcode isStructuredAppend]', symObjAddr: 0xBC8, symBinAddr: 0x5F90, symSize: 0x8 }
  - { offsetInCU: 0x230FA, offset: 0xAB372, size: 0x8, addend: 0x0, symName: '-[SDCBarcode isStructuredAppend]', symObjAddr: 0xBC8, symBinAddr: 0x5F90, symSize: 0x8 }
  - { offsetInCU: 0x2319E, offset: 0xAB416, size: 0x8, addend: 0x0, symName: '-[SDCBarcode structuredAppendData]', symObjAddr: 0xBD0, symBinAddr: 0x5F98, symSize: 0xEC }
  - { offsetInCU: 0x233B0, offset: 0xAB628, size: 0x8, addend: 0x0, symName: __ZNSt3__110shared_ptrIN3sdc4core28AbstractStructuredAppendDataEED1B8ue170006Ev, symObjAddr: 0xCBC, symBinAddr: 0x6084, symSize: 0x68 }
  - { offsetInCU: 0x23621, offset: 0xAB899, size: 0x8, addend: 0x0, symName: '-[SDCBarcode encodingRanges]', symObjAddr: 0xD24, symBinAddr: 0x60EC, symSize: 0x148 }
  - { offsetInCU: 0x23ABE, offset: 0xABD36, size: 0x8, addend: 0x0, symName: __ZNSt3__16vectorIN3sdc4core13EncodingRangeENS_9allocatorIS3_EEED1B8ue170006Ev, symObjAddr: 0xE6C, symBinAddr: 0x6234, symSize: 0x74 }
  - { offsetInCU: 0x23DDA, offset: 0xAC052, size: 0x8, addend: 0x0, symName: '-[SDCBarcode location]', symObjAddr: 0xEE0, symBinAddr: 0x62A8, symSize: 0x68 }
  - { offsetInCU: 0x23E4E, offset: 0xAC0C6, size: 0x8, addend: 0x0, symName: '-[SDCBarcode isGS1DataCarrier]', symObjAddr: 0xF48, symBinAddr: 0x6310, symSize: 0x8 }
  - { offsetInCU: 0x23E88, offset: 0xAC100, size: 0x8, addend: 0x0, symName: '-[SDCBarcode isGS1DataCarrier]', symObjAddr: 0xF48, symBinAddr: 0x6310, symSize: 0x8 }
  - { offsetInCU: 0x23EA5, offset: 0xAC11D, size: 0x8, addend: 0x0, symName: '-[SDCBarcode compositeFlag]', symObjAddr: 0xF50, symBinAddr: 0x6318, symSize: 0x58 }
  - { offsetInCU: 0x23F12, offset: 0xAC18A, size: 0x8, addend: 0x0, symName: '-[SDCBarcode isColorInverted]', symObjAddr: 0xFA8, symBinAddr: 0x6370, symSize: 0x8 }
  - { offsetInCU: 0x23F4C, offset: 0xAC1C4, size: 0x8, addend: 0x0, symName: '-[SDCBarcode isColorInverted]', symObjAddr: 0xFA8, symBinAddr: 0x6370, symSize: 0x8 }
  - { offsetInCU: 0x23F69, offset: 0xAC1E1, size: 0x8, addend: 0x0, symName: '-[SDCBarcode symbolCount]', symObjAddr: 0xFB0, symBinAddr: 0x6378, symSize: 0x1C }
  - { offsetInCU: 0x23FC0, offset: 0xAC238, size: 0x8, addend: 0x0, symName: '-[SDCBarcode frameId]', symObjAddr: 0xFCC, symBinAddr: 0x6394, symSize: 0x1C }
  - { offsetInCU: 0x24017, offset: 0xAC28F, size: 0x8, addend: 0x0, symName: '-[SDCBarcode typeErasedCppImpl]', symObjAddr: 0xFE8, symBinAddr: 0x63B0, symSize: 0x24 }
  - { offsetInCU: 0x2404F, offset: 0xAC2C7, size: 0x8, addend: 0x0, symName: '-[SDCBarcode typeErasedCppImpl]', symObjAddr: 0xFE8, symBinAddr: 0x63B0, symSize: 0x24 }
  - { offsetInCU: 0x24078, offset: 0xAC2F0, size: 0x8, addend: 0x0, symName: '-[SDCBarcode typeErasedCppImpl]', symObjAddr: 0xFE8, symBinAddr: 0x63B0, symSize: 0x24 }
  - { offsetInCU: 0x24100, offset: 0xAC378, size: 0x8, addend: 0x0, symName: '-[SDCBarcode JSONString]', symObjAddr: 0x100C, symBinAddr: 0x63D4, symSize: 0x9C }
  - { offsetInCU: 0x24441, offset: 0xAC6B9, size: 0x8, addend: 0x0, symName: '-[SDCBarcode .cxx_destruct]', symObjAddr: 0x10A8, symBinAddr: 0x6470, symSize: 0xE4 }
  - { offsetInCU: 0x24757, offset: 0xAC9CF, size: 0x8, addend: 0x0, symName: '-[SDCBarcode .cxx_construct]', symObjAddr: 0x118C, symBinAddr: 0x6554, symSize: 0x48 }
  - { offsetInCU: 0x24BAD, offset: 0xACE25, size: 0x8, addend: 0x0, symName: __ZZN6djinni18get_cpp_proxy_implI23SDCStructuredAppendDataN3sdc4core28AbstractStructuredAppendDataEEEPT_RKNSt3__110shared_ptrIT0_EEENUlRKNS8_IvEEE_8__invokeESF_, symObjAddr: 0x14E4, symBinAddr: 0x67C4, symSize: 0xE0 }
  - { offsetInCU: 0x24E5F, offset: 0xAD0D7, size: 0x8, addend: 0x0, symName: __ZZN6djinni18get_cpp_proxy_implI23SDCStructuredAppendDataN3sdc4core28AbstractStructuredAppendDataEEEPT_RKNSt3__110shared_ptrIT0_EEENUlRKNS8_IvEEE_8__invokeESF_.cold.1, symObjAddr: 0x15C4, symBinAddr: 0x2714D0, symSize: 0x4C }
  - { offsetInCU: 0x27, offset: 0xAD21F, size: 0x8, addend: 0x0, symName: '-[SDCBarcodeAnimatedGradientLayer init]', symObjAddr: 0x0, symBinAddr: 0x68A4, symSize: 0x124 }
  - { offsetInCU: 0x49B, offset: 0xAD693, size: 0x8, addend: 0x0, symName: '-[SDCBarcodeAnimatedGradientLayer init]', symObjAddr: 0x0, symBinAddr: 0x68A4, symSize: 0x124 }
  - { offsetInCU: 0x4D2, offset: 0xAD6CA, size: 0x8, addend: 0x0, symName: '-[SDCBarcodeAnimatedGradientLayer layoutSublayers]', symObjAddr: 0x124, symBinAddr: 0x69C8, symSize: 0x130 }
  - { offsetInCU: 0x505, offset: 0xAD6FD, size: 0x8, addend: 0x0, symName: '-[SDCBarcodeAnimatedGradientLayer setColor:]', symObjAddr: 0x254, symBinAddr: 0x6AF8, symSize: 0x34 }
  - { offsetInCU: 0x548, offset: 0xAD740, size: 0x8, addend: 0x0, symName: '-[SDCBarcodeAnimatedGradientLayer update]', symObjAddr: 0x288, symBinAddr: 0x6B2C, symSize: 0x140 }
  - { offsetInCU: 0x57B, offset: 0xAD773, size: 0x8, addend: 0x0, symName: '-[SDCBarcodeAnimatedGradientLayer startAnimatingWithRepeatCount:]', symObjAddr: 0x3C8, symBinAddr: 0x6C6C, symSize: 0x434 }
  - { offsetInCU: 0x5EE, offset: 0xAD7E6, size: 0x8, addend: 0x0, symName: '-[SDCBarcodeAnimatedGradientLayer startAnimating]', symObjAddr: 0x7FC, symBinAddr: 0x70A0, symSize: 0xC }
  - { offsetInCU: 0x61F, offset: 0xAD817, size: 0x8, addend: 0x0, symName: '-[SDCBarcodeAnimatedGradientLayer stopAnimating]', symObjAddr: 0x808, symBinAddr: 0x70AC, symSize: 0x44 }
  - { offsetInCU: 0x652, offset: 0xAD84A, size: 0x8, addend: 0x0, symName: '-[SDCBarcodeAnimatedGradientLayer animateOnce]', symObjAddr: 0x84C, symBinAddr: 0x70F0, symSize: 0x8 }
  - { offsetInCU: 0x683, offset: 0xAD87B, size: 0x8, addend: 0x0, symName: '-[SDCBarcodeAnimatedGradientLayer color]', symObjAddr: 0x854, symBinAddr: 0x70F8, symSize: 0x10 }
  - { offsetInCU: 0x6BA, offset: 0xAD8B2, size: 0x8, addend: 0x0, symName: '-[SDCBarcodeAnimatedGradientLayer gradientLayer]', symObjAddr: 0x864, symBinAddr: 0x7108, symSize: 0x10 }
  - { offsetInCU: 0x6F1, offset: 0xAD8E9, size: 0x8, addend: 0x0, symName: '-[SDCBarcodeAnimatedGradientLayer setGradientLayer:]', symObjAddr: 0x874, symBinAddr: 0x7118, symSize: 0x14 }
  - { offsetInCU: 0x732, offset: 0xAD92A, size: 0x8, addend: 0x0, symName: '-[SDCBarcodeAnimatedGradientLayer .cxx_destruct]', symObjAddr: 0x888, symBinAddr: 0x712C, symSize: 0x40 }
  - { offsetInCU: 0x29305, offset: 0xD6E79, size: 0x8, addend: 0x0, symName: __ZNSt3__19remove_ifB8ue170006INS_11__wrap_iterIPNS_10shared_ptrIN3sdc4core27BarcodeCaptureListenerProxyEEEEEZN11proxy_cache18ListenerProxyCacheIU8__strongPU36objcproto25SDCBarcodeCaptureListener11objc_objectS5_E26getAndRemoveExpiredProxiesEvEUlRKT_E_EESF_SF_SF_T0_, symObjAddr: 0x2E18, symBinAddr: 0x9DB8, symSize: 0x1CC }
  - { offsetInCU: 0x2A373, offset: 0xD7EE7, size: 0x8, addend: 0x0, symName: __ZNSt3__125__throw_bad_function_callB8ue170006Ev, symObjAddr: 0x39D4, symBinAddr: 0xA974, symSize: 0x34 }
  - { offsetInCU: 0x3985A, offset: 0xE73CE, size: 0x8, addend: 0x0, symName: __ZN6djinni18get_cpp_proxy_implI17SDCBarcodeCaptureN3sdc14BarcodeCaptureEEEPT_RKNSt3__110shared_ptrIT0_EE, symObjAddr: 0x2920, symBinAddr: 0x9930, symSize: 0xE8 }
  - { offsetInCU: 0x39AA1, offset: 0xE7615, size: 0x8, addend: 0x0, symName: __ZN6djinni18get_cpp_proxy_implI28SDCBarcodeCaptureLicenseInfoN3sdc20SymbologyLicenseInfoEEEPT_RKNSt3__110shared_ptrIT0_EE, symObjAddr: 0x3A20, symBinAddr: 0xA9C0, symSize: 0xE8 }
  - { offsetInCU: 0x39CF4, offset: 0xE7868, size: 0x8, addend: 0x0, symName: __ZN6djinni12set_objc_ptrINSt3__110shared_ptrIN3sdc4core27BarcodeCaptureListenerProxyEEEU36objcproto25SDCBarcodeCaptureListener11objc_objectEEvRKT_PT0_, symObjAddr: 0x3BE8, symBinAddr: 0xAB88, symSize: 0x110 }
  - { offsetInCU: 0x39F0B, offset: 0xE7A7F, size: 0x8, addend: 0x0, symName: __ZN6djinni18get_cpp_proxy_implI21SDCDataCaptureContextN3sdc4core18DataCaptureContextEEEPT_RKNSt3__110shared_ptrIT0_EE, symObjAddr: 0x4804, symBinAddr: 0xB79C, symSize: 0xE8 }
  - { offsetInCU: 0x3A185, offset: 0xE7CF9, size: 0x8, addend: 0x0, symName: __ZN6djinni18get_cpp_proxy_implI24SDCBarcodeCaptureSessionN3sdc29AbstractBarcodeScannerSessionEEEPT_RKNSt3__110shared_ptrIT0_EE, symObjAddr: 0x455C, symBinAddr: 0xB4F4, symSize: 0xE8 }
  - { offsetInCU: 0x3A7EF, offset: 0xE8363, size: 0x8, addend: 0x0, symName: __ZN11proxy_cache7to_objcIN3sdc4core9FrameDataEEENS_11ProxyTraitsIT_E8ObjcTypeERKNSt3__110shared_ptrIS5_EE, symObjAddr: 0x43E8, symBinAddr: 0xB380, symSize: 0x174 }
  - { offsetInCU: 0x3AEBE, offset: 0xE8A32, size: 0x8, addend: 0x0, symName: '-[SDCBarcodeCapture applySettings:completionHandler:]', symObjAddr: 0xEB8, symBinAddr: 0x7F78, symSize: 0x3B0 }
  - { offsetInCU: 0x3EDB8, offset: 0xEC92C, size: 0x8, addend: 0x0, symName: '-[SDCBarcodeCapture initWithCpp:]', symObjAddr: 0x0, symBinAddr: 0x716C, symSize: 0xD0 }
  - { offsetInCU: 0x3EFE9, offset: 0xECB5D, size: 0x8, addend: 0x0, symName: '+[SDCBarcodeCapture barcodeCaptureFromJSONString:context:error:]', symObjAddr: 0xD0, symBinAddr: 0x723C, symSize: 0x180 }
  - { offsetInCU: 0x3F334, offset: 0xECEA8, size: 0x8, addend: 0x0, symName: '+[SDCBarcodeCapture barcodeCaptureWithContext:settings:]', symObjAddr: 0x2F0, symBinAddr: 0x73BC, symSize: 0x124 }
  - { offsetInCU: 0x3F622, offset: 0xED196, size: 0x8, addend: 0x0, symName: '+[SDCBarcodeCapture barcodeCaptureWithContext:settings:]', symObjAddr: 0x2F0, symBinAddr: 0x73BC, symSize: 0x124 }
  - { offsetInCU: 0x3FCBE, offset: 0xED832, size: 0x8, addend: 0x0, symName: '+[SDCBarcodeCapture barcodeCaptureWithContext:settings:batterySavingModeCameraManager:]', symObjAddr: 0x414, symBinAddr: 0x74E0, symSize: 0x404 }
  - { offsetInCU: 0x407BC, offset: 0xEE330, size: 0x8, addend: 0x0, symName: __ZN12_GLOBAL__N_118IosSuccessFeedbackC1EP25SDCBarcodeCaptureFeedback, symObjAddr: 0x2B50, symBinAddr: 0x9AF8, symSize: 0xD4 }
  - { offsetInCU: 0x40935, offset: 0xEE4A9, size: 0x8, addend: 0x0, symName: __ZNSt3__110shared_ptrIN3sdc4core8FeedbackEED1B8ue170006Ev, symObjAddr: 0x9B8, symBinAddr: 0x7A84, symSize: 0x68 }
  - { offsetInCU: 0x409D4, offset: 0xEE548, size: 0x8, addend: 0x0, symName: __ZNSt3__110shared_ptrIN12_GLOBAL__N_118IosSuccessFeedbackEED1B8ue170006Ev, symObjAddr: 0xA20, symBinAddr: 0x7AEC, symSize: 0x68 }
  - { offsetInCU: 0x40A73, offset: 0xEE5E7, size: 0x8, addend: 0x0, symName: __ZNSt3__110shared_ptrIN3sdc4core15DataCaptureModeEED1B8ue170006Ev, symObjAddr: 0x950, symBinAddr: 0x7A1C, symSize: 0x68 }
  - { offsetInCU: 0x40B12, offset: 0xEE686, size: 0x8, addend: 0x0, symName: __ZNSt3__110shared_ptrIN3sdc14BarcodeCaptureEED1B8ue170006Ev, symObjAddr: 0x818, symBinAddr: 0x78E4, symSize: 0x68 }
  - { offsetInCU: 0x40BB1, offset: 0xEE725, size: 0x8, addend: 0x0, symName: __ZNSt3__110shared_ptrIN3sdc22BarcodeCaptureSettingsEED1B8ue170006Ev, symObjAddr: 0x880, symBinAddr: 0x794C, symSize: 0x68 }
  - { offsetInCU: 0x40C50, offset: 0xEE7C4, size: 0x8, addend: 0x0, symName: __ZNSt3__110shared_ptrIN3sdc4core18DataCaptureContextEED1B8ue170006Ev, symObjAddr: 0x8E8, symBinAddr: 0x79B4, symSize: 0x68 }
  - { offsetInCU: 0x4106F, offset: 0xEEBE3, size: 0x8, addend: 0x0, symName: '-[SDCBarcodeCapture dealloc]', symObjAddr: 0xA88, symBinAddr: 0x7B54, symSize: 0x208 }
  - { offsetInCU: 0x41671, offset: 0xEF1E5, size: 0x8, addend: 0x0, symName: __ZNSt3__16vectorINS_10shared_ptrIN3sdc4core27BarcodeCaptureListenerProxyEEENS_9allocatorIS5_EEE5eraseENS_11__wrap_iterIPKS5_EESC_, symObjAddr: 0x2FE4, symBinAddr: 0x9F84, symSize: 0x100 }
  - { offsetInCU: 0x41A9C, offset: 0xEF610, size: 0x8, addend: 0x0, symName: __ZNSt3__16vectorINS_10shared_ptrIN3sdc4core27BarcodeCaptureListenerProxyEEENS_9allocatorIS5_EEED1B8ue170006Ev, symObjAddr: 0xCF8, symBinAddr: 0x7DC4, symSize: 0x98 }
  - { offsetInCU: 0x41CDA, offset: 0xEF84E, size: 0x8, addend: 0x0, symName: __ZNSt3__110shared_ptrIN3sdc22BarcodeCaptureListenerEED1B8ue170006Ev, symObjAddr: 0xC90, symBinAddr: 0x7D5C, symSize: 0x68 }
  - { offsetInCU: 0x41D94, offset: 0xEF908, size: 0x8, addend: 0x0, symName: '-[SDCBarcodeCapture cppImpl]', symObjAddr: 0xD9C, symBinAddr: 0x7E5C, symSize: 0x8 }
  - { offsetInCU: 0x41DCE, offset: 0xEF942, size: 0x8, addend: 0x0, symName: '-[SDCBarcodeCapture cppImpl]', symObjAddr: 0xD9C, symBinAddr: 0x7E5C, symSize: 0x8 }
  - { offsetInCU: 0x41DEB, offset: 0xEF95F, size: 0x8, addend: 0x0, symName: '-[SDCBarcodeCapture updateFromJSONString:error:]', symObjAddr: 0xDA4, symBinAddr: 0x7E64, symSize: 0x114 }
  - { offsetInCU: 0x42C01, offset: 0xF0775, size: 0x8, addend: 0x0, symName: __ZNSt3__110__function12__value_funcIFvRKN3bar4VoidEEE4swapB8ue170006ERS7_, symObjAddr: 0x383C, symBinAddr: 0xA7DC, symSize: 0x198 }
  - { offsetInCU: 0x42D46, offset: 0xF08BA, size: 0x8, addend: 0x0, symName: '__ZN3bar4impl12ThenCallbackINS_4VoidEZ53-[SDCBarcodeCapture applySettings:completionHandler:]E3$_0ED1Ev', symObjAddr: 0x3278, symBinAddr: 0xA218, symSize: 0x70 }
  - { offsetInCU: 0x42E85, offset: 0xF09F9, size: 0x8, addend: 0x0, symName: __ZN3bar6FutureINS_4VoidEED1Ev, symObjAddr: 0x1268, symBinAddr: 0x8328, symSize: 0x68 }
  - { offsetInCU: 0x42F54, offset: 0xF0AC8, size: 0x8, addend: 0x0, symName: __ZN3bar7PromiseINS_4VoidEED1Ev, symObjAddr: 0x32E8, symBinAddr: 0xA288, symSize: 0x68 }
  - { offsetInCU: 0x43104, offset: 0xF0C78, size: 0x8, addend: 0x0, symName: '-[SDCBarcodeCapture feedback]', symObjAddr: 0x12D0, symBinAddr: 0x8390, symSize: 0x1B4 }
  - { offsetInCU: 0x437D5, offset: 0xF1349, size: 0x8, addend: 0x0, symName: '-[SDCBarcodeCapture setFeedback:]', symObjAddr: 0x1484, symBinAddr: 0x8544, symSize: 0x190 }
  - { offsetInCU: 0x43DFF, offset: 0xF1973, size: 0x8, addend: 0x0, symName: '-[SDCBarcodeCapture barcodeCaptureLicenseInfo]', symObjAddr: 0x1614, symBinAddr: 0x86D4, symSize: 0xBC }
  - { offsetInCU: 0x43F52, offset: 0xF1AC6, size: 0x8, addend: 0x0, symName: __ZNSt3__110shared_ptrIN3sdc20SymbologyLicenseInfoEED1B8ue170006Ev, symObjAddr: 0x16D0, symBinAddr: 0x8790, symSize: 0x68 }
  - { offsetInCU: 0x44057, offset: 0xF1BCB, size: 0x8, addend: 0x0, symName: '-[SDCBarcodeCapture addListener:]', symObjAddr: 0x1738, symBinAddr: 0x87F8, symSize: 0x2EC }
  - { offsetInCU: 0x44A06, offset: 0xF257A, size: 0x8, addend: 0x0, symName: __ZN11proxy_cache18ListenerProxyCacheIU8__strongPU36objcproto25SDCBarcodeCaptureListener11objc_objectN3sdc4core27BarcodeCaptureListenerProxyEE11getOrCreateES2_, symObjAddr: 0x1A24, symBinAddr: 0x8AE4, symSize: 0x2F0 }
  - { offsetInCU: 0x45477, offset: 0xF2FEB, size: 0x8, addend: 0x0, symName: __ZNSt3__110shared_ptrIN3sdc4core27BarcodeCaptureListenerProxyEED1B8ue170006Ev, symObjAddr: 0x1D14, symBinAddr: 0x8DD4, symSize: 0x68 }
  - { offsetInCU: 0x45B52, offset: 0xF36C6, size: 0x8, addend: 0x0, symName: __ZN11proxy_cache13ListenerProxyIU8__strongPU36objcproto25SDCBarcodeCaptureListener11objc_objectN3sdc22BarcodeCaptureListenerEEC2ES2_, symObjAddr: 0x3E18, symBinAddr: 0xADB8, symSize: 0xC4 }
  - { offsetInCU: 0x45D3F, offset: 0xF38B3, size: 0x8, addend: 0x0, symName: __ZNSt3__16vectorINS_10shared_ptrIN3sdc4core27BarcodeCaptureListenerProxyEEENS_9allocatorIS5_EEE21__push_back_slow_pathIRKS5_EEvOT_, symObjAddr: 0x30E4, symBinAddr: 0xA084, symSize: 0x180 }
  - { offsetInCU: 0x46360, offset: 0xF3ED4, size: 0x8, addend: 0x0, symName: __ZNKSt3__16vectorINS_10shared_ptrIN3sdc4core27BarcodeCaptureListenerProxyEEENS_9allocatorIS5_EEE20__throw_length_errorB8ue170006Ev, symObjAddr: 0x3264, symBinAddr: 0xA204, symSize: 0x14 }
  - { offsetInCU: 0x46375, offset: 0xF3EE9, size: 0x8, addend: 0x0, symName: '-[SDCBarcodeCapture removeListener:]', symObjAddr: 0x1D7C, symBinAddr: 0x8E3C, symSize: 0x16C }
  - { offsetInCU: 0x46755, offset: 0xF42C9, size: 0x8, addend: 0x0, symName: __ZN11proxy_cache18ListenerProxyCacheIU8__strongPU36objcproto25SDCBarcodeCaptureListener11objc_objectN3sdc4core27BarcodeCaptureListenerProxyEE3getES2_, symObjAddr: 0x1EE8, symBinAddr: 0x8FA8, symSize: 0xC0 }
  - { offsetInCU: 0x46A1E, offset: 0xF4592, size: 0x8, addend: 0x0, symName: '-[SDCBarcodeCapture setEnabled:]', symObjAddr: 0x1FA8, symBinAddr: 0x9068, symSize: 0xC }
  - { offsetInCU: 0x46A81, offset: 0xF45F5, size: 0x8, addend: 0x0, symName: '-[SDCBarcodeCapture isEnabled]', symObjAddr: 0x1FB4, symBinAddr: 0x9074, symSize: 0x8 }
  - { offsetInCU: 0x46ABB, offset: 0xF462F, size: 0x8, addend: 0x0, symName: '-[SDCBarcodeCapture isEnabled]', symObjAddr: 0x1FB4, symBinAddr: 0x9074, symSize: 0x8 }
  - { offsetInCU: 0x46AD8, offset: 0xF464C, size: 0x8, addend: 0x0, symName: '-[SDCBarcodeCapture isAttachedToContext]', symObjAddr: 0x1FBC, symBinAddr: 0x907C, symSize: 0x10 }
  - { offsetInCU: 0x46B12, offset: 0xF4686, size: 0x8, addend: 0x0, symName: '-[SDCBarcodeCapture isAttachedToContext]', symObjAddr: 0x1FBC, symBinAddr: 0x907C, symSize: 0x10 }
  - { offsetInCU: 0x46DE3, offset: 0xF4957, size: 0x8, addend: 0x0, symName: '-[SDCBarcodeCapture setPointOfInterest:]', symObjAddr: 0x1FCC, symBinAddr: 0x908C, symSize: 0x9C }
  - { offsetInCU: 0x470B3, offset: 0xF4C27, size: 0x8, addend: 0x0, symName: '-[SDCBarcodeCapture pointOfInterest]', symObjAddr: 0x2068, symBinAddr: 0x9128, symSize: 0x98 }
  - { offsetInCU: 0x471AD, offset: 0xF4D21, size: 0x8, addend: 0x0, symName: '-[SDCBarcodeCapture didAttachToContext:]', symObjAddr: 0x2100, symBinAddr: 0x91C0, symSize: 0x100 }
  - { offsetInCU: 0x4730C, offset: 0xF4E80, size: 0x8, addend: 0x0, symName: '-[SDCBarcodeCapture didDetachFromContext:]', symObjAddr: 0x2200, symBinAddr: 0x92C0, symSize: 0xB8 }
  - { offsetInCU: 0x4734F, offset: 0xF4EC3, size: 0x8, addend: 0x0, symName: '-[SDCBarcodeCapture context:willProcessFrame:]', symObjAddr: 0x22B8, symBinAddr: 0x9378, symSize: 0x4 }
  - { offsetInCU: 0x473C7, offset: 0xF4F3B, size: 0x8, addend: 0x0, symName: '-[SDCBarcodeCapture context]', symObjAddr: 0x22BC, symBinAddr: 0x937C, symSize: 0xD4 }
  - { offsetInCU: 0x475D0, offset: 0xF5144, size: 0x8, addend: 0x0, symName: '-[SDCBarcodeCapture typeErasedCppImpl]', symObjAddr: 0x2390, symBinAddr: 0x9450, symSize: 0x24 }
  - { offsetInCU: 0x47608, offset: 0xF517C, size: 0x8, addend: 0x0, symName: '-[SDCBarcodeCapture typeErasedCppImpl]', symObjAddr: 0x2390, symBinAddr: 0x9450, symSize: 0x24 }
  - { offsetInCU: 0x47631, offset: 0xF51A5, size: 0x8, addend: 0x0, symName: '-[SDCBarcodeCapture typeErasedCppImpl]', symObjAddr: 0x2390, symBinAddr: 0x9450, symSize: 0x24 }
  - { offsetInCU: 0x4771E, offset: 0xF5292, size: 0x8, addend: 0x0, symName: '+[SDCBarcodeCapture recommendedCameraSettings]', symObjAddr: 0x23B4, symBinAddr: 0x9474, symSize: 0x154 }
  - { offsetInCU: 0x477D1, offset: 0xF5345, size: 0x8, addend: 0x0, symName: '-[SDCBarcodeCapture context:didAddMode:]', symObjAddr: 0x2508, symBinAddr: 0x95C8, symSize: 0x4 }
  - { offsetInCU: 0x47818, offset: 0xF538C, size: 0x8, addend: 0x0, symName: '-[SDCBarcodeCapture context:didRemoveMode:]', symObjAddr: 0x250C, symBinAddr: 0x95CC, symSize: 0x4 }
  - { offsetInCU: 0x4785F, offset: 0xF53D3, size: 0x8, addend: 0x0, symName: '-[SDCBarcodeCapture context:didChangeFrameSource:]', symObjAddr: 0x2510, symBinAddr: 0x95D0, symSize: 0x44 }
  - { offsetInCU: 0x478AD, offset: 0xF5421, size: 0x8, addend: 0x0, symName: '-[SDCBarcodeCapture context:didChangeStatus:]', symObjAddr: 0x2554, symBinAddr: 0x9614, symSize: 0x4 }
  - { offsetInCU: 0x478F7, offset: 0xF546B, size: 0x8, addend: 0x0, symName: '-[SDCBarcodeCapture cameraForBatterySavingModeCameraManager:]', symObjAddr: 0x2558, symBinAddr: 0x9618, symSize: 0xD8 }
  - { offsetInCU: 0x4793C, offset: 0xF54B0, size: 0x8, addend: 0x0, symName: '-[SDCBarcodeCapture batterySavingModeCameraManager]', symObjAddr: 0x2630, symBinAddr: 0x96F0, symSize: 0x8 }
  - { offsetInCU: 0x47973, offset: 0xF54E7, size: 0x8, addend: 0x0, symName: '-[SDCBarcodeCapture setBatterySavingModeCameraManager:]', symObjAddr: 0x2638, symBinAddr: 0x96F8, symSize: 0xC }
  - { offsetInCU: 0x47A85, offset: 0xF55F9, size: 0x8, addend: 0x0, symName: '-[SDCBarcodeCapture .cxx_destruct]', symObjAddr: 0x2644, symBinAddr: 0x9704, symSize: 0x17C }
  - { offsetInCU: 0x4804A, offset: 0xF5BBE, size: 0x8, addend: 0x0, symName: '-[SDCBarcodeCapture .cxx_construct]', symObjAddr: 0x27C0, symBinAddr: 0x9880, symSize: 0xB0 }
  - { offsetInCU: 0x482C8, offset: 0xF5E3C, size: 0x8, addend: 0x0, symName: __ZNSt3__16vectorINS_10shared_ptrIN3sdc4core27BarcodeCaptureListenerProxyEEENS_9allocatorIS5_EEE7reserveEm, symObjAddr: 0x49CC, symBinAddr: 0xB964, symSize: 0x110 }
  - { offsetInCU: 0x48770, offset: 0xF62E4, size: 0x8, addend: 0x0, symName: '-[SDCBarcodeCapture .cxx_construct].cold.1', symObjAddr: 0x4ADC, symBinAddr: 0x27152C, symSize: 0x88 }
  - { offsetInCU: 0x48783, offset: 0xF62F7, size: 0x8, addend: 0x0, symName: '-[SDCBarcodeCapture .cxx_construct].cold.1', symObjAddr: 0x4ADC, symBinAddr: 0x27152C, symSize: 0x88 }
  - { offsetInCU: 0x48BCA, offset: 0xF673E, size: 0x8, addend: 0x0, symName: __ZZN6djinni18get_cpp_proxy_implI17SDCBarcodeCaptureN3sdc14BarcodeCaptureEEEPT_RKNSt3__110shared_ptrIT0_EEENUlRKNS7_IvEEE_8__invokeESE_, symObjAddr: 0x2A70, symBinAddr: 0x9A18, symSize: 0xE0 }
  - { offsetInCU: 0x48E7C, offset: 0xF69F0, size: 0x8, addend: 0x0, symName: __ZZN6djinni18get_cpp_proxy_implI17SDCBarcodeCaptureN3sdc14BarcodeCaptureEEEPT_RKNSt3__110shared_ptrIT0_EEENUlRKNS7_IvEEE_8__invokeESE_.cold.1, symObjAddr: 0x4B64, symBinAddr: 0x2715B4, symSize: 0x2C }
  - { offsetInCU: 0x4906E, offset: 0xF6BE2, size: 0x8, addend: 0x0, symName: __ZNSt3__120__shared_ptr_emplaceIN12_GLOBAL__N_118IosSuccessFeedbackENS_9allocatorIS2_EEED1Ev, symObjAddr: 0x2C24, symBinAddr: 0x9BCC, symSize: 0x10 }
  - { offsetInCU: 0x49092, offset: 0xF6C06, size: 0x8, addend: 0x0, symName: __ZNSt3__120__shared_ptr_emplaceIN12_GLOBAL__N_118IosSuccessFeedbackENS_9allocatorIS2_EEED1Ev, symObjAddr: 0x2C24, symBinAddr: 0x9BCC, symSize: 0x10 }
  - { offsetInCU: 0x490CB, offset: 0xF6C3F, size: 0x8, addend: 0x0, symName: __ZNSt3__120__shared_ptr_emplaceIN12_GLOBAL__N_118IosSuccessFeedbackENS_9allocatorIS2_EEED0Ev, symObjAddr: 0x2C34, symBinAddr: 0x9BDC, symSize: 0x20 }
  - { offsetInCU: 0x49135, offset: 0xF6CA9, size: 0x8, addend: 0x0, symName: __ZNSt3__120__shared_ptr_emplaceIN12_GLOBAL__N_118IosSuccessFeedbackENS_9allocatorIS2_EEE16__on_zero_sharedEv, symObjAddr: 0x2C54, symBinAddr: 0x9BFC, symSize: 0xC }
  - { offsetInCU: 0x49168, offset: 0xF6CDC, size: 0x8, addend: 0x0, symName: __ZNSt3__120__shared_ptr_emplaceIN12_GLOBAL__N_118IosSuccessFeedbackENS_9allocatorIS2_EEE21__on_zero_shared_weakEv, symObjAddr: 0x2C60, symBinAddr: 0x9C08, symSize: 0x4 }
  - { offsetInCU: 0x4919D, offset: 0xF6D11, size: 0x8, addend: 0x0, symName: __ZNSt3__120__shared_ptr_emplaceIN12_GLOBAL__N_118IosSuccessFeedbackENS_9allocatorIS2_EEE21__on_zero_shared_weakEv, symObjAddr: 0x2C60, symBinAddr: 0x9C08, symSize: 0x4 }
  - { offsetInCU: 0x491C2, offset: 0xF6D36, size: 0x8, addend: 0x0, symName: __ZNSt3__120__shared_ptr_emplaceIN12_GLOBAL__N_118IosSuccessFeedbackENS_9allocatorIS2_EEE21__on_zero_shared_weakEv, symObjAddr: 0x2C60, symBinAddr: 0x9C08, symSize: 0x4 }
  - { offsetInCU: 0x491E7, offset: 0xF6D5B, size: 0x8, addend: 0x0, symName: __ZNSt3__120__shared_ptr_emplaceIN12_GLOBAL__N_118IosSuccessFeedbackENS_9allocatorIS2_EEE21__on_zero_shared_weakEv, symObjAddr: 0x2C60, symBinAddr: 0x9C08, symSize: 0x4 }
  - { offsetInCU: 0x49217, offset: 0xF6D8B, size: 0x8, addend: 0x0, symName: __ZNSt3__120__shared_ptr_emplaceIN12_GLOBAL__N_118IosSuccessFeedbackENS_9allocatorIS2_EEE21__on_zero_shared_weakEv, symObjAddr: 0x2C60, symBinAddr: 0x9C08, symSize: 0x4 }
  - { offsetInCU: 0x49241, offset: 0xF6DB5, size: 0x8, addend: 0x0, symName: __ZNSt3__120__shared_ptr_emplaceIN12_GLOBAL__N_118IosSuccessFeedbackENS_9allocatorIS2_EEE21__on_zero_shared_weakEv, symObjAddr: 0x2C60, symBinAddr: 0x9C08, symSize: 0x4 }
  - { offsetInCU: 0x492BD, offset: 0xF6E31, size: 0x8, addend: 0x0, symName: __ZN12_GLOBAL__N_118IosSuccessFeedbackD1Ev, symObjAddr: 0x2C64, symBinAddr: 0x9C0C, symSize: 0x48 }
  - { offsetInCU: 0x49344, offset: 0xF6EB8, size: 0x8, addend: 0x0, symName: __ZN6djinni10ProxyCacheINS_20ObjcProxyCacheTraitsEE6HandleIU8__strongP25SDCBarcodeCaptureFeedbackS6_ED2Ev, symObjAddr: 0x2D4C, symBinAddr: 0x9CEC, symSize: 0xCC }
  - { offsetInCU: 0x49487, offset: 0xF6FFB, size: 0x8, addend: 0x0, symName: __ZN12_GLOBAL__N_118IosSuccessFeedbackD0Ev, symObjAddr: 0x2CAC, symBinAddr: 0x9C54, symSize: 0x48 }
  - { offsetInCU: 0x49530, offset: 0xF70A4, size: 0x8, addend: 0x0, symName: __ZN12_GLOBAL__N_118IosSuccessFeedback4emitEv, symObjAddr: 0x2CF4, symBinAddr: 0x9C9C, symSize: 0x48 }
  - { offsetInCU: 0x49557, offset: 0xF70CB, size: 0x8, addend: 0x0, symName: __ZN3sdc4core8Feedback15onLoadResourcesEv, symObjAddr: 0x2D3C, symBinAddr: 0x9CE4, symSize: 0x4 }
  - { offsetInCU: 0x4957C, offset: 0xF70F0, size: 0x8, addend: 0x0, symName: __ZN3sdc4core8Feedback15onFreeResourcesEv, symObjAddr: 0x2D40, symBinAddr: 0x9CE8, symSize: 0x4 }
  - { offsetInCU: 0x495A1, offset: 0xF7115, size: 0x8, addend: 0x0, symName: __ZN3sdc4core8FeedbackD1Ev, symObjAddr: 0x2D44, symBinAddr: 0x27151C, symSize: 0x4 }
  - { offsetInCU: 0x495CA, offset: 0xF713E, size: 0x8, addend: 0x0, symName: __ZN3sdc4core8FeedbackD0Ev, symObjAddr: 0x2D48, symBinAddr: 0x271520, symSize: 0x4 }
  - { offsetInCU: 0x49A29, offset: 0xF759D, size: 0x8, addend: 0x0, symName: __ZNKSt3__16vectorINS_10shared_ptrIN3sdc4core27BarcodeCaptureListenerProxyEEENS_9allocatorIS5_EEE20__throw_length_errorB8ue170006Ev, symObjAddr: 0x3264, symBinAddr: 0xA204, symSize: 0x14 }
  - { offsetInCU: 0x49A53, offset: 0xF75C7, size: 0x8, addend: 0x0, symName: '__ZN3bar4impl12ThenCallbackINS_4VoidEZ53-[SDCBarcodeCapture applySettings:completionHandler:]E3$_0ED1Ev', symObjAddr: 0x3278, symBinAddr: 0xA218, symSize: 0x70 }
  - { offsetInCU: 0x49ACF, offset: 0xF7643, size: 0x8, addend: 0x0, symName: __ZNSt3__120__shared_ptr_emplaceIN3bar4impl11SharedStateINS1_4VoidEEENS_9allocatorIS5_EEED1Ev, symObjAddr: 0x3350, symBinAddr: 0xA2F0, symSize: 0x10 }
  - { offsetInCU: 0x49AF3, offset: 0xF7667, size: 0x8, addend: 0x0, symName: __ZNSt3__120__shared_ptr_emplaceIN3bar4impl11SharedStateINS1_4VoidEEENS_9allocatorIS5_EEED1Ev, symObjAddr: 0x3350, symBinAddr: 0xA2F0, symSize: 0x10 }
  - { offsetInCU: 0x49B2C, offset: 0xF76A0, size: 0x8, addend: 0x0, symName: __ZNSt3__120__shared_ptr_emplaceIN3bar4impl11SharedStateINS1_4VoidEEENS_9allocatorIS5_EEED0Ev, symObjAddr: 0x3360, symBinAddr: 0xA300, symSize: 0x20 }
  - { offsetInCU: 0x49BCA, offset: 0xF773E, size: 0x8, addend: 0x0, symName: __ZNSt3__120__shared_ptr_emplaceIN3bar4impl11SharedStateINS1_4VoidEEENS_9allocatorIS5_EEE16__on_zero_sharedEv, symObjAddr: 0x3380, symBinAddr: 0xA320, symSize: 0x74 }
  - { offsetInCU: 0x49D2A, offset: 0xF789E, size: 0x8, addend: 0x0, symName: __ZNSt3__120__shared_ptr_emplaceIN3bar4impl11SharedStateINS1_4VoidEEENS_9allocatorIS5_EEE21__on_zero_shared_weakEv, symObjAddr: 0x33F4, symBinAddr: 0xA394, symSize: 0x4 }
  - { offsetInCU: 0x49D5F, offset: 0xF78D3, size: 0x8, addend: 0x0, symName: __ZNSt3__120__shared_ptr_emplaceIN3bar4impl11SharedStateINS1_4VoidEEENS_9allocatorIS5_EEE21__on_zero_shared_weakEv, symObjAddr: 0x33F4, symBinAddr: 0xA394, symSize: 0x4 }
  - { offsetInCU: 0x49D84, offset: 0xF78F8, size: 0x8, addend: 0x0, symName: __ZNSt3__120__shared_ptr_emplaceIN3bar4impl11SharedStateINS1_4VoidEEENS_9allocatorIS5_EEE21__on_zero_shared_weakEv, symObjAddr: 0x33F4, symBinAddr: 0xA394, symSize: 0x4 }
  - { offsetInCU: 0x49DA9, offset: 0xF791D, size: 0x8, addend: 0x0, symName: __ZNSt3__120__shared_ptr_emplaceIN3bar4impl11SharedStateINS1_4VoidEEENS_9allocatorIS5_EEE21__on_zero_shared_weakEv, symObjAddr: 0x33F4, symBinAddr: 0xA394, symSize: 0x4 }
  - { offsetInCU: 0x49DDA, offset: 0xF794E, size: 0x8, addend: 0x0, symName: __ZNSt3__120__shared_ptr_emplaceIN3bar4impl11SharedStateINS1_4VoidEEENS_9allocatorIS5_EEE21__on_zero_shared_weakEv, symObjAddr: 0x33F4, symBinAddr: 0xA394, symSize: 0x4 }
  - { offsetInCU: 0x49E05, offset: 0xF7979, size: 0x8, addend: 0x0, symName: __ZNSt3__120__shared_ptr_emplaceIN3bar4impl11SharedStateINS1_4VoidEEENS_9allocatorIS5_EEE21__on_zero_shared_weakEv, symObjAddr: 0x33F4, symBinAddr: 0xA394, symSize: 0x4 }
  - { offsetInCU: 0x49EF6, offset: 0xF7A6A, size: 0x8, addend: 0x0, symName: '__ZNSt3__110__function6__funcIN3bar4impl12ThenCallbackINS2_4VoidEZ53-[SDCBarcodeCapture applySettings:completionHandler:]E3$_0EENS_9allocatorIS7_EEFvRKS5_EED1Ev', symObjAddr: 0x33F8, symBinAddr: 0xA398, symSize: 0x7C }
  - { offsetInCU: 0x4A0FC, offset: 0xF7C70, size: 0x8, addend: 0x0, symName: '__ZNSt3__110__function6__funcIN3bar4impl12ThenCallbackINS2_4VoidEZ53-[SDCBarcodeCapture applySettings:completionHandler:]E3$_0EENS_9allocatorIS7_EEFvRKS5_EED0Ev', symObjAddr: 0x3474, symBinAddr: 0xA414, symSize: 0x7C }
  - { offsetInCU: 0x4A5A9, offset: 0xF811D, size: 0x8, addend: 0x0, symName: '__ZNKSt3__110__function6__funcIN3bar4impl12ThenCallbackINS2_4VoidEZ53-[SDCBarcodeCapture applySettings:completionHandler:]E3$_0EENS_9allocatorIS7_EEFvRKS5_EE7__cloneEv', symObjAddr: 0x34F0, symBinAddr: 0xA490, symSize: 0x64 }
  - { offsetInCU: 0x4AA41, offset: 0xF85B5, size: 0x8, addend: 0x0, symName: '__ZNKSt3__110__function6__funcIN3bar4impl12ThenCallbackINS2_4VoidEZ53-[SDCBarcodeCapture applySettings:completionHandler:]E3$_0EENS_9allocatorIS7_EEFvRKS5_EE7__cloneEPNS0_6__baseISC_EE', symObjAddr: 0x3554, symBinAddr: 0xA4F4, symSize: 0x54 }
  - { offsetInCU: 0x4ACFA, offset: 0xF886E, size: 0x8, addend: 0x0, symName: '__ZNSt3__110__function6__funcIN3bar4impl12ThenCallbackINS2_4VoidEZ53-[SDCBarcodeCapture applySettings:completionHandler:]E3$_0EENS_9allocatorIS7_EEFvRKS5_EE7destroyEv', symObjAddr: 0x35A8, symBinAddr: 0xA548, symSize: 0x64 }
  - { offsetInCU: 0x4AEE6, offset: 0xF8A5A, size: 0x8, addend: 0x0, symName: '__ZNSt3__110__function6__funcIN3bar4impl12ThenCallbackINS2_4VoidEZ53-[SDCBarcodeCapture applySettings:completionHandler:]E3$_0EENS_9allocatorIS7_EEFvRKS5_EE18destroy_deallocateEv', symObjAddr: 0x360C, symBinAddr: 0xA5AC, symSize: 0x70 }
  - { offsetInCU: 0x4B226, offset: 0xF8D9A, size: 0x8, addend: 0x0, symName: '__ZNSt3__110__function6__funcIN3bar4impl12ThenCallbackINS2_4VoidEZ53-[SDCBarcodeCapture applySettings:completionHandler:]E3$_0EENS_9allocatorIS7_EEFvRKS5_EEclESB_', symObjAddr: 0x367C, symBinAddr: 0xA61C, symSize: 0x2C }
  - { offsetInCU: 0x4B357, offset: 0xF8ECB, size: 0x8, addend: 0x0, symName: __ZN3bar4impl11SharedStateINS_4VoidEE8setValueIJEEEvDpOT_, symObjAddr: 0x3714, symBinAddr: 0xA6B4, symSize: 0x128 }
  - { offsetInCU: 0x4B7D4, offset: 0xF9348, size: 0x8, addend: 0x0, symName: '__ZNKSt3__110__function6__funcIN3bar4impl12ThenCallbackINS2_4VoidEZ53-[SDCBarcodeCapture applySettings:completionHandler:]E3$_0EENS_9allocatorIS7_EEFvRKS5_EE6targetERKSt9type_info', symObjAddr: 0x36A8, symBinAddr: 0xA648, symSize: 0x60 }
  - { offsetInCU: 0x4B860, offset: 0xF93D4, size: 0x8, addend: 0x0, symName: '__ZNKSt3__110__function6__funcIN3bar4impl12ThenCallbackINS2_4VoidEZ53-[SDCBarcodeCapture applySettings:completionHandler:]E3$_0EENS_9allocatorIS7_EEFvRKS5_EE11target_typeEv', symObjAddr: 0x3708, symBinAddr: 0xA6A8, symSize: 0xC }
  - { offsetInCU: 0x4B8FD, offset: 0xF9471, size: 0x8, addend: 0x0, symName: __ZNSt3__117bad_function_callD1Ev, symObjAddr: 0x3A08, symBinAddr: 0xA9A8, symSize: 0x4 }
  - { offsetInCU: 0x4B921, offset: 0xF9495, size: 0x8, addend: 0x0, symName: __ZNSt3__117bad_function_callD1Ev, symObjAddr: 0x3A08, symBinAddr: 0xA9A8, symSize: 0x4 }
  - { offsetInCU: 0x4B956, offset: 0xF94CA, size: 0x8, addend: 0x0, symName: __ZNSt3__117bad_function_callD0Ev, symObjAddr: 0x3A0C, symBinAddr: 0xA9AC, symSize: 0x14 }
  - { offsetInCU: 0x4BB6A, offset: 0xF96DE, size: 0x8, addend: 0x0, symName: __ZZN6djinni18get_cpp_proxy_implI28SDCBarcodeCaptureLicenseInfoN3sdc20SymbologyLicenseInfoEEEPT_RKNSt3__110shared_ptrIT0_EEENUlRKNS7_IvEEE_8__invokeESE_, symObjAddr: 0x3B08, symBinAddr: 0xAAA8, symSize: 0xE0 }
  - { offsetInCU: 0x4BE1C, offset: 0xF9990, size: 0x8, addend: 0x0, symName: __ZZN6djinni18get_cpp_proxy_implI28SDCBarcodeCaptureLicenseInfoN3sdc20SymbologyLicenseInfoEEEPT_RKNSt3__110shared_ptrIT0_EEENUlRKNS7_IvEEE_8__invokeESE_.cold.1, symObjAddr: 0x4B90, symBinAddr: 0x2715E0, symSize: 0x2C }
  - { offsetInCU: 0x4C0F0, offset: 0xF9C64, size: 0x8, addend: 0x0, symName: __ZZN6djinniL14get_objc_proxyIN3sdc4core27BarcodeCaptureListenerProxyEU36objcproto25SDCBarcodeCaptureListener11objc_objectEENSt3__110shared_ptrIT_EEPT0_ENUlRU8__strongKP11objc_objectE_8__invokeESE_, symObjAddr: 0x3CF8, symBinAddr: 0xAC98, symSize: 0x7C }
  - { offsetInCU: 0x4C47D, offset: 0xF9FF1, size: 0x8, addend: 0x0, symName: __ZNSt3__120__shared_ptr_emplaceIN3sdc4core27BarcodeCaptureListenerProxyENS_9allocatorIS3_EEED1Ev, symObjAddr: 0x3D74, symBinAddr: 0xAD14, symSize: 0x10 }
  - { offsetInCU: 0x4C4A1, offset: 0xFA015, size: 0x8, addend: 0x0, symName: __ZNSt3__120__shared_ptr_emplaceIN3sdc4core27BarcodeCaptureListenerProxyENS_9allocatorIS3_EEED1Ev, symObjAddr: 0x3D74, symBinAddr: 0xAD14, symSize: 0x10 }
  - { offsetInCU: 0x4C4DA, offset: 0xFA04E, size: 0x8, addend: 0x0, symName: __ZNSt3__120__shared_ptr_emplaceIN3sdc4core27BarcodeCaptureListenerProxyENS_9allocatorIS3_EEED0Ev, symObjAddr: 0x3D84, symBinAddr: 0xAD24, symSize: 0x20 }
  - { offsetInCU: 0x4C5B2, offset: 0xFA126, size: 0x8, addend: 0x0, symName: __ZNSt3__120__shared_ptr_emplaceIN3sdc4core27BarcodeCaptureListenerProxyENS_9allocatorIS3_EEE16__on_zero_sharedEv, symObjAddr: 0x3DA4, symBinAddr: 0xAD44, symSize: 0x70 }
  - { offsetInCU: 0x4C6E2, offset: 0xFA256, size: 0x8, addend: 0x0, symName: __ZN6djinni10ProxyCacheINS_20ObjcProxyCacheTraitsEE6HandleIU6__weakPU36objcproto25SDCBarcodeCaptureListener11objc_objectU8__strongS5_ED2Ev, symObjAddr: 0x42F0, symBinAddr: 0xB288, symSize: 0xF8 }
  - { offsetInCU: 0x4C809, offset: 0xFA37D, size: 0x8, addend: 0x0, symName: __ZNSt3__120__shared_ptr_emplaceIN3sdc4core27BarcodeCaptureListenerProxyENS_9allocatorIS3_EEE21__on_zero_shared_weakEv, symObjAddr: 0x3E14, symBinAddr: 0xADB4, symSize: 0x4 }
  - { offsetInCU: 0x4C83E, offset: 0xFA3B2, size: 0x8, addend: 0x0, symName: __ZNSt3__120__shared_ptr_emplaceIN3sdc4core27BarcodeCaptureListenerProxyENS_9allocatorIS3_EEE21__on_zero_shared_weakEv, symObjAddr: 0x3E14, symBinAddr: 0xADB4, symSize: 0x4 }
  - { offsetInCU: 0x4C863, offset: 0xFA3D7, size: 0x8, addend: 0x0, symName: __ZNSt3__120__shared_ptr_emplaceIN3sdc4core27BarcodeCaptureListenerProxyENS_9allocatorIS3_EEE21__on_zero_shared_weakEv, symObjAddr: 0x3E14, symBinAddr: 0xADB4, symSize: 0x4 }
  - { offsetInCU: 0x4C888, offset: 0xFA3FC, size: 0x8, addend: 0x0, symName: __ZNSt3__120__shared_ptr_emplaceIN3sdc4core27BarcodeCaptureListenerProxyENS_9allocatorIS3_EEE21__on_zero_shared_weakEv, symObjAddr: 0x3E14, symBinAddr: 0xADB4, symSize: 0x4 }
  - { offsetInCU: 0x4C8B8, offset: 0xFA42C, size: 0x8, addend: 0x0, symName: __ZNSt3__120__shared_ptr_emplaceIN3sdc4core27BarcodeCaptureListenerProxyENS_9allocatorIS3_EEE21__on_zero_shared_weakEv, symObjAddr: 0x3E14, symBinAddr: 0xADB4, symSize: 0x4 }
  - { offsetInCU: 0x4C8E2, offset: 0xFA456, size: 0x8, addend: 0x0, symName: __ZNSt3__120__shared_ptr_emplaceIN3sdc4core27BarcodeCaptureListenerProxyENS_9allocatorIS3_EEE21__on_zero_shared_weakEv, symObjAddr: 0x3E14, symBinAddr: 0xADB4, symSize: 0x4 }
  - { offsetInCU: 0x4C9DA, offset: 0xFA54E, size: 0x8, addend: 0x0, symName: __ZN3sdc4core27BarcodeCaptureListenerProxyD1Ev, symObjAddr: 0x3EDC, symBinAddr: 0xAE7C, symSize: 0x78 }
  - { offsetInCU: 0x4CAED, offset: 0xFA661, size: 0x8, addend: 0x0, symName: __ZN3sdc4core27BarcodeCaptureListenerProxyD0Ev, symObjAddr: 0x3F54, symBinAddr: 0xAEF4, symSize: 0x78 }
  - { offsetInCU: 0x4CC22, offset: 0xFA796, size: 0x8, addend: 0x0, symName: __ZN3sdc4core27BarcodeCaptureListenerProxy20onObservationStartedERKNSt3__110shared_ptrINS_14BarcodeCaptureEEE, symObjAddr: 0x3FCC, symBinAddr: 0xAF6C, symSize: 0x94 }
  - { offsetInCU: 0x4CCED, offset: 0xFA861, size: 0x8, addend: 0x0, symName: __ZN3sdc4core27BarcodeCaptureListenerProxy20onObservationStoppedERKNSt3__110shared_ptrINS_14BarcodeCaptureEEE, symObjAddr: 0x4060, symBinAddr: 0xB000, symSize: 0x94 }
  - { offsetInCU: 0x4CDB8, offset: 0xFA92C, size: 0x8, addend: 0x0, symName: __ZN3sdc4core36DetectorBasedDataCaptureModeListenerINS_14BarcodeCaptureENS_22BarcodeCaptureSettingsEE17onSettingsUpdatedERKNSt3__110shared_ptrIS2_EERKNS6_IS3_EE, symObjAddr: 0x40F4, symBinAddr: 0xB094, symSize: 0x4 }
  - { offsetInCU: 0x4CE5D, offset: 0xFA9D1, size: 0x8, addend: 0x0, symName: __ZN3sdc4core27BarcodeCaptureListenerProxy6onScanERKNSt3__110shared_ptrINS_14BarcodeCaptureEEERKNS3_INS_29AbstractBarcodeScannerSessionEEERKNS3_INS0_9FrameDataEEE, symObjAddr: 0x40F8, symBinAddr: 0xB098, symSize: 0xEC }
  - { offsetInCU: 0x4CFB2, offset: 0xFAB26, size: 0x8, addend: 0x0, symName: __ZN3sdc4core27BarcodeCaptureListenerProxy16onSessionUpdatedERKNSt3__110shared_ptrINS_14BarcodeCaptureEEERKNS3_INS_29AbstractBarcodeScannerSessionEEERKNS3_INS0_9FrameDataEEE, symObjAddr: 0x41E4, symBinAddr: 0xB184, symSize: 0x100 }
  - { offsetInCU: 0x4D107, offset: 0xFAC7B, size: 0x8, addend: 0x0, symName: __ZN3sdc22BarcodeCaptureListener16onLocationsResetEv, symObjAddr: 0x42E4, symBinAddr: 0xB284, symSize: 0x4 }
  - { offsetInCU: 0x4D12C, offset: 0xFACA0, size: 0x8, addend: 0x0, symName: __ZN11proxy_cache13ListenerProxyIU8__strongPU36objcproto25SDCBarcodeCaptureListener11objc_objectN3sdc22BarcodeCaptureListenerEED1Ev, symObjAddr: 0x42E8, symBinAddr: 0x271524, symSize: 0x4 }
  - { offsetInCU: 0x4D157, offset: 0xFACCB, size: 0x8, addend: 0x0, symName: __ZN11proxy_cache13ListenerProxyIU8__strongPU36objcproto25SDCBarcodeCaptureListener11objc_objectN3sdc22BarcodeCaptureListenerEED0Ev, symObjAddr: 0x42EC, symBinAddr: 0x271528, symSize: 0x4 }
  - { offsetInCU: 0x4D4B6, offset: 0xFB02A, size: 0x8, addend: 0x0, symName: __ZZN6djinni18get_cpp_proxy_implI24SDCBarcodeCaptureSessionN3sdc29AbstractBarcodeScannerSessionEEEPT_RKNSt3__110shared_ptrIT0_EEENUlRKNS7_IvEEE_8__invokeESE_, symObjAddr: 0x4644, symBinAddr: 0xB5DC, symSize: 0xE0 }
  - { offsetInCU: 0x4D768, offset: 0xFB2DC, size: 0x8, addend: 0x0, symName: __ZZN6djinni18get_cpp_proxy_implI24SDCBarcodeCaptureSessionN3sdc29AbstractBarcodeScannerSessionEEEPT_RKNSt3__110shared_ptrIT0_EEENUlRKNS7_IvEEE_8__invokeESE_.cold.1, symObjAddr: 0x4BBC, symBinAddr: 0x27160C, symSize: 0x2C }
  - { offsetInCU: 0x4D9B6, offset: 0xFB52A, size: 0x8, addend: 0x0, symName: __ZZN11proxy_cache7to_objcIN3sdc4core9FrameDataEEENS_11ProxyTraitsIT_E8ObjcTypeERKNSt3__110shared_ptrIS5_EEENUlRKNS9_IvEEE_8__invokeESF_, symObjAddr: 0x4724, symBinAddr: 0xB6BC, symSize: 0xE0 }
  - { offsetInCU: 0x4DC68, offset: 0xFB7DC, size: 0x8, addend: 0x0, symName: __ZZN11proxy_cache7to_objcIN3sdc4core9FrameDataEEENS_11ProxyTraitsIT_E8ObjcTypeERKNSt3__110shared_ptrIS5_EEENUlRKNS9_IvEEE_8__invokeESF_.cold.1, symObjAddr: 0x4BE8, symBinAddr: 0x271638, symSize: 0x2C }
  - { offsetInCU: 0x4DEBE, offset: 0xFBA32, size: 0x8, addend: 0x0, symName: __ZZN6djinni18get_cpp_proxy_implI21SDCDataCaptureContextN3sdc4core18DataCaptureContextEEEPT_RKNSt3__110shared_ptrIT0_EEENUlRKNS8_IvEEE_8__invokeESF_, symObjAddr: 0x48EC, symBinAddr: 0xB884, symSize: 0xE0 }
  - { offsetInCU: 0x4E170, offset: 0xFBCE4, size: 0x8, addend: 0x0, symName: __ZZN6djinni18get_cpp_proxy_implI21SDCDataCaptureContextN3sdc4core18DataCaptureContextEEEPT_RKNSt3__110shared_ptrIT0_EEENUlRKNS8_IvEEE_8__invokeESF_.cold.1, symObjAddr: 0x4C14, symBinAddr: 0x271664, symSize: 0x2C }
  - { offsetInCU: 0x4E217, offset: 0xFBD8B, size: 0x8, addend: 0x0, symName: _OUTLINED_FUNCTION_0, symObjAddr: 0x4C40, symBinAddr: 0xBA74, symSize: 0x10 }
  - { offsetInCU: 0x4E22F, offset: 0xFBDA3, size: 0x8, addend: 0x0, symName: _OUTLINED_FUNCTION_1, symObjAddr: 0x4C50, symBinAddr: 0xBA84, symSize: 0x10 }
  - { offsetInCU: 0x4E247, offset: 0xFBDBB, size: 0x8, addend: 0x0, symName: _OUTLINED_FUNCTION_2, symObjAddr: 0x4C60, symBinAddr: 0xBA94, symSize: 0x8 }
  - { offsetInCU: 0x4E25F, offset: 0xFBDD3, size: 0x8, addend: 0x0, symName: _OUTLINED_FUNCTION_3, symObjAddr: 0x4C68, symBinAddr: 0xBA9C, symSize: 0x8 }
  - { offsetInCU: 0x4E277, offset: 0xFBDEB, size: 0x8, addend: 0x0, symName: _OUTLINED_FUNCTION_4, symObjAddr: 0x4C70, symBinAddr: 0xBAA4, symSize: 0xC }
  - { offsetInCU: 0x38D49, offset: 0x134DAF, size: 0x8, addend: 0x0, symName: __ZNSt3__115allocate_sharedB8ue170006IN3sdc26BarcodeCaptureDeserializerENS_9allocatorIS2_EEJRNS_10shared_ptrINS1_4core29LocationSelectionDeserializerEEERNS5_INS6_22ViewfinderDeserializerEEERNS5_INS1_32BarcodeCaptureDeserializerHelperEEEEvEENS5_IT_EERKT0_DpOT1_, symObjAddr: 0x3640, symBinAddr: 0xEF0C, symSize: 0x124 }
  - { offsetInCU: 0x39CA9, offset: 0x135D0F, size: 0x8, addend: 0x0, symName: __ZNSt3__1eqB8ue170006IcNS_11char_traitsIcEENS_9allocatorIcEEEEbRKNS_12basic_stringIT_T0_T1_EEPKS6_, symObjAddr: 0x5BD8, symBinAddr: 0x11024, symSize: 0x98 }
  - { offsetInCU: 0x39F70, offset: 0x135FD6, size: 0x8, addend: 0x0, symName: __ZNSt3__1plB8ue170006IcNS_11char_traitsIcEENS_9allocatorIcEEEENS_12basic_stringIT_T0_T1_EERKS9_PKS6_, symObjAddr: 0x7114, symBinAddr: 0x12560, symSize: 0xE8 }
  - { offsetInCU: 0x3A640, offset: 0x1366A6, size: 0x8, addend: 0x0, symName: __ZNK3bar6resultIiNSt3__112basic_stringIcNS1_11char_traitsIcEENS1_9allocatorIcEEEEE5errorEv, symObjAddr: 0x71FC, symBinAddr: 0x12648, symSize: 0x12C }
  - { offsetInCU: 0x3A694, offset: 0x1366FA, size: 0x8, addend: 0x0, symName: __ZNSt3__120__throw_out_of_rangeB8ue170006EPKc, symObjAddr: 0x70A0, symBinAddr: 0x124EC, symSize: 0x50 }
  - { offsetInCU: 0x45332, offset: 0x141398, size: 0x8, addend: 0x0, symName: __ZN3sdc4core31nsarrayWithCppSequenceContainerINSt3__16vectorINS2_12basic_stringIcNS2_11char_traitsIcEENS2_9allocatorIcEEEENS7_IS9_EEEEU8__strongU13block_pointerFP8NSStringS9_EEEP7NSArrayRKT_OT0_NS2_17basic_string_viewIcS6_EE, symObjAddr: 0x7558, symBinAddr: 0x129A4, symSize: 0x1D0 }
  - { offsetInCU: 0x4F735, offset: 0x14B79B, size: 0x8, addend: 0x0, symName: __ZN6djinni18get_cpp_proxy_implI29SDCBarcodeCaptureDeserializerN3sdc26BarcodeCaptureDeserializerEEEPT_RKNSt3__110shared_ptrIT0_EE, symObjAddr: 0x39D8, symBinAddr: 0xF21C, symSize: 0xE8 }
  - { offsetInCU: 0x4F952, offset: 0x14B9B8, size: 0x8, addend: 0x0, symName: __ZN6djinni13set_cpp_proxyIU8__strongP29SDCBarcodeCaptureDeserializerNSt3__110shared_ptrIN3sdc26BarcodeCaptureDeserializerEEEEEvRKT0_T_b, symObjAddr: 0xA34, symBinAddr: 0xC4E4, symSize: 0x104 }
  - { offsetInCU: 0x4FD1A, offset: 0x14BD80, size: 0x8, addend: 0x0, symName: __ZN6djinni18get_cpp_proxy_implI25SDCBarcodeCaptureSettingsN3sdc22BarcodeCaptureSettingsEEEPT_RKNSt3__110shared_ptrIT0_EE, symObjAddr: 0x3DD0, symBinAddr: 0xF3E4, symSize: 0xE8 }
  - { offsetInCU: 0x4FF6B, offset: 0x14BFD1, size: 0x8, addend: 0x0, symName: __ZN6djinni18get_cpp_proxy_implI24SDCBarcodeCaptureOverlayN3sdc21BarcodeCaptureOverlayEEEPT_RKNSt3__110shared_ptrIT0_EE, symObjAddr: 0x3F98, symBinAddr: 0xF5AC, symSize: 0xE8 }
  - { offsetInCU: 0x5039C, offset: 0x14C402, size: 0x8, addend: 0x0, symName: __ZN6djinni18get_cpp_proxy_implI18SDCDataCaptureViewN3sdc4core18DataCaptureViewIosEEEPT_RKNSt3__110shared_ptrIT0_EE, symObjAddr: 0x7390, symBinAddr: 0x127DC, symSize: 0xE8 }
  - { offsetInCU: 0x532D2, offset: 0x14F338, size: 0x8, addend: 0x0, symName: '+[SDCBarcodeCaptureDeserializer barcodeCaptureDeserializer]', symObjAddr: 0x0, symBinAddr: 0xBAB0, symSize: 0x3A8 }
  - { offsetInCU: 0x53EB5, offset: 0x14FF1B, size: 0x8, addend: 0x0, symName: __ZNSt3__110shared_ptrIN3sdc26BarcodeCaptureDeserializerEED1B8ue170006Ev, symObjAddr: 0x4E0, symBinAddr: 0xBF90, symSize: 0x68 }
  - { offsetInCU: 0x53F54, offset: 0x14FFBA, size: 0x8, addend: 0x0, symName: __ZNSt3__110shared_ptrIN3sdc32BarcodeCaptureDeserializerHelperEED1B8ue170006Ev, symObjAddr: 0x3A8, symBinAddr: 0xBE58, symSize: 0x68 }
  - { offsetInCU: 0x53FF3, offset: 0x150059, size: 0x8, addend: 0x0, symName: __ZNSt3__110shared_ptrIN3sdc4core22ViewfinderDeserializerEED1B8ue170006Ev, symObjAddr: 0x410, symBinAddr: 0xBEC0, symSize: 0x68 }
  - { offsetInCU: 0x54092, offset: 0x1500F8, size: 0x8, addend: 0x0, symName: __ZNSt3__110shared_ptrIN3sdc4core29LocationSelectionDeserializerEED1B8ue170006Ev, symObjAddr: 0x478, symBinAddr: 0xBF28, symSize: 0x68 }
  - { offsetInCU: 0x54131, offset: 0x150197, size: 0x8, addend: 0x0, symName: __ZNSt3__110shared_ptrIN7details36BarcodeCaptureDeserializerHelperImplEED1B8ue170006Ev, symObjAddr: 0x548, symBinAddr: 0xBFF8, symSize: 0x68 }
  - { offsetInCU: 0x5421E, offset: 0x150284, size: 0x8, addend: 0x0, symName: '-[SDCBarcodeCaptureDeserializer init]', symObjAddr: 0x5B0, symBinAddr: 0xC060, symSize: 0x484 }
  - { offsetInCU: 0x55173, offset: 0x1511D9, size: 0x8, addend: 0x0, symName: '-[SDCBarcodeCaptureDeserializer initWithCpp:]', symObjAddr: 0xB38, symBinAddr: 0xC5E8, symSize: 0xD0 }
  - { offsetInCU: 0x553C0, offset: 0x151426, size: 0x8, addend: 0x0, symName: '-[SDCBarcodeCaptureDeserializer cppImpl]', symObjAddr: 0xC08, symBinAddr: 0xC6B8, symSize: 0x8 }
  - { offsetInCU: 0x553FA, offset: 0x151460, size: 0x8, addend: 0x0, symName: '-[SDCBarcodeCaptureDeserializer cppImpl]', symObjAddr: 0xC08, symBinAddr: 0xC6B8, symSize: 0x8 }
  - { offsetInCU: 0x55417, offset: 0x15147D, size: 0x8, addend: 0x0, symName: '-[SDCBarcodeCaptureDeserializer typeErasedCppImpl]', symObjAddr: 0xC10, symBinAddr: 0xC6C0, symSize: 0x24 }
  - { offsetInCU: 0x5544F, offset: 0x1514B5, size: 0x8, addend: 0x0, symName: '-[SDCBarcodeCaptureDeserializer typeErasedCppImpl]', symObjAddr: 0xC10, symBinAddr: 0xC6C0, symSize: 0x24 }
  - { offsetInCU: 0x55478, offset: 0x1514DE, size: 0x8, addend: 0x0, symName: '-[SDCBarcodeCaptureDeserializer typeErasedCppImpl]', symObjAddr: 0xC10, symBinAddr: 0xC6C0, symSize: 0x24 }
  - { offsetInCU: 0x557A2, offset: 0x151808, size: 0x8, addend: 0x0, symName: '-[SDCBarcodeCaptureDeserializer warnings]', symObjAddr: 0xC34, symBinAddr: 0xC6E4, symSize: 0x10C }
  - { offsetInCU: 0x55B53, offset: 0x151BB9, size: 0x8, addend: 0x0, symName: __ZNSt3__16vectorINS_12basic_stringIcNS_11char_traitsIcEENS_9allocatorIcEEEENS4_IS6_EEED1B8ue170006Ev, symObjAddr: 0xD48, symBinAddr: 0xC7F8, symSize: 0x74 }
  - { offsetInCU: 0x55E33, offset: 0x151E99, size: 0x8, addend: 0x0, symName: '___41-[SDCBarcodeCaptureDeserializer warnings]_block_invoke', symObjAddr: 0xD40, symBinAddr: 0xC7F0, symSize: 0x8 }
  - { offsetInCU: 0x561E5, offset: 0x15224B, size: 0x8, addend: 0x0, symName: '-[SDCBarcodeCaptureDeserializer modeFromJSONString:withContext:error:]', symObjAddr: 0xDBC, symBinAddr: 0xC86C, symSize: 0x488 }
  - { offsetInCU: 0x57073, offset: 0x1530D9, size: 0x8, addend: 0x0, symName: __ZN3bar6resultINSt3__110shared_ptrIN3sdc4core9JsonValueEEENS1_12basic_stringIcNS1_11char_traitsIcEENS1_9allocatorIcEEEEE14value_or_throwEv, symObjAddr: 0x12E4, symBinAddr: 0xCCF4, symSize: 0x108 }
  - { offsetInCU: 0x573D4, offset: 0x15343A, size: 0x8, addend: 0x0, symName: __ZN3bar6resultINSt3__110shared_ptrIN3sdc14BarcodeCaptureEEENS1_12basic_stringIcNS1_11char_traitsIcEENS1_9allocatorIcEEEEE14value_or_throwEv, symObjAddr: 0x147C, symBinAddr: 0xCE8C, symSize: 0x108 }
  - { offsetInCU: 0x57983, offset: 0x1539E9, size: 0x8, addend: 0x0, symName: __ZN3bar6resultINSt3__110shared_ptrIN3sdc4core9JsonValueEEENS1_12basic_stringIcNS1_11char_traitsIcEENS1_9allocatorIcEEEEE14value_or_throwEv, symObjAddr: 0x12E4, symBinAddr: 0xCCF4, symSize: 0x108 }
  - { offsetInCU: 0x579F9, offset: 0x153A5F, size: 0x8, addend: 0x0, symName: __ZN3bar6resultINSt3__110shared_ptrIN3sdc14BarcodeCaptureEEENS1_12basic_stringIcNS1_11char_traitsIcEENS1_9allocatorIcEEEEED1Ev, symObjAddr: 0x1584, symBinAddr: 0xCF94, symSize: 0x90 }
  - { offsetInCU: 0x57C24, offset: 0x153C8A, size: 0x8, addend: 0x0, symName: __ZNSt3__110shared_ptrIN3sdc4core9JsonValueEED1B8ue170006Ev, symObjAddr: 0x1614, symBinAddr: 0xD024, symSize: 0x68 }
  - { offsetInCU: 0x57D28, offset: 0x153D8E, size: 0x8, addend: 0x0, symName: __ZN3bar6resultINSt3__110shared_ptrIN3sdc4core9JsonValueEEENS1_12basic_stringIcNS1_11char_traitsIcEENS1_9allocatorIcEEEEED1Ev, symObjAddr: 0x13EC, symBinAddr: 0xCDFC, symSize: 0x90 }
  - { offsetInCU: 0x5822B, offset: 0x154291, size: 0x8, addend: 0x0, symName: __ZNK3bar6resultINSt3__110shared_ptrIN3sdc4core9JsonValueEEENS1_12basic_stringIcNS1_11char_traitsIcEENS1_9allocatorIcEEEEE5errorEv, symObjAddr: 0x4160, symBinAddr: 0xF774, symSize: 0x12C }
  - { offsetInCU: 0x587E5, offset: 0x15484B, size: 0x8, addend: 0x0, symName: __ZNK3bar6resultINSt3__110shared_ptrIN3sdc14BarcodeCaptureEEENS1_12basic_stringIcNS1_11char_traitsIcEENS1_9allocatorIcEEEEE5errorEv, symObjAddr: 0x7728, symBinAddr: 0x12B74, symSize: 0x12C }
  - { offsetInCU: 0x58D84, offset: 0x154DEA, size: 0x8, addend: 0x0, symName: '-[SDCBarcodeCaptureDeserializer updateMode:fromJSONString:error:]', symObjAddr: 0x1758, symBinAddr: 0xD08C, symSize: 0x49C }
  - { offsetInCU: 0x59D9C, offset: 0x155E02, size: 0x8, addend: 0x0, symName: '-[SDCBarcodeCaptureDeserializer settingsFromJSONString:error:]', symObjAddr: 0x1BF4, symBinAddr: 0xD528, symSize: 0x3E0 }
  - { offsetInCU: 0x5AC4E, offset: 0x156CB4, size: 0x8, addend: 0x0, symName: __ZN3bar6resultINSt3__110shared_ptrIN3sdc22BarcodeCaptureSettingsEEENS1_12basic_stringIcNS1_11char_traitsIcEENS1_9allocatorIcEEEEE14value_or_throwEv, symObjAddr: 0x1FD4, symBinAddr: 0xD908, symSize: 0x108 }
  - { offsetInCU: 0x5B020, offset: 0x157086, size: 0x8, addend: 0x0, symName: __ZN3bar6resultINSt3__110shared_ptrIN3sdc22BarcodeCaptureSettingsEEENS1_12basic_stringIcNS1_11char_traitsIcEENS1_9allocatorIcEEEEED1Ev, symObjAddr: 0x20DC, symBinAddr: 0xDA10, symSize: 0x90 }
  - { offsetInCU: 0x5B266, offset: 0x1572CC, size: 0x8, addend: 0x0, symName: __ZNK3bar6resultINSt3__110shared_ptrIN3sdc22BarcodeCaptureSettingsEEENS1_12basic_stringIcNS1_11char_traitsIcEENS1_9allocatorIcEEEEE5errorEv, symObjAddr: 0x7854, symBinAddr: 0x12CA0, symSize: 0x12C }
  - { offsetInCU: 0x5B805, offset: 0x15786B, size: 0x8, addend: 0x0, symName: '-[SDCBarcodeCaptureDeserializer updateSettings:fromJSONString:error:]', symObjAddr: 0x21D4, symBinAddr: 0xDAA0, symSize: 0x49C }
  - { offsetInCU: 0x5C88C, offset: 0x1588F2, size: 0x8, addend: 0x0, symName: '-[SDCBarcodeCaptureDeserializer overlayFromJSONString:withMode:error:]', symObjAddr: 0x2670, symBinAddr: 0xDF3C, symSize: 0x4A4 }
  - { offsetInCU: 0x5D7DD, offset: 0x159843, size: 0x8, addend: 0x0, symName: __ZN3bar6resultINSt3__110shared_ptrIN3sdc21BarcodeCaptureOverlayEEENS1_12basic_stringIcNS1_11char_traitsIcEENS1_9allocatorIcEEEEE14value_or_throwEv, symObjAddr: 0x2B14, symBinAddr: 0xE3E0, symSize: 0x108 }
  - { offsetInCU: 0x5DB4A, offset: 0x159BB0, size: 0x8, addend: 0x0, symName: __ZNSt3__110shared_ptrIN3sdc21BarcodeCaptureOverlayEED1B8ue170006Ev, symObjAddr: 0x2CAC, symBinAddr: 0xE578, symSize: 0x68 }
  - { offsetInCU: 0x5DBE9, offset: 0x159C4F, size: 0x8, addend: 0x0, symName: __ZN3bar6resultINSt3__110shared_ptrIN3sdc21BarcodeCaptureOverlayEEENS1_12basic_stringIcNS1_11char_traitsIcEENS1_9allocatorIcEEEEED1Ev, symObjAddr: 0x2C1C, symBinAddr: 0xE4E8, symSize: 0x90 }
  - { offsetInCU: 0x5DE2F, offset: 0x159E95, size: 0x8, addend: 0x0, symName: __ZNK3bar6resultINSt3__110shared_ptrIN3sdc21BarcodeCaptureOverlayEEENS1_12basic_stringIcNS1_11char_traitsIcEENS1_9allocatorIcEEEEE5errorEv, symObjAddr: 0x7980, symBinAddr: 0x12DCC, symSize: 0x12C }
  - { offsetInCU: 0x5E3CE, offset: 0x15A434, size: 0x8, addend: 0x0, symName: '-[SDCBarcodeCaptureDeserializer updateOverlay:fromJSONString:error:]', symObjAddr: 0x2D14, symBinAddr: 0xE5E0, symSize: 0x49C }
  - { offsetInCU: 0x5F5AB, offset: 0x15B611, size: 0x8, addend: 0x0, symName: '-[SDCBarcodeCaptureDeserializer setDelegate:]', symObjAddr: 0x31B0, symBinAddr: 0xEA7C, symSize: 0x250 }
  - { offsetInCU: 0x5FBEE, offset: 0x15BC54, size: 0x8, addend: 0x0, symName: '-[SDCBarcodeCaptureDeserializer delegate]', symObjAddr: 0x3400, symBinAddr: 0xECCC, symSize: 0x18 }
  - { offsetInCU: 0x5FE4A, offset: 0x15BEB0, size: 0x8, addend: 0x0, symName: '-[SDCBarcodeCaptureDeserializer .cxx_destruct]', symObjAddr: 0x3418, symBinAddr: 0xECE4, symSize: 0x178 }
  - { offsetInCU: 0x60484, offset: 0x15C4EA, size: 0x8, addend: 0x0, symName: '-[SDCBarcodeCaptureDeserializer .cxx_construct]', symObjAddr: 0x3590, symBinAddr: 0xEE5C, symSize: 0xB0 }
  - { offsetInCU: 0x60709, offset: 0x15C76F, size: 0x8, addend: 0x0, symName: __ZNSt3__16vectorINS_10shared_ptrIN3sdc4core39BarcodeCaptureDeserializerListenerProxyEEENS_9allocatorIS5_EEE7reserveEm, symObjAddr: 0x8420, symBinAddr: 0x13864, symSize: 0x110 }
  - { offsetInCU: 0x60BB2, offset: 0x15CC18, size: 0x8, addend: 0x0, symName: __ZNKSt3__16vectorINS_10shared_ptrIN3sdc4core39BarcodeCaptureDeserializerListenerProxyEEENS_9allocatorIS5_EEE20__throw_length_errorB8ue170006Ev, symObjAddr: 0x8530, symBinAddr: 0x13974, symSize: 0x14 }
  - { offsetInCU: 0x60BC5, offset: 0x15CC2B, size: 0x8, addend: 0x0, symName: '-[SDCBarcodeCaptureDeserializer .cxx_construct].cold.1', symObjAddr: 0x8544, symBinAddr: 0x271698, symSize: 0x88 }
  - { offsetInCU: 0x612B2, offset: 0x15D318, size: 0x8, addend: 0x0, symName: __ZNSt3__120__shared_ptr_emplaceIN3sdc26BarcodeCaptureDeserializerENS_9allocatorIS2_EEEC2B8ue170006IJRNS_10shared_ptrINS1_4core29LocationSelectionDeserializerEEERNS7_INS8_22ViewfinderDeserializerEEERNS7_INS1_32BarcodeCaptureDeserializerHelperEEEEEES4_DpOT_, symObjAddr: 0x3764, symBinAddr: 0xF030, symSize: 0x1AC }
  - { offsetInCU: 0x6187A, offset: 0x15D8E0, size: 0x8, addend: 0x0, symName: __ZNSt3__120__shared_ptr_emplaceIN3sdc26BarcodeCaptureDeserializerENS_9allocatorIS2_EEED1Ev, symObjAddr: 0x3910, symBinAddr: 0xF1DC, symSize: 0x10 }
  - { offsetInCU: 0x6189E, offset: 0x15D904, size: 0x8, addend: 0x0, symName: __ZNSt3__120__shared_ptr_emplaceIN3sdc26BarcodeCaptureDeserializerENS_9allocatorIS2_EEED1Ev, symObjAddr: 0x3910, symBinAddr: 0xF1DC, symSize: 0x10 }
  - { offsetInCU: 0x618D7, offset: 0x15D93D, size: 0x8, addend: 0x0, symName: __ZNSt3__120__shared_ptr_emplaceIN3sdc26BarcodeCaptureDeserializerENS_9allocatorIS2_EEED0Ev, symObjAddr: 0x3920, symBinAddr: 0xF1EC, symSize: 0x20 }
  - { offsetInCU: 0x61941, offset: 0x15D9A7, size: 0x8, addend: 0x0, symName: __ZNSt3__120__shared_ptr_emplaceIN3sdc26BarcodeCaptureDeserializerENS_9allocatorIS2_EEE16__on_zero_sharedEv, symObjAddr: 0x3940, symBinAddr: 0xF20C, symSize: 0xC }
  - { offsetInCU: 0x61974, offset: 0x15D9DA, size: 0x8, addend: 0x0, symName: __ZNSt3__120__shared_ptr_emplaceIN3sdc26BarcodeCaptureDeserializerENS_9allocatorIS2_EEE21__on_zero_shared_weakEv, symObjAddr: 0x394C, symBinAddr: 0xF218, symSize: 0x4 }
  - { offsetInCU: 0x619A9, offset: 0x15DA0F, size: 0x8, addend: 0x0, symName: __ZNSt3__120__shared_ptr_emplaceIN3sdc26BarcodeCaptureDeserializerENS_9allocatorIS2_EEE21__on_zero_shared_weakEv, symObjAddr: 0x394C, symBinAddr: 0xF218, symSize: 0x4 }
  - { offsetInCU: 0x619CE, offset: 0x15DA34, size: 0x8, addend: 0x0, symName: __ZNSt3__120__shared_ptr_emplaceIN3sdc26BarcodeCaptureDeserializerENS_9allocatorIS2_EEE21__on_zero_shared_weakEv, symObjAddr: 0x394C, symBinAddr: 0xF218, symSize: 0x4 }
  - { offsetInCU: 0x619F3, offset: 0x15DA59, size: 0x8, addend: 0x0, symName: __ZNSt3__120__shared_ptr_emplaceIN3sdc26BarcodeCaptureDeserializerENS_9allocatorIS2_EEE21__on_zero_shared_weakEv, symObjAddr: 0x394C, symBinAddr: 0xF218, symSize: 0x4 }
  - { offsetInCU: 0x61A24, offset: 0x15DA8A, size: 0x8, addend: 0x0, symName: __ZNSt3__120__shared_ptr_emplaceIN3sdc26BarcodeCaptureDeserializerENS_9allocatorIS2_EEE21__on_zero_shared_weakEv, symObjAddr: 0x394C, symBinAddr: 0xF218, symSize: 0x4 }
  - { offsetInCU: 0x61A4F, offset: 0x15DAB5, size: 0x8, addend: 0x0, symName: __ZNSt3__120__shared_ptr_emplaceIN3sdc26BarcodeCaptureDeserializerENS_9allocatorIS2_EEE21__on_zero_shared_weakEv, symObjAddr: 0x394C, symBinAddr: 0xF218, symSize: 0x4 }
  - { offsetInCU: 0x61C39, offset: 0x15DC9F, size: 0x8, addend: 0x0, symName: __ZZN6djinni18get_cpp_proxy_implI29SDCBarcodeCaptureDeserializerN3sdc26BarcodeCaptureDeserializerEEEPT_RKNSt3__110shared_ptrIT0_EEENUlRKNS7_IvEEE_8__invokeESE_, symObjAddr: 0x3B28, symBinAddr: 0xF304, symSize: 0xE0 }
  - { offsetInCU: 0x61EF2, offset: 0x15DF58, size: 0x8, addend: 0x0, symName: __ZZN6djinni18get_cpp_proxy_implI29SDCBarcodeCaptureDeserializerN3sdc26BarcodeCaptureDeserializerEEEPT_RKNSt3__110shared_ptrIT0_EEENUlRKNS7_IvEEE_8__invokeESE_.cold.1, symObjAddr: 0x85CC, symBinAddr: 0x271720, symSize: 0x2C }
  - { offsetInCU: 0x621C1, offset: 0x15E227, size: 0x8, addend: 0x0, symName: __ZZN6djinni18get_cpp_proxy_implI25SDCBarcodeCaptureSettingsN3sdc22BarcodeCaptureSettingsEEEPT_RKNSt3__110shared_ptrIT0_EEENUlRKNS7_IvEEE_8__invokeESE_, symObjAddr: 0x3EB8, symBinAddr: 0xF4CC, symSize: 0xE0 }
  - { offsetInCU: 0x6247A, offset: 0x15E4E0, size: 0x8, addend: 0x0, symName: __ZZN6djinni18get_cpp_proxy_implI25SDCBarcodeCaptureSettingsN3sdc22BarcodeCaptureSettingsEEEPT_RKNSt3__110shared_ptrIT0_EEENUlRKNS7_IvEEE_8__invokeESE_.cold.1, symObjAddr: 0x8624, symBinAddr: 0x27174C, symSize: 0x2C }
  - { offsetInCU: 0x626D3, offset: 0x15E739, size: 0x8, addend: 0x0, symName: __ZZN6djinni18get_cpp_proxy_implI24SDCBarcodeCaptureOverlayN3sdc21BarcodeCaptureOverlayEEEPT_RKNSt3__110shared_ptrIT0_EEENUlRKNS7_IvEEE_8__invokeESE_, symObjAddr: 0x4080, symBinAddr: 0xF694, symSize: 0xE0 }
  - { offsetInCU: 0x6298C, offset: 0x15E9F2, size: 0x8, addend: 0x0, symName: __ZZN6djinni18get_cpp_proxy_implI24SDCBarcodeCaptureOverlayN3sdc21BarcodeCaptureOverlayEEEPT_RKNSt3__110shared_ptrIT0_EEENUlRKNS7_IvEEE_8__invokeESE_.cold.1, symObjAddr: 0x8650, symBinAddr: 0x271778, symSize: 0x2C }
  - { offsetInCU: 0x62B05, offset: 0x15EB6B, size: 0x8, addend: 0x0, symName: __ZNSt3__120__shared_ptr_emplaceIN7details36BarcodeCaptureDeserializerHelperImplENS_9allocatorIS2_EEED1Ev, symObjAddr: 0x428C, symBinAddr: 0xF8A0, symSize: 0x10 }
  - { offsetInCU: 0x62B29, offset: 0x15EB8F, size: 0x8, addend: 0x0, symName: __ZNSt3__120__shared_ptr_emplaceIN7details36BarcodeCaptureDeserializerHelperImplENS_9allocatorIS2_EEED1Ev, symObjAddr: 0x428C, symBinAddr: 0xF8A0, symSize: 0x10 }
  - { offsetInCU: 0x62B62, offset: 0x15EBC8, size: 0x8, addend: 0x0, symName: __ZNSt3__120__shared_ptr_emplaceIN7details36BarcodeCaptureDeserializerHelperImplENS_9allocatorIS2_EEED0Ev, symObjAddr: 0x429C, symBinAddr: 0xF8B0, symSize: 0x20 }
  - { offsetInCU: 0x62BCC, offset: 0x15EC32, size: 0x8, addend: 0x0, symName: __ZNSt3__120__shared_ptr_emplaceIN7details36BarcodeCaptureDeserializerHelperImplENS_9allocatorIS2_EEE16__on_zero_sharedEv, symObjAddr: 0x42BC, symBinAddr: 0xF8D0, symSize: 0x4 }
  - { offsetInCU: 0x62C4E, offset: 0x15ECB4, size: 0x8, addend: 0x0, symName: __ZNSt3__120__shared_ptr_emplaceIN7details36BarcodeCaptureDeserializerHelperImplENS_9allocatorIS2_EEE21__on_zero_shared_weakEv, symObjAddr: 0x42C0, symBinAddr: 0xF8D4, symSize: 0x4 }
  - { offsetInCU: 0x62C83, offset: 0x15ECE9, size: 0x8, addend: 0x0, symName: __ZNSt3__120__shared_ptr_emplaceIN7details36BarcodeCaptureDeserializerHelperImplENS_9allocatorIS2_EEE21__on_zero_shared_weakEv, symObjAddr: 0x42C0, symBinAddr: 0xF8D4, symSize: 0x4 }
  - { offsetInCU: 0x62CA8, offset: 0x15ED0E, size: 0x8, addend: 0x0, symName: __ZNSt3__120__shared_ptr_emplaceIN7details36BarcodeCaptureDeserializerHelperImplENS_9allocatorIS2_EEE21__on_zero_shared_weakEv, symObjAddr: 0x42C0, symBinAddr: 0xF8D4, symSize: 0x4 }
  - { offsetInCU: 0x62CCD, offset: 0x15ED33, size: 0x8, addend: 0x0, symName: __ZNSt3__120__shared_ptr_emplaceIN7details36BarcodeCaptureDeserializerHelperImplENS_9allocatorIS2_EEE21__on_zero_shared_weakEv, symObjAddr: 0x42C0, symBinAddr: 0xF8D4, symSize: 0x4 }
  - { offsetInCU: 0x62CFC, offset: 0x15ED62, size: 0x8, addend: 0x0, symName: __ZNSt3__120__shared_ptr_emplaceIN7details36BarcodeCaptureDeserializerHelperImplENS_9allocatorIS2_EEE21__on_zero_shared_weakEv, symObjAddr: 0x42C0, symBinAddr: 0xF8D4, symSize: 0x4 }
  - { offsetInCU: 0x62D25, offset: 0x15ED8B, size: 0x8, addend: 0x0, symName: __ZNSt3__120__shared_ptr_emplaceIN7details36BarcodeCaptureDeserializerHelperImplENS_9allocatorIS2_EEE21__on_zero_shared_weakEv, symObjAddr: 0x42C0, symBinAddr: 0xF8D4, symSize: 0x4 }
  - { offsetInCU: 0x62D51, offset: 0x15EDB7, size: 0x8, addend: 0x0, symName: __ZN7details36BarcodeCaptureDeserializerHelperImplD1Ev, symObjAddr: 0x42C4, symBinAddr: 0xF8D8, symSize: 0x4 }
  - { offsetInCU: 0x62D7C, offset: 0x15EDE2, size: 0x8, addend: 0x0, symName: __ZN7details36BarcodeCaptureDeserializerHelperImplD0Ev, symObjAddr: 0x42C8, symBinAddr: 0xF8DC, symSize: 0x4 }
  - { offsetInCU: 0x62DA7, offset: 0x15EE0D, size: 0x8, addend: 0x0, symName: __ZN7details36BarcodeCaptureDeserializerHelperImpl10createModeERKNSt3__110shared_ptrIN3sdc4core18DataCaptureContextEEE, symObjAddr: 0x42CC, symBinAddr: 0xF8E0, symSize: 0xE0 }
  - { offsetInCU: 0x62EE1, offset: 0x15EF47, size: 0x8, addend: 0x0, symName: __ZN7details36BarcodeCaptureDeserializerHelperImpl13applySettingsERKNSt3__110shared_ptrIN3sdc14BarcodeCaptureEEERKNS2_INS3_22BarcodeCaptureSettingsEEE, symObjAddr: 0x43AC, symBinAddr: 0xF9C0, symSize: 0x8C }
  - { offsetInCU: 0x63069, offset: 0x15F0CF, size: 0x8, addend: 0x0, symName: __ZN7details36BarcodeCaptureDeserializerHelperImpl18updateModeFromJsonERKNSt3__110shared_ptrIN3sdc14BarcodeCaptureEEERKNS2_INS3_4core9JsonValueEEE, symObjAddr: 0x4438, symBinAddr: 0xFA4C, symSize: 0x2D0 }
  - { offsetInCU: 0x63AEF, offset: 0x15FB55, size: 0x8, addend: 0x0, symName: __ZNK3sdc40BarcodeCaptureFeedbackDeserializerHelper16feedbackFromJsonERKNSt3__110shared_ptrINS_4core9JsonValueEEE, symObjAddr: 0x4BE8, symBinAddr: 0x10034, symSize: 0x254 }
  - { offsetInCU: 0x64542, offset: 0x1605A8, size: 0x8, addend: 0x0, symName: __ZN7details36BarcodeCaptureDeserializerHelperImpl14createSettingsEv, symObjAddr: 0x4708, symBinAddr: 0xFD1C, symSize: 0x4 }
  - { offsetInCU: 0x64567, offset: 0x1605CD, size: 0x8, addend: 0x0, symName: __ZN7details36BarcodeCaptureDeserializerHelperImpl22updateSettingsFromJsonERKNSt3__110shared_ptrIN3sdc22BarcodeCaptureSettingsEEERKNS2_INS3_4core9JsonValueEEE, symObjAddr: 0x470C, symBinAddr: 0xFD20, symSize: 0x4 }
  - { offsetInCU: 0x645A8, offset: 0x16060E, size: 0x8, addend: 0x0, symName: __ZN7details36BarcodeCaptureDeserializerHelperImpl13createOverlayERKNSt3__110shared_ptrIN3sdc14BarcodeCaptureEEENS3_26BarcodeCaptureOverlayStyleE, symObjAddr: 0x4710, symBinAddr: 0xFD24, symSize: 0xC4 }
  - { offsetInCU: 0x64765, offset: 0x1607CB, size: 0x8, addend: 0x0, symName: __ZN7details36BarcodeCaptureDeserializerHelperImpl21updateOverlayFromJsonERKNSt3__110shared_ptrIN3sdc21BarcodeCaptureOverlayEEERKNS2_INS3_4core9JsonValueEEE, symObjAddr: 0x47D4, symBinAddr: 0xFDE8, symSize: 0x4 }
  - { offsetInCU: 0x64911, offset: 0x160977, size: 0x8, addend: 0x0, symName: __ZN7details36BarcodeCaptureDeserializerHelperImpl24changeOverlayAddedToViewERKNSt3__110shared_ptrIN3sdc21BarcodeCaptureOverlayEEERKNS2_INS3_4core15DataCaptureViewEEEb, symObjAddr: 0x47D8, symBinAddr: 0xFDEC, symSize: 0x138 }
  - { offsetInCU: 0x64BCC, offset: 0x160C32, size: 0x8, addend: 0x0, symName: __ZNSt3__110shared_ptrIN3sdc4core18DataCaptureViewIosEED1B8ue170006Ev, symObjAddr: 0x7328, symBinAddr: 0x12774, symSize: 0x68 }
  - { offsetInCU: 0x64EA9, offset: 0x160F0F, size: 0x8, addend: 0x0, symName: __ZN7details36BarcodeCaptureDeserializerHelperImpl31createRecommendedCameraSettingsEv, symObjAddr: 0x4910, symBinAddr: 0xFF24, symSize: 0x110 }
  - { offsetInCU: 0x65528, offset: 0x16158E, size: 0x8, addend: 0x0, symName: __ZNK3sdc26FeedbackDeserializerHelper16feedbackFromJsonERKNSt3__110shared_ptrINS_4core9JsonValueEEE, symObjAddr: 0x4E3C, symBinAddr: 0x10288, symSize: 0xB8C }
  - { offsetInCU: 0x68F90, offset: 0x164FF6, size: 0x8, addend: 0x0, symName: __ZN3bar6resultIbNSt3__112basic_stringIcNS1_11char_traitsIcEENS1_9allocatorIcEEEEE14value_or_throwEv, symObjAddr: 0x59C8, symBinAddr: 0x10E14, symSize: 0x108 }
  - { offsetInCU: 0x692F1, offset: 0x165357, size: 0x8, addend: 0x0, symName: __ZN3bar6resultINSt3__112basic_stringIcNS1_11char_traitsIcEENS1_9allocatorIcEEEES7_E14value_or_throwEv, symObjAddr: 0x5AD0, symBinAddr: 0x10F1C, symSize: 0x108 }
  - { offsetInCU: 0x6965E, offset: 0x1656C4, size: 0x8, addend: 0x0, symName: __ZNK3sdc26FeedbackDeserializerHelper24waveFormFeedbackFromJsonERKNSt3__110shared_ptrINS_4core9JsonValueEEE, symObjAddr: 0x5C70, symBinAddr: 0x110BC, symSize: 0x11C4 }
  - { offsetInCU: 0x6EC6A, offset: 0x16ACD0, size: 0x8, addend: 0x0, symName: __ZNK3bar6resultIbNSt3__112basic_stringIcNS1_11char_traitsIcEENS1_9allocatorIcEEEEE5errorEv, symObjAddr: 0x6E34, symBinAddr: 0x12280, symSize: 0x12C }
  - { offsetInCU: 0x6F224, offset: 0x16B28A, size: 0x8, addend: 0x0, symName: __ZNK3bar6resultINSt3__112basic_stringIcNS1_11char_traitsIcEENS1_9allocatorIcEEEES7_E5errorEv, symObjAddr: 0x6F60, symBinAddr: 0x123AC, symSize: 0x12C }
  - { offsetInCU: 0x6F7D9, offset: 0x16B83F, size: 0x8, addend: 0x0, symName: __ZNKSt3__112basic_stringIcNS_11char_traitsIcEENS_9allocatorIcEEE20__throw_out_of_rangeB8ue170006Ev, symObjAddr: 0x708C, symBinAddr: 0x124D8, symSize: 0x14 }
  - { offsetInCU: 0x6F803, offset: 0x16B869, size: 0x8, addend: 0x0, symName: __ZNSt3__120__throw_out_of_rangeB8ue170006EPKc, symObjAddr: 0x70A0, symBinAddr: 0x124EC, symSize: 0x50 }
  - { offsetInCU: 0x6FDA3, offset: 0x16BE09, size: 0x8, addend: 0x0, symName: __ZNK3bar6resultIiNSt3__112basic_stringIcNS1_11char_traitsIcEENS1_9allocatorIcEEEEE5errorEv, symObjAddr: 0x71FC, symBinAddr: 0x12648, symSize: 0x12C }
  - { offsetInCU: 0x70342, offset: 0x16C3A8, size: 0x8, addend: 0x0, symName: __ZNSt12out_of_rangeC1B8ue170006EPKc, symObjAddr: 0x70F0, symBinAddr: 0x1253C, symSize: 0x24 }
  - { offsetInCU: 0x70666, offset: 0x16C6CC, size: 0x8, addend: 0x0, symName: __ZZN6djinni18get_cpp_proxy_implI18SDCDataCaptureViewN3sdc4core18DataCaptureViewIosEEEPT_RKNSt3__110shared_ptrIT0_EEENUlRKNS8_IvEEE_8__invokeESF_, symObjAddr: 0x7478, symBinAddr: 0x128C4, symSize: 0xE0 }
  - { offsetInCU: 0x7091F, offset: 0x16C985, size: 0x8, addend: 0x0, symName: __ZZN6djinni18get_cpp_proxy_implI18SDCDataCaptureViewN3sdc4core18DataCaptureViewIosEEEPT_RKNSt3__110shared_ptrIT0_EEENUlRKNS8_IvEEE_8__invokeESF_.cold.1, symObjAddr: 0x86A8, symBinAddr: 0x2717A4, symSize: 0x2C }
  - { offsetInCU: 0x70DEE, offset: 0x16CE54, size: 0x8, addend: 0x0, symName: __ZZN6djinniL14get_objc_proxyIN3sdc4core39BarcodeCaptureDeserializerListenerProxyEU48objcproto37SDCBarcodeCaptureDeserializerDelegate11objc_objectEENSt3__110shared_ptrIT_EEPT0_ENUlRU8__strongKP11objc_objectE_8__invokeESE_, symObjAddr: 0x7AAC, symBinAddr: 0x12EF8, symSize: 0x7C }
  - { offsetInCU: 0x71163, offset: 0x16D1C9, size: 0x8, addend: 0x0, symName: __ZN11proxy_cache13ListenerProxyIU8__strongPU48objcproto37SDCBarcodeCaptureDeserializerDelegate11objc_objectN3sdc34BarcodeCaptureDeserializerListenerEEC2ES2_, symObjAddr: 0x7BCC, symBinAddr: 0x13018, symSize: 0xC4 }
  - { offsetInCU: 0x71372, offset: 0x16D3D8, size: 0x8, addend: 0x0, symName: __ZNSt3__120__shared_ptr_emplaceIN3sdc4core39BarcodeCaptureDeserializerListenerProxyENS_9allocatorIS3_EEED1Ev, symObjAddr: 0x7B28, symBinAddr: 0x12F74, symSize: 0x10 }
  - { offsetInCU: 0x71396, offset: 0x16D3FC, size: 0x8, addend: 0x0, symName: __ZNSt3__120__shared_ptr_emplaceIN3sdc4core39BarcodeCaptureDeserializerListenerProxyENS_9allocatorIS3_EEED1Ev, symObjAddr: 0x7B28, symBinAddr: 0x12F74, symSize: 0x10 }
  - { offsetInCU: 0x713CF, offset: 0x16D435, size: 0x8, addend: 0x0, symName: __ZNSt3__120__shared_ptr_emplaceIN3sdc4core39BarcodeCaptureDeserializerListenerProxyENS_9allocatorIS3_EEED0Ev, symObjAddr: 0x7B38, symBinAddr: 0x12F84, symSize: 0x20 }
  - { offsetInCU: 0x714AA, offset: 0x16D510, size: 0x8, addend: 0x0, symName: __ZNSt3__120__shared_ptr_emplaceIN3sdc4core39BarcodeCaptureDeserializerListenerProxyENS_9allocatorIS3_EEE16__on_zero_sharedEv, symObjAddr: 0x7B58, symBinAddr: 0x12FA4, symSize: 0x70 }
  - { offsetInCU: 0x715DE, offset: 0x16D644, size: 0x8, addend: 0x0, symName: __ZN6djinni10ProxyCacheINS_20ObjcProxyCacheTraitsEE6HandleIU6__weakPU48objcproto37SDCBarcodeCaptureDeserializerDelegate11objc_objectU8__strongS5_ED2Ev, symObjAddr: 0x8328, symBinAddr: 0x1376C, symSize: 0xF8 }
  - { offsetInCU: 0x71708, offset: 0x16D76E, size: 0x8, addend: 0x0, symName: __ZNSt3__120__shared_ptr_emplaceIN3sdc4core39BarcodeCaptureDeserializerListenerProxyENS_9allocatorIS3_EEE21__on_zero_shared_weakEv, symObjAddr: 0x7BC8, symBinAddr: 0x13014, symSize: 0x4 }
  - { offsetInCU: 0x7173D, offset: 0x16D7A3, size: 0x8, addend: 0x0, symName: __ZNSt3__120__shared_ptr_emplaceIN3sdc4core39BarcodeCaptureDeserializerListenerProxyENS_9allocatorIS3_EEE21__on_zero_shared_weakEv, symObjAddr: 0x7BC8, symBinAddr: 0x13014, symSize: 0x4 }
  - { offsetInCU: 0x71762, offset: 0x16D7C8, size: 0x8, addend: 0x0, symName: __ZNSt3__120__shared_ptr_emplaceIN3sdc4core39BarcodeCaptureDeserializerListenerProxyENS_9allocatorIS3_EEE21__on_zero_shared_weakEv, symObjAddr: 0x7BC8, symBinAddr: 0x13014, symSize: 0x4 }
  - { offsetInCU: 0x71787, offset: 0x16D7ED, size: 0x8, addend: 0x0, symName: __ZNSt3__120__shared_ptr_emplaceIN3sdc4core39BarcodeCaptureDeserializerListenerProxyENS_9allocatorIS3_EEE21__on_zero_shared_weakEv, symObjAddr: 0x7BC8, symBinAddr: 0x13014, symSize: 0x4 }
  - { offsetInCU: 0x717B7, offset: 0x16D81D, size: 0x8, addend: 0x0, symName: __ZNSt3__120__shared_ptr_emplaceIN3sdc4core39BarcodeCaptureDeserializerListenerProxyENS_9allocatorIS3_EEE21__on_zero_shared_weakEv, symObjAddr: 0x7BC8, symBinAddr: 0x13014, symSize: 0x4 }
  - { offsetInCU: 0x717E1, offset: 0x16D847, size: 0x8, addend: 0x0, symName: __ZNSt3__120__shared_ptr_emplaceIN3sdc4core39BarcodeCaptureDeserializerListenerProxyENS_9allocatorIS3_EEE21__on_zero_shared_weakEv, symObjAddr: 0x7BC8, symBinAddr: 0x13014, symSize: 0x4 }
  - { offsetInCU: 0x71934, offset: 0x16D99A, size: 0x8, addend: 0x0, symName: __ZN3sdc4core39BarcodeCaptureDeserializerListenerProxyD1Ev, symObjAddr: 0x7C90, symBinAddr: 0x130DC, symSize: 0x78 }
  - { offsetInCU: 0x71A4B, offset: 0x16DAB1, size: 0x8, addend: 0x0, symName: __ZN3sdc4core39BarcodeCaptureDeserializerListenerProxyD0Ev, symObjAddr: 0x7D08, symBinAddr: 0x13154, symSize: 0x78 }
  - { offsetInCU: 0x71B9C, offset: 0x16DC02, size: 0x8, addend: 0x0, symName: __ZN3sdc4core39BarcodeCaptureDeserializerListenerProxy28onModeDeserializationStartedERKNSt3__110shared_ptrINS_26BarcodeCaptureDeserializerEEERKNS3_INS_14BarcodeCaptureEEERKNS3_INS0_9JsonValueEEE, symObjAddr: 0x7D80, symBinAddr: 0x131CC, symSize: 0xF0 }
  - { offsetInCU: 0x71CD5, offset: 0x16DD3B, size: 0x8, addend: 0x0, symName: __ZN3sdc4core39BarcodeCaptureDeserializerListenerProxy32onSettingsDeserializationStartedERKNSt3__110shared_ptrINS_26BarcodeCaptureDeserializerEEERKNS3_INS_22BarcodeCaptureSettingsEEERKNS3_INS0_9JsonValueEEE, symObjAddr: 0x7E70, symBinAddr: 0x132BC, symSize: 0xF0 }
  - { offsetInCU: 0x71E0E, offset: 0x16DE74, size: 0x8, addend: 0x0, symName: __ZN3sdc4core39BarcodeCaptureDeserializerListenerProxy33onSettingsDeserializationFinishedERKNSt3__110shared_ptrINS_26BarcodeCaptureDeserializerEEERKNS3_INS_22BarcodeCaptureSettingsEEERKNS3_INS0_9JsonValueEEE, symObjAddr: 0x7F60, symBinAddr: 0x133AC, symSize: 0xF0 }
  - { offsetInCU: 0x71F47, offset: 0x16DFAD, size: 0x8, addend: 0x0, symName: __ZN3sdc4core39BarcodeCaptureDeserializerListenerProxy29onModeDeserializationFinishedERKNSt3__110shared_ptrINS_26BarcodeCaptureDeserializerEEERKNS3_INS_14BarcodeCaptureEEERKNS3_INS0_9JsonValueEEE, symObjAddr: 0x8050, symBinAddr: 0x1349C, symSize: 0xF0 }
  - { offsetInCU: 0x72080, offset: 0x16E0E6, size: 0x8, addend: 0x0, symName: __ZN3sdc4core39BarcodeCaptureDeserializerListenerProxy31onOverlayDeserializationStartedERKNSt3__110shared_ptrINS_26BarcodeCaptureDeserializerEEERKNS3_INS_21BarcodeCaptureOverlayEEERKNS3_INS0_9JsonValueEEE, symObjAddr: 0x8140, symBinAddr: 0x1358C, symSize: 0xF0 }
  - { offsetInCU: 0x721B9, offset: 0x16E21F, size: 0x8, addend: 0x0, symName: __ZN3sdc4core39BarcodeCaptureDeserializerListenerProxy32onOverlayDeserializationFinishedERKNSt3__110shared_ptrINS_26BarcodeCaptureDeserializerEEERKNS3_INS_21BarcodeCaptureOverlayEEERKNS3_INS0_9JsonValueEEE, symObjAddr: 0x8230, symBinAddr: 0x1367C, symSize: 0xF0 }
  - { offsetInCU: 0x722F2, offset: 0x16E358, size: 0x8, addend: 0x0, symName: __ZN11proxy_cache13ListenerProxyIU8__strongPU48objcproto37SDCBarcodeCaptureDeserializerDelegate11objc_objectN3sdc34BarcodeCaptureDeserializerListenerEED1Ev, symObjAddr: 0x8320, symBinAddr: 0x271690, symSize: 0x4 }
  - { offsetInCU: 0x7231E, offset: 0x16E384, size: 0x8, addend: 0x0, symName: __ZN11proxy_cache13ListenerProxyIU8__strongPU48objcproto37SDCBarcodeCaptureDeserializerDelegate11objc_objectN3sdc34BarcodeCaptureDeserializerListenerEED0Ev, symObjAddr: 0x8324, symBinAddr: 0x271694, symSize: 0x4 }
  - { offsetInCU: 0x72602, offset: 0x16E668, size: 0x8, addend: 0x0, symName: __ZNKSt3__16vectorINS_10shared_ptrIN3sdc4core39BarcodeCaptureDeserializerListenerProxyEEENS_9allocatorIS5_EEE20__throw_length_errorB8ue170006Ev, symObjAddr: 0x8530, symBinAddr: 0x13974, symSize: 0x14 }
  - { offsetInCU: 0x7262C, offset: 0x16E692, size: 0x8, addend: 0x0, symName: '-[SDCBarcodeCaptureDeserializer .cxx_construct].cold.1', symObjAddr: 0x8544, symBinAddr: 0x271698, symSize: 0x88 }
  - { offsetInCU: 0x72637, offset: 0x16E69D, size: 0x8, addend: 0x0, symName: _OUTLINED_FUNCTION_0, symObjAddr: 0x86D4, symBinAddr: 0x13988, symSize: 0x10 }
  - { offsetInCU: 0x7264F, offset: 0x16E6B5, size: 0x8, addend: 0x0, symName: _OUTLINED_FUNCTION_1, symObjAddr: 0x86E4, symBinAddr: 0x13998, symSize: 0x10 }
  - { offsetInCU: 0x72667, offset: 0x16E6CD, size: 0x8, addend: 0x0, symName: _OUTLINED_FUNCTION_2, symObjAddr: 0x86F4, symBinAddr: 0x139A8, symSize: 0x8 }
  - { offsetInCU: 0x7267F, offset: 0x16E6E5, size: 0x8, addend: 0x0, symName: _OUTLINED_FUNCTION_3, symObjAddr: 0x86FC, symBinAddr: 0x139B0, symSize: 0x8 }
  - { offsetInCU: 0x72697, offset: 0x16E6FD, size: 0x8, addend: 0x0, symName: _OUTLINED_FUNCTION_4, symObjAddr: 0x8704, symBinAddr: 0x139B8, symSize: 0xC }
  - { offsetInCU: 0xF954, offset: 0x17E0F9, size: 0x8, addend: 0x0, symName: __ZNSt3__115allocate_sharedB8ue170006IN3sdc4core9JsonValueENS_9allocatorIS3_EEJRKS3_EvEENS_10shared_ptrIT_EERKT0_DpOT1_, symObjAddr: 0x52DC, symBinAddr: 0x16204, symSize: 0x11C }
  - { offsetInCU: 0x1284B, offset: 0x180FF0, size: 0x8, addend: 0x0, symName: __ZNSt3__127__tree_balance_after_insertB8ue170006IPNS_16__tree_node_baseIPvEEEEvT_S5_, symObjAddr: 0x3DBC, symBinAddr: 0x14CE4, symSize: 0x1B4 }
  - { offsetInCU: 0x18878, offset: 0x18701D, size: 0x8, addend: 0x0, symName: '+[SDCBarcodeCaptureFeedback defaultFeedback]', symObjAddr: 0x0, symBinAddr: 0x139C4, symSize: 0x1C }
  - { offsetInCU: 0x188AB, offset: 0x187050, size: 0x8, addend: 0x0, symName: '-[SDCBarcodeCaptureFeedback init]', symObjAddr: 0x1C, symBinAddr: 0x139E0, symSize: 0xDC }
  - { offsetInCU: 0x18D41, offset: 0x1874E6, size: 0x8, addend: 0x0, symName: '+[SDCBarcodeCaptureFeedback barcodeCaptureFeedbackFromJSONString:error:]', symObjAddr: 0xF8, symBinAddr: 0x13ABC, symSize: 0x324 }
  - { offsetInCU: 0x1CBA7, offset: 0x18B34C, size: 0x8, addend: 0x0, symName: '-[SDCBarcodeCaptureFeedback JSONString]', symObjAddr: 0x91C, symBinAddr: 0x13DE0, symSize: 0x200 }
  - { offsetInCU: 0x1D3E7, offset: 0x18BB8C, size: 0x8, addend: 0x0, symName: __ZN3sdc4core9JsonValueC2ENS0_8JsonTypeE, symObjAddr: 0x30D8, symBinAddr: 0x14000, symSize: 0x16C }
  - { offsetInCU: 0x1D9F9, offset: 0x18C19E, size: 0x8, addend: 0x0, symName: __ZN3sdc4core9JsonValue6assignINSt3__110shared_ptrIS1_EEEEvRKNS3_12basic_stringIcNS3_11char_traitsIcEENS3_9allocatorIcEEEERKT_, symObjAddr: 0x4C18, symBinAddr: 0x15B40, symSize: 0x1FC }
  - { offsetInCU: 0x1E52C, offset: 0x18CCD1, size: 0x8, addend: 0x0, symName: __ZN3sdc4core9JsonValueD2Ev, symObjAddr: 0x5C34, symBinAddr: 0x16B5C, symSize: 0xCC }
  - { offsetInCU: 0x1E954, offset: 0x18D0F9, size: 0x8, addend: 0x0, symName: '-[SDCBarcodeCaptureFeedback success]', symObjAddr: 0xB1C, symBinAddr: 0x13FE0, symSize: 0x8 }
  - { offsetInCU: 0x1E98B, offset: 0x18D130, size: 0x8, addend: 0x0, symName: '-[SDCBarcodeCaptureFeedback setSuccess:]', symObjAddr: 0xB24, symBinAddr: 0x13FE8, symSize: 0xC }
  - { offsetInCU: 0x1E9CC, offset: 0x18D171, size: 0x8, addend: 0x0, symName: '-[SDCBarcodeCaptureFeedback .cxx_destruct]', symObjAddr: 0xB30, symBinAddr: 0x13FF4, symSize: 0xC }
  - { offsetInCU: 0x23769, offset: 0x191F0E, size: 0x8, addend: 0x0, symName: __ZN8nlohmann16json_abi_v3_11_310basic_jsonINSt3__13mapENS2_6vectorENS2_12basic_stringIcNS2_11char_traitsIcEENS2_9allocatorIcEEEEbxydS8_NS0_14adl_serializerENS4_IhNS8_IhEEEEvEC2ESt16initializer_listINS0_6detail8json_refISE_EEEbNSG_7value_tE, symObjAddr: 0x3308, symBinAddr: 0x14230, symSize: 0x214 }
  - { offsetInCU: 0x2404E, offset: 0x1927F3, size: 0x8, addend: 0x0, symName: __ZN8nlohmann16json_abi_v3_11_310basic_jsonINSt3__13mapENS2_6vectorENS2_12basic_stringIcNS2_11char_traitsIcEENS2_9allocatorIcEEEEbxydS8_NS0_14adl_serializerENS4_IhNS8_IhEEEEvE10json_value7destroyENS0_6detail7value_tE, symObjAddr: 0x44D0, symBinAddr: 0x153F8, symSize: 0x44C }
  - { offsetInCU: 0x254E3, offset: 0x193C88, size: 0x8, addend: 0x0, symName: __ZNSt3__16__treeINS_12__value_typeINS_12basic_stringIcNS_11char_traitsIcEENS_9allocatorIcEEEENS_10shared_ptrIN3sdc4core9JsonValueEEEEENS_19__map_value_compareIS7_SD_NS_4lessIS7_EELb1EEENS5_ISD_EEE7destroyEPNS_11__tree_nodeISD_PvEE, symObjAddr: 0x4B78, symBinAddr: 0x15AA0, symSize: 0xA0 }
  - { offsetInCU: 0x25801, offset: 0x193FA6, size: 0x8, addend: 0x0, symName: __ZNSt3__16vectorINS_10shared_ptrIN3sdc4core9JsonValueEEENS_9allocatorIS5_EEED1B8ue170006Ev, symObjAddr: 0x3270, symBinAddr: 0x14198, symSize: 0x98 }
  - { offsetInCU: 0x25A3F, offset: 0x1941E4, size: 0x8, addend: 0x0, symName: __ZN8nlohmann16json_abi_v3_11_310basic_jsonINSt3__13mapENS2_6vectorENS2_12basic_stringIcNS2_11char_traitsIcEENS2_9allocatorIcEEEEbxydS8_NS0_14adl_serializerENS4_IhNS8_IhEEEEvED1Ev, symObjAddr: 0x3244, symBinAddr: 0x1416C, symSize: 0x2C }
  - { offsetInCU: 0x264A8, offset: 0x194C4D, size: 0x8, addend: 0x0, symName: __ZN8nlohmann16json_abi_v3_11_310basic_jsonINSt3__13mapENS2_6vectorENS2_12basic_stringIcNS2_11char_traitsIcEENS2_9allocatorIcEEEEbxydS8_NS0_14adl_serializerENS4_IhNS8_IhEEEEvEC2ERKSE_, symObjAddr: 0x3548, symBinAddr: 0x14470, symSize: 0x318 }
  - { offsetInCU: 0x27748, offset: 0x195EED, size: 0x8, addend: 0x0, symName: __ZNSt3__16__treeINS_12__value_typeINS_12basic_stringIcNS_11char_traitsIcEENS_9allocatorIcEEEEN8nlohmann16json_abi_v3_11_310basic_jsonINS_3mapENS_6vectorES7_bxydS5_NS9_14adl_serializerENSC_IhNS5_IhEEEEvEEEENS_19__map_value_compareIS7_SH_NS_4lessIvEELb1EEENS5_ISH_EEE25__emplace_unique_key_argsIS7_JS7_SG_EEENS_4pairINS_15__tree_iteratorISH_PNS_11__tree_nodeISH_PvEElEEbEERKT_DpOT0_, symObjAddr: 0x4208, symBinAddr: 0x15130, symSize: 0x18C }
  - { offsetInCU: 0x27D42, offset: 0x1964E7, size: 0x8, addend: 0x0, symName: __ZNSt3__16vectorIN8nlohmann16json_abi_v3_11_310basic_jsonINS_3mapES0_NS_12basic_stringIcNS_11char_traitsIcEENS_9allocatorIcEEEEbxydS8_NS2_14adl_serializerENS0_IhNS8_IhEEEEvEENS8_ISE_EEE16__init_with_sizeB8ue170006IPKNS2_6detail8json_refISE_EESM_EEvT_T0_m, symObjAddr: 0x4394, symBinAddr: 0x152BC, symSize: 0x13C }
  - { offsetInCU: 0x282B7, offset: 0x196A5C, size: 0x8, addend: 0x0, symName: __ZN8nlohmann16json_abi_v3_11_310basic_jsonINSt3__13mapENS2_6vectorENS2_12basic_stringIcNS2_11char_traitsIcEENS2_9allocatorIcEEEEbxydS8_NS0_14adl_serializerENS4_IhNS8_IhEEEEvE4dataD1Ev, symObjAddr: 0x351C, symBinAddr: 0x14444, symSize: 0x2C }
  - { offsetInCU: 0x2925E, offset: 0x197A03, size: 0x8, addend: 0x0, symName: __ZNSt3__16__treeINS_12__value_typeINS_12basic_stringIcNS_11char_traitsIcEENS_9allocatorIcEEEEN8nlohmann16json_abi_v3_11_310basic_jsonINS_3mapENS_6vectorES7_bxydS5_NS9_14adl_serializerENSC_IhNS5_IhEEEEvEEEENS_19__map_value_compareIS7_SH_NS_4lessIvEELb1EEENS5_ISH_EEE12__find_equalIS7_EERPNS_16__tree_node_baseIPvEENS_21__tree_const_iteratorISH_PNS_11__tree_nodeISH_SQ_EElEERPNS_15__tree_end_nodeISS_EEST_RKT_, symObjAddr: 0x3860, symBinAddr: 0x14788, symSize: 0x3F8 }
  - { offsetInCU: 0x29E4D, offset: 0x1985F2, size: 0x8, addend: 0x0, symName: __ZNSt3__16__treeINS_12__value_typeINS_12basic_stringIcNS_11char_traitsIcEENS_9allocatorIcEEEEN8nlohmann16json_abi_v3_11_310basic_jsonINS_3mapENS_6vectorES7_bxydS5_NS9_14adl_serializerENSC_IhNS5_IhEEEEvEEEENS_19__map_value_compareIS7_SH_NS_4lessIvEELb1EEENS5_ISH_EEE16__construct_nodeIJRKNS_4pairIKS7_SG_EEEEENS_10unique_ptrINS_11__tree_nodeISH_PvEENS_22__tree_node_destructorINS5_ISX_EEEEEEDpOT_, symObjAddr: 0x3C58, symBinAddr: 0x14B80, symSize: 0x108 }
  - { offsetInCU: 0x2A60F, offset: 0x198DB4, size: 0x8, addend: 0x0, symName: __ZNSt3__16vectorIN8nlohmann16json_abi_v3_11_310basic_jsonINS_3mapES0_NS_12basic_stringIcNS_11char_traitsIcEENS_9allocatorIcEEEEbxydS8_NS2_14adl_serializerENS0_IhNS8_IhEEEEvEENS8_ISE_EEE16__init_with_sizeB8ue170006IPSE_SI_EEvT_T0_m, symObjAddr: 0x3FE8, symBinAddr: 0x14F10, symSize: 0x120 }
  - { offsetInCU: 0x2AA09, offset: 0x1991AE, size: 0x8, addend: 0x0, symName: __ZNKSt3__16vectorIhNS_9allocatorIhEEE20__throw_length_errorB8ue170006Ev, symObjAddr: 0x41F4, symBinAddr: 0x1511C, symSize: 0x14 }
  - { offsetInCU: 0x2AA33, offset: 0x1991D8, size: 0x8, addend: 0x0, symName: __ZNSt3__16__treeINS_12__value_typeINS_12basic_stringIcNS_11char_traitsIcEENS_9allocatorIcEEEEN8nlohmann16json_abi_v3_11_310basic_jsonINS_3mapENS_6vectorES7_bxydS5_NS9_14adl_serializerENSC_IhNS5_IhEEEEvEEEENS_19__map_value_compareIS7_SH_NS_4lessIvEELb1EEENS5_ISH_EEE25__emplace_unique_key_argsIS7_JS7_SG_EEENS_4pairINS_15__tree_iteratorISH_PNS_11__tree_nodeISH_PvEElEEbEERKT_DpOT0_, symObjAddr: 0x4208, symBinAddr: 0x15130, symSize: 0x18C }
  - { offsetInCU: 0x2AA3E, offset: 0x1991E3, size: 0x8, addend: 0x0, symName: __ZNSt3__16__treeINS_12__value_typeINS_12basic_stringIcNS_11char_traitsIcEENS_9allocatorIcEEEEN8nlohmann16json_abi_v3_11_310basic_jsonINS_3mapENS_6vectorES7_bxydS5_NS9_14adl_serializerENSC_IhNS5_IhEEEEvEEEENS_19__map_value_compareIS7_SH_NS_4lessIvEELb1EEENS5_ISH_EEE7destroyEPNS_11__tree_nodeISH_PvEE, symObjAddr: 0x3F70, symBinAddr: 0x14E98, symSize: 0x78 }
  - { offsetInCU: 0x2B1F9, offset: 0x19999E, size: 0x8, addend: 0x0, symName: __ZNSt3__110unique_ptrINS_11__tree_nodeINS_12__value_typeINS_12basic_stringIcNS_11char_traitsIcEENS_9allocatorIcEEEEN8nlohmann16json_abi_v3_11_310basic_jsonINS_3mapENS_6vectorES8_bxydS6_NSA_14adl_serializerENSD_IhNS6_IhEEEEvEEEEPvEENS_22__tree_node_destructorINS6_ISK_EEEEED1B8ue170006Ev, symObjAddr: 0x3D60, symBinAddr: 0x14C88, symSize: 0x5C }
  - { offsetInCU: 0x2B917, offset: 0x19A0BC, size: 0x8, addend: 0x0, symName: __ZNKSt3__16vectorIN8nlohmann16json_abi_v3_11_310basic_jsonINS_3mapES0_NS_12basic_stringIcNS_11char_traitsIcEENS_9allocatorIcEEEEbxydS8_NS2_14adl_serializerENS0_IhNS8_IhEEEEvEENS8_ISE_EEE20__throw_length_errorB8ue170006Ev, symObjAddr: 0x4188, symBinAddr: 0x150B0, symSize: 0x14 }
  - { offsetInCU: 0x2B941, offset: 0x19A0E6, size: 0x8, addend: 0x0, symName: __ZNSt3__128__exception_guard_exceptionsINS_29_AllocatorDestroyRangeReverseINS_9allocatorIN8nlohmann16json_abi_v3_11_310basic_jsonINS_3mapENS_6vectorENS_12basic_stringIcNS_11char_traitsIcEENS2_IcEEEEbxydS2_NS4_14adl_serializerENS7_IhNS2_IhEEEEvEEEEPSG_EEED1B8ue170006Ev, symObjAddr: 0x419C, symBinAddr: 0x150C4, symSize: 0x58 }
  - { offsetInCU: 0x2B94C, offset: 0x19A0F1, size: 0x8, addend: 0x0, symName: __ZNSt3__128__exception_guard_exceptionsINS_29_AllocatorDestroyRangeReverseINS_9allocatorIN8nlohmann16json_abi_v3_11_310basic_jsonINS_3mapENS_6vectorENS_12basic_stringIcNS_11char_traitsIcEENS2_IcEEEEbxydS2_NS4_14adl_serializerENS7_IhNS2_IhEEEEvEEEEPSG_EEED1B8ue170006Ev, symObjAddr: 0x419C, symBinAddr: 0x150C4, symSize: 0x58 }
  - { offsetInCU: 0x2BAAB, offset: 0x19A250, size: 0x8, addend: 0x0, symName: __ZNSt3__128__exception_guard_exceptionsINS_6vectorIN8nlohmann16json_abi_v3_11_310basic_jsonINS_3mapES1_NS_12basic_stringIcNS_11char_traitsIcEENS_9allocatorIcEEEEbxydS9_NS3_14adl_serializerENS1_IhNS9_IhEEEEvEENS9_ISF_EEE16__destroy_vectorEED1B8ue170006Ev, symObjAddr: 0x4108, symBinAddr: 0x15030, symSize: 0x80 }
  - { offsetInCU: 0x2C61F, offset: 0x19ADC4, size: 0x8, addend: 0x0, symName: __ZNSt3__16vectorIN8nlohmann16json_abi_v3_11_310basic_jsonINS_3mapES0_NS_12basic_stringIcNS_11char_traitsIcEENS_9allocatorIcEEEEbxydS8_NS2_14adl_serializerENS0_IhNS8_IhEEEEvEENS8_ISE_EEE7reserveEm, symObjAddr: 0x491C, symBinAddr: 0x15844, symSize: 0xE0 }
  - { offsetInCU: 0x2CACF, offset: 0x19B274, size: 0x8, addend: 0x0, symName: __ZNSt3__16vectorIN8nlohmann16json_abi_v3_11_310basic_jsonINS_3mapES0_NS_12basic_stringIcNS_11char_traitsIcEENS_9allocatorIcEEEEbxydS8_NS2_14adl_serializerENS0_IhNS8_IhEEEEvEENS8_ISE_EEE21__push_back_slow_pathISE_EEvOT_, symObjAddr: 0x49FC, symBinAddr: 0x15924, symSize: 0x120 }
  - { offsetInCU: 0x2D091, offset: 0x19B836, size: 0x8, addend: 0x0, symName: __ZNSt3__16vectorIN8nlohmann16json_abi_v3_11_310basic_jsonINS_3mapES0_NS_12basic_stringIcNS_11char_traitsIcEENS_9allocatorIcEEEEbxydS8_NS2_14adl_serializerENS0_IhNS8_IhEEEEvEENS8_ISE_EEED2B8ue170006Ev, symObjAddr: 0x4B1C, symBinAddr: 0x15A44, symSize: 0x5C }
  - { offsetInCU: 0x2D695, offset: 0x19BE3A, size: 0x8, addend: 0x0, symName: __ZNSt3__16__treeINS_12__value_typeINS_12basic_stringIcNS_11char_traitsIcEENS_9allocatorIcEEEEN8nlohmann16json_abi_v3_11_310basic_jsonINS_3mapENS_6vectorES7_bxydS5_NS9_14adl_serializerENSC_IhNS5_IhEEEEvEEEENS_19__map_value_compareIS7_SH_NS_4lessIvEELb1EEENS5_ISH_EEE25__emplace_unique_key_argsIS7_JS7_DnEEENS_4pairINS_15__tree_iteratorISH_PNS_11__tree_nodeISH_PvEElEEbEERKT_DpOT0_, symObjAddr: 0x4E14, symBinAddr: 0x15D3C, symSize: 0x178 }
  - { offsetInCU: 0x2DD2F, offset: 0x19C4D4, size: 0x8, addend: 0x0, symName: __ZNSt3__16__treeINS_12__value_typeINS_12basic_stringIcNS_11char_traitsIcEENS_9allocatorIcEEEENS_10shared_ptrIN3sdc4core9JsonValueEEEEENS_19__map_value_compareIS7_SD_NS_4lessIS7_EELb1EEENS5_ISD_EEE25__emplace_unique_key_argsIS7_JRKS7_RKSC_EEENS_4pairINS_15__tree_iteratorISD_PNS_11__tree_nodeISD_PvEElEEbEERKT_DpOT0_, symObjAddr: 0x4F8C, symBinAddr: 0x15EB4, symSize: 0x1B4 }
  - { offsetInCU: 0x2E447, offset: 0x19CBEC, size: 0x8, addend: 0x0, symName: __ZNSt3__16__treeINS_12__value_typeINS_12basic_stringIcNS_11char_traitsIcEENS_9allocatorIcEEEENS_10shared_ptrIN3sdc4core9JsonValueEEEEENS_19__map_value_compareIS7_SD_NS_4lessIS7_EELb1EEENS5_ISD_EEE16__construct_nodeIJRKS7_RKSC_EEENS_10unique_ptrINS_11__tree_nodeISD_PvEENS_22__tree_node_destructorINS5_ISS_EEEEEEDpOT_, symObjAddr: 0x5140, symBinAddr: 0x16068, symSize: 0x104 }
  - { offsetInCU: 0x2EE4F, offset: 0x19D5F4, size: 0x8, addend: 0x0, symName: __ZNSt3__110unique_ptrINS_11__tree_nodeINS_12__value_typeINS_12basic_stringIcNS_11char_traitsIcEENS_9allocatorIcEEEENS_10shared_ptrIN3sdc4core9JsonValueEEEEEPvEENS_22__tree_node_destructorINS6_ISG_EEEEED1B8ue170006Ev, symObjAddr: 0x5244, symBinAddr: 0x1616C, symSize: 0x98 }
  - { offsetInCU: 0x2F6E9, offset: 0x19DE8E, size: 0x8, addend: 0x0, symName: __ZN3sdc4core9JsonValueC2ERKS1_, symObjAddr: 0x5434, symBinAddr: 0x1635C, symSize: 0x104 }
  - { offsetInCU: 0x2FBB2, offset: 0x19E357, size: 0x8, addend: 0x0, symName: __ZNSt3__120__shared_ptr_emplaceIN3sdc4core9JsonValueENS_9allocatorIS3_EEED1Ev, symObjAddr: 0x53F8, symBinAddr: 0x16320, symSize: 0x10 }
  - { offsetInCU: 0x2FBD6, offset: 0x19E37B, size: 0x8, addend: 0x0, symName: __ZNSt3__120__shared_ptr_emplaceIN3sdc4core9JsonValueENS_9allocatorIS3_EEED1Ev, symObjAddr: 0x53F8, symBinAddr: 0x16320, symSize: 0x10 }
  - { offsetInCU: 0x2FC0F, offset: 0x19E3B4, size: 0x8, addend: 0x0, symName: __ZNSt3__120__shared_ptr_emplaceIN3sdc4core9JsonValueENS_9allocatorIS3_EEED0Ev, symObjAddr: 0x5408, symBinAddr: 0x16330, symSize: 0x20 }
  - { offsetInCU: 0x2FC8F, offset: 0x19E434, size: 0x8, addend: 0x0, symName: __ZNSt3__120__shared_ptr_emplaceIN3sdc4core9JsonValueENS_9allocatorIS3_EEE16__on_zero_sharedEv, symObjAddr: 0x5428, symBinAddr: 0x16350, symSize: 0x8 }
  - { offsetInCU: 0x2FCB9, offset: 0x19E45E, size: 0x8, addend: 0x0, symName: __ZNSt3__120__shared_ptr_emplaceIN3sdc4core9JsonValueENS_9allocatorIS3_EEE16__on_zero_sharedEv, symObjAddr: 0x5428, symBinAddr: 0x16350, symSize: 0x8 }
  - { offsetInCU: 0x2FD02, offset: 0x19E4A7, size: 0x8, addend: 0x0, symName: __ZNSt3__120__shared_ptr_emplaceIN3sdc4core9JsonValueENS_9allocatorIS3_EEE21__on_zero_shared_weakEv, symObjAddr: 0x5430, symBinAddr: 0x16358, symSize: 0x4 }
  - { offsetInCU: 0x2FD37, offset: 0x19E4DC, size: 0x8, addend: 0x0, symName: __ZNSt3__120__shared_ptr_emplaceIN3sdc4core9JsonValueENS_9allocatorIS3_EEE21__on_zero_shared_weakEv, symObjAddr: 0x5430, symBinAddr: 0x16358, symSize: 0x4 }
  - { offsetInCU: 0x2FD5C, offset: 0x19E501, size: 0x8, addend: 0x0, symName: __ZNSt3__120__shared_ptr_emplaceIN3sdc4core9JsonValueENS_9allocatorIS3_EEE21__on_zero_shared_weakEv, symObjAddr: 0x5430, symBinAddr: 0x16358, symSize: 0x4 }
  - { offsetInCU: 0x2FD81, offset: 0x19E526, size: 0x8, addend: 0x0, symName: __ZNSt3__120__shared_ptr_emplaceIN3sdc4core9JsonValueENS_9allocatorIS3_EEE21__on_zero_shared_weakEv, symObjAddr: 0x5430, symBinAddr: 0x16358, symSize: 0x4 }
  - { offsetInCU: 0x2FDB0, offset: 0x19E555, size: 0x8, addend: 0x0, symName: __ZNSt3__120__shared_ptr_emplaceIN3sdc4core9JsonValueENS_9allocatorIS3_EEE21__on_zero_shared_weakEv, symObjAddr: 0x5430, symBinAddr: 0x16358, symSize: 0x4 }
  - { offsetInCU: 0x2FDD9, offset: 0x19E57E, size: 0x8, addend: 0x0, symName: __ZNSt3__120__shared_ptr_emplaceIN3sdc4core9JsonValueENS_9allocatorIS3_EEE21__on_zero_shared_weakEv, symObjAddr: 0x5430, symBinAddr: 0x16358, symSize: 0x4 }
  - { offsetInCU: 0x30043, offset: 0x19E7E8, size: 0x8, addend: 0x0, symName: __ZNSt3__16vectorINS_10shared_ptrIN3sdc4core9JsonValueEEENS_9allocatorIS5_EEEC2ERKS8_, symObjAddr: 0x5538, symBinAddr: 0x16460, symSize: 0xC0 }
  - { offsetInCU: 0x303EE, offset: 0x19EB93, size: 0x8, addend: 0x0, symName: __ZNSt3__13mapINS_12basic_stringIcNS_11char_traitsIcEENS_9allocatorIcEEEENS_10shared_ptrIN3sdc4core9JsonValueEEENS_4lessIS6_EENS4_INS_4pairIKS6_SB_EEEEE6insertB8ue170006INS_20__map_const_iteratorINS_21__tree_const_iteratorINS_12__value_typeIS6_SB_EEPNS_11__tree_nodeISN_PvEElEEEEEEvT_SU_, symObjAddr: 0x560C, symBinAddr: 0x16534, symSize: 0x130 }
  - { offsetInCU: 0x308C1, offset: 0x19F066, size: 0x8, addend: 0x0, symName: __ZNKSt3__16vectorINS_10shared_ptrIN3sdc4core9JsonValueEEENS_9allocatorIS5_EEE20__throw_length_errorB8ue170006Ev, symObjAddr: 0x55F8, symBinAddr: 0x16520, symSize: 0x14 }
  - { offsetInCU: 0x308EB, offset: 0x19F090, size: 0x8, addend: 0x0, symName: __ZNSt3__13mapINS_12basic_stringIcNS_11char_traitsIcEENS_9allocatorIcEEEENS_10shared_ptrIN3sdc4core9JsonValueEEENS_4lessIS6_EENS4_INS_4pairIKS6_SB_EEEEE6insertB8ue170006INS_20__map_const_iteratorINS_21__tree_const_iteratorINS_12__value_typeIS6_SB_EEPNS_11__tree_nodeISN_PvEElEEEEEEvT_SU_, symObjAddr: 0x560C, symBinAddr: 0x16534, symSize: 0x130 }
  - { offsetInCU: 0x308F6, offset: 0x19F09B, size: 0x8, addend: 0x0, symName: __ZNSt3__16vectorINS_10shared_ptrIN3sdc4core9JsonValueEEENS_9allocatorIS5_EEEC2ERKS8_.cold.1, symObjAddr: 0x5E2C, symBinAddr: 0x2717D0, symSize: 0x90 }
  - { offsetInCU: 0x30C7B, offset: 0x19F420, size: 0x8, addend: 0x0, symName: __ZNSt3__16__treeINS_12__value_typeINS_12basic_stringIcNS_11char_traitsIcEENS_9allocatorIcEEEENS_10shared_ptrIN3sdc4core9JsonValueEEEEENS_19__map_value_compareIS7_SD_NS_4lessIS7_EELb1EEENS5_ISD_EEE12__find_equalIS7_EERPNS_16__tree_node_baseIPvEENS_21__tree_const_iteratorISD_PNS_11__tree_nodeISD_SM_EElEERPNS_15__tree_end_nodeISO_EESP_RKT_, symObjAddr: 0x573C, symBinAddr: 0x16664, symSize: 0x3F8 }
  - { offsetInCU: 0x3186A, offset: 0x1A000F, size: 0x8, addend: 0x0, symName: __ZNSt3__16__treeINS_12__value_typeINS_12basic_stringIcNS_11char_traitsIcEENS_9allocatorIcEEEENS_10shared_ptrIN3sdc4core9JsonValueEEEEENS_19__map_value_compareIS7_SD_NS_4lessIS7_EELb1EEENS5_ISD_EEE16__construct_nodeIJRKNS_4pairIKS7_SC_EEEEENS_10unique_ptrINS_11__tree_nodeISD_PvEENS_22__tree_node_destructorINS5_IST_EEEEEEDpOT_, symObjAddr: 0x5B34, symBinAddr: 0x16A5C, symSize: 0x100 }
  - { offsetInCU: 0x27, offset: 0x1A087B, size: 0x8, addend: 0x0, symName: '+[SDCBarcodeCaptureImageLoader imageNamed:]', symObjAddr: 0x0, symBinAddr: 0x16C28, symSize: 0xA8 }
  - { offsetInCU: 0x20A, offset: 0x1A0A5E, size: 0x8, addend: 0x0, symName: '+[SDCBarcodeCaptureImageLoader imageNamed:]', symObjAddr: 0x0, symBinAddr: 0x16C28, symSize: 0xA8 }
  - { offsetInCU: 0x1227E, offset: 0x1B3164, size: 0x8, addend: 0x0, symName: '-[SDCBarcodeCaptureLicenseInfo initWithCpp:]', symObjAddr: 0x0, symBinAddr: 0x16CD0, symSize: 0xD0 }
  - { offsetInCU: 0x124CA, offset: 0x1B33B0, size: 0x8, addend: 0x0, symName: '-[SDCBarcodeCaptureLicenseInfo cppImpl]', symObjAddr: 0xD0, symBinAddr: 0x16DA0, symSize: 0x8 }
  - { offsetInCU: 0x12504, offset: 0x1B33EA, size: 0x8, addend: 0x0, symName: '-[SDCBarcodeCaptureLicenseInfo cppImpl]', symObjAddr: 0xD0, symBinAddr: 0x16DA0, symSize: 0x8 }
  - { offsetInCU: 0x1258C, offset: 0x1B3472, size: 0x8, addend: 0x0, symName: '-[SDCBarcodeCaptureLicenseInfo typeErasedCppImpl]', symObjAddr: 0xD8, symBinAddr: 0x16DA8, symSize: 0x24 }
  - { offsetInCU: 0x125C4, offset: 0x1B34AA, size: 0x8, addend: 0x0, symName: '-[SDCBarcodeCaptureLicenseInfo typeErasedCppImpl]', symObjAddr: 0xD8, symBinAddr: 0x16DA8, symSize: 0x24 }
  - { offsetInCU: 0x125ED, offset: 0x1B34D3, size: 0x8, addend: 0x0, symName: '-[SDCBarcodeCaptureLicenseInfo typeErasedCppImpl]', symObjAddr: 0xD8, symBinAddr: 0x16DA8, symSize: 0x24 }
  - { offsetInCU: 0x12C82, offset: 0x1B3B68, size: 0x8, addend: 0x0, symName: '-[SDCBarcodeCaptureLicenseInfo licensedSymbologies]', symObjAddr: 0xFC, symBinAddr: 0x16DCC, symSize: 0x158 }
  - { offsetInCU: 0x13305, offset: 0x1B41EB, size: 0x8, addend: 0x0, symName: __ZNSt3__113unordered_setIN3sdc4core9SymbologyENS_4hashIS3_EENS_8equal_toIS3_EENS_9allocatorIS3_EEEC2ERKSA_, symObjAddr: 0x464, symBinAddr: 0x17134, symSize: 0x130 }
  - { offsetInCU: 0x136B9, offset: 0x1B459F, size: 0x8, addend: 0x0, symName: __ZNSt3__113unordered_setIN3sdc4core9SymbologyENS_4hashIS3_EENS_8equal_toIS3_EENS_9allocatorIS3_EEED1B8ue170006Ev, symObjAddr: 0x254, symBinAddr: 0x16F24, symSize: 0x48 }
  - { offsetInCU: 0x13A80, offset: 0x1B4966, size: 0x8, addend: 0x0, symName: '-[SDCBarcodeCaptureLicenseInfo JSONString]', symObjAddr: 0x29C, symBinAddr: 0x16F6C, symSize: 0x9C }
  - { offsetInCU: 0x13E2F, offset: 0x1B4D15, size: 0x8, addend: 0x0, symName: '-[SDCBarcodeCaptureLicenseInfo .cxx_destruct]', symObjAddr: 0x338, symBinAddr: 0x17008, symSize: 0xE4 }
  - { offsetInCU: 0x14145, offset: 0x1B502B, size: 0x8, addend: 0x0, symName: '-[SDCBarcodeCaptureLicenseInfo .cxx_construct]', symObjAddr: 0x41C, symBinAddr: 0x170EC, symSize: 0x48 }
  - { offsetInCU: 0x145F5, offset: 0x1B54DB, size: 0x8, addend: 0x0, symName: __ZNSt3__112__hash_tableIN3sdc4core9SymbologyENS_4hashIS3_EENS_8equal_toIS3_EENS_9allocatorIS3_EEE11__do_rehashILb1EEEvm, symObjAddr: 0x5E8, symBinAddr: 0x172AC, symSize: 0x1AC }
  - { offsetInCU: 0x14AB3, offset: 0x1B5999, size: 0x8, addend: 0x0, symName: __ZNSt3__112__hash_tableIN3sdc4core9SymbologyENS_4hashIS3_EENS_8equal_toIS3_EENS_9allocatorIS3_EEE25__emplace_unique_key_argsIS3_JRKS3_EEENS_4pairINS_15__hash_iteratorIPNS_11__hash_nodeIS3_PvEEEEbEERKT_DpOT0_, symObjAddr: 0x7BC, symBinAddr: 0x17458, symSize: 0x310 }
  - { offsetInCU: 0x15118, offset: 0x1B5FFE, size: 0x8, addend: 0x0, symName: __ZNSt3__112__hash_tableIN3sdc4core9SymbologyENS_4hashIS3_EENS_8equal_toIS3_EENS_9allocatorIS3_EEED1Ev, symObjAddr: 0x594, symBinAddr: 0x17264, symSize: 0x48 }
  - { offsetInCU: 0x9B4B, offset: 0x1C0105, size: 0x8, addend: 0x0, symName: __ZNSt3__120dynamic_pointer_castB8ue170006IN3sdc4core21TargetAimerViewfinderENS2_10ViewfinderEEENS_10shared_ptrIT_EERKNS5_IT0_EE, symObjAddr: 0x6BC, symBinAddr: 0x17E24, symSize: 0x74 }
  - { offsetInCU: 0x9F22, offset: 0x1C04DC, size: 0x8, addend: 0x0, symName: __ZNSt3__120dynamic_pointer_castB8ue170006IN3sdc4core12NoViewfinderENS2_10ViewfinderEEENS_10shared_ptrIT_EERKNS5_IT0_EE, symObjAddr: 0x798, symBinAddr: 0x17F00, symSize: 0x74 }
  - { offsetInCU: 0xFEAD, offset: 0x1C6467, size: 0x8, addend: 0x0, symName: __ZN3sdc4core2toIU8__strongPU24objcproto13SDCViewfinder11objc_objectNSt3__110shared_ptrINS0_10ViewfinderEEEEET_RKT0_, symObjAddr: 0x0, symBinAddr: 0x17768, symSize: 0x4B4 }
  - { offsetInCU: 0x10D61, offset: 0x1C731B, size: 0x8, addend: 0x0, symName: __ZN3sdc4core2toINSt3__110shared_ptrINS0_10ViewfinderEEEU8__strongPU24objcproto13SDCViewfinder11objc_objectEET_RKT0_, symObjAddr: 0x914, symBinAddr: 0x17FDC, symSize: 0x2A8 }
  - { offsetInCU: 0x1342A, offset: 0x1C99E4, size: 0x8, addend: 0x0, symName: __ZN6djinni18get_cpp_proxy_implI22SDCLaserlineViewfinderN3sdc4core19LaserlineViewfinderEEEPT_RKNSt3__110shared_ptrIT0_EE, symObjAddr: 0x22B8, symBinAddr: 0x197FC, symSize: 0xE8 }
  - { offsetInCU: 0x13647, offset: 0x1C9C01, size: 0x8, addend: 0x0, symName: __ZN6djinni18get_cpp_proxy_implI24SDCRectangularViewfinderN3sdc4core21RectangularViewfinderEEEPT_RKNSt3__110shared_ptrIT0_EE, symObjAddr: 0x24E8, symBinAddr: 0x199C4, symSize: 0xE8 }
  - { offsetInCU: 0x13864, offset: 0x1C9E1E, size: 0x8, addend: 0x0, symName: __ZN6djinni18get_cpp_proxy_implI22SDCSpotlightViewfinderN3sdc4core19SpotlightViewfinderEEEPT_RKNSt3__110shared_ptrIT0_EE, symObjAddr: 0x26B0, symBinAddr: 0x19B8C, symSize: 0xE8 }
  - { offsetInCU: 0x13A81, offset: 0x1CA03B, size: 0x8, addend: 0x0, symName: __ZN6djinni18get_cpp_proxy_implI21SDCCombinedViewfinderN3sdc4core18CombinedViewfinderEEEPT_RKNSt3__110shared_ptrIT0_EE, symObjAddr: 0x2878, symBinAddr: 0x19D54, symSize: 0xE8 }
  - { offsetInCU: 0x13C9E, offset: 0x1CA258, size: 0x8, addend: 0x0, symName: __ZN6djinni18get_cpp_proxy_implI18SDCAimerViewfinderN3sdc4core15AimerViewfinderEEEPT_RKNSt3__110shared_ptrIT0_EE, symObjAddr: 0x2A40, symBinAddr: 0x19F1C, symSize: 0xE8 }
  - { offsetInCU: 0x13EBB, offset: 0x1CA475, size: 0x8, addend: 0x0, symName: __ZN6djinni18get_cpp_proxy_implI24SDCTargetAimerViewfinderN3sdc4core21TargetAimerViewfinderEEEPT_RKNSt3__110shared_ptrIT0_EE, symObjAddr: 0x2C08, symBinAddr: 0x1A0E4, symSize: 0xE8 }
  - { offsetInCU: 0x1689B, offset: 0x1CCE55, size: 0x8, addend: 0x0, symName: __ZNSt3__110shared_ptrIN3sdc4core21TargetAimerViewfinderEED1B8ue170006Ev, symObjAddr: 0x730, symBinAddr: 0x17E98, symSize: 0x68 }
  - { offsetInCU: 0x1693A, offset: 0x1CCEF4, size: 0x8, addend: 0x0, symName: __ZNSt3__110shared_ptrIN3sdc4core12NoViewfinderEED1B8ue170006Ev, symObjAddr: 0x80C, symBinAddr: 0x17F74, symSize: 0x68 }
  - { offsetInCU: 0x16C31, offset: 0x1CD1EB, size: 0x8, addend: 0x0, symName: __ZN3sdc4core2toINSt3__110shared_ptrINS0_10ViewfinderEEEU8__strongPU24objcproto13SDCViewfinder11objc_objectEET_RKT0_, symObjAddr: 0x914, symBinAddr: 0x17FDC, symSize: 0x2A8 }
  - { offsetInCU: 0x16C49, offset: 0x1CD203, size: 0x8, addend: 0x0, symName: __ZNSt3__110shared_ptrIN3sdc4core15AimerViewfinderEED1B8ue170006Ev, symObjAddr: 0x654, symBinAddr: 0x17DBC, symSize: 0x68 }
  - { offsetInCU: 0x16CE8, offset: 0x1CD2A2, size: 0x8, addend: 0x0, symName: __ZNSt3__110shared_ptrIN3sdc4core18CombinedViewfinderEED1B8ue170006Ev, symObjAddr: 0x5EC, symBinAddr: 0x17D54, symSize: 0x68 }
  - { offsetInCU: 0x16D87, offset: 0x1CD341, size: 0x8, addend: 0x0, symName: __ZNSt3__110shared_ptrIN3sdc4core19SpotlightViewfinderEED1B8ue170006Ev, symObjAddr: 0x584, symBinAddr: 0x17CEC, symSize: 0x68 }
  - { offsetInCU: 0x16E26, offset: 0x1CD3E0, size: 0x8, addend: 0x0, symName: __ZNSt3__110shared_ptrIN3sdc4core21RectangularViewfinderEED1B8ue170006Ev, symObjAddr: 0x51C, symBinAddr: 0x17C84, symSize: 0x68 }
  - { offsetInCU: 0x16EC5, offset: 0x1CD47F, size: 0x8, addend: 0x0, symName: __ZNSt3__110shared_ptrIN3sdc4core19LaserlineViewfinderEED1B8ue170006Ev, symObjAddr: 0x4B4, symBinAddr: 0x17C1C, symSize: 0x68 }
  - { offsetInCU: 0x175C6, offset: 0x1CDB80, size: 0x8, addend: 0x0, symName: _NSStringFromBarcodeCaptureOverlayStyle, symObjAddr: 0xBDC, symBinAddr: 0x18284, symSize: 0xA0 }
  - { offsetInCU: 0x17965, offset: 0x1CDF1F, size: 0x8, addend: 0x0, symName: _SDCBarcodeCaptureOverlayStyleFromJSONString, symObjAddr: 0xC7C, symBinAddr: 0x18324, symSize: 0x174 }
  - { offsetInCU: 0x1811F, offset: 0x1CE6D9, size: 0x8, addend: 0x0, symName: __ZN3bar6resultIN3sdc26BarcodeCaptureOverlayStyleENSt3__112basic_stringIcNS3_11char_traitsIcEENS3_9allocatorIcEEEEE14value_or_throwEv, symObjAddr: 0xDF0, symBinAddr: 0x18498, symSize: 0x108 }
  - { offsetInCU: 0x18548, offset: 0x1CEB02, size: 0x8, addend: 0x0, symName: __ZNK3bar6resultIN3sdc26BarcodeCaptureOverlayStyleENSt3__112basic_stringIcNS3_11char_traitsIcEENS3_9allocatorIcEEEEE5errorEv, symObjAddr: 0x2DD0, symBinAddr: 0x1A2AC, symSize: 0x12C }
  - { offsetInCU: 0x18BEC, offset: 0x1CF1A6, size: 0x8, addend: 0x0, symName: '-[SDCBarcodeCaptureOverlay initWithCpp:]', symObjAddr: 0xEF8, symBinAddr: 0x185A0, symSize: 0xD0 }
  - { offsetInCU: 0x18E39, offset: 0x1CF3F3, size: 0x8, addend: 0x0, symName: '-[SDCBarcodeCaptureOverlay cppImpl]', symObjAddr: 0xFC8, symBinAddr: 0x18670, symSize: 0x8 }
  - { offsetInCU: 0x18E72, offset: 0x1CF42C, size: 0x8, addend: 0x0, symName: '-[SDCBarcodeCaptureOverlay cppImpl]', symObjAddr: 0xFC8, symBinAddr: 0x18670, symSize: 0x8 }
  - { offsetInCU: 0x18EFB, offset: 0x1CF4B5, size: 0x8, addend: 0x0, symName: '-[SDCBarcodeCaptureOverlay typeErasedCppImpl]', symObjAddr: 0xFD0, symBinAddr: 0x18678, symSize: 0x24 }
  - { offsetInCU: 0x18F32, offset: 0x1CF4EC, size: 0x8, addend: 0x0, symName: '-[SDCBarcodeCaptureOverlay typeErasedCppImpl]', symObjAddr: 0xFD0, symBinAddr: 0x18678, symSize: 0x24 }
  - { offsetInCU: 0x18F5B, offset: 0x1CF515, size: 0x8, addend: 0x0, symName: '-[SDCBarcodeCaptureOverlay typeErasedCppImpl]', symObjAddr: 0xFD0, symBinAddr: 0x18678, symSize: 0x24 }
  - { offsetInCU: 0x18FE4, offset: 0x1CF59E, size: 0x8, addend: 0x0, symName: '+[SDCBarcodeCaptureOverlay overlayWithBarcodeCapture:]', symObjAddr: 0xFF4, symBinAddr: 0x1869C, symSize: 0xD0 }
  - { offsetInCU: 0x1919D, offset: 0x1CF757, size: 0x8, addend: 0x0, symName: '+[SDCBarcodeCaptureOverlay overlayWithBarcodeCapture:forDataCaptureView:]', symObjAddr: 0x10C4, symBinAddr: 0x1876C, symSize: 0xFC }
  - { offsetInCU: 0x19366, offset: 0x1CF920, size: 0x8, addend: 0x0, symName: '+[SDCBarcodeCaptureOverlay overlayWithBarcodeCapture:withStyle:]', symObjAddr: 0x11C0, symBinAddr: 0x18868, symSize: 0xE0 }
  - { offsetInCU: 0x196AC, offset: 0x1CFC66, size: 0x8, addend: 0x0, symName: '+[SDCBarcodeCaptureOverlay overlayWithBarcodeCapture:forDataCaptureView:withStyle:]', symObjAddr: 0x12A0, symBinAddr: 0x18948, symSize: 0x258 }
  - { offsetInCU: 0x19CD6, offset: 0x1D0290, size: 0x8, addend: 0x0, symName: __ZNSt3__110shared_ptrIN3sdc4core18DataCaptureOverlayEED1B8ue170006Ev, symObjAddr: 0x1560, symBinAddr: 0x18BA0, symSize: 0x68 }
  - { offsetInCU: 0x1A036, offset: 0x1D05F0, size: 0x8, addend: 0x0, symName: '+[SDCBarcodeCaptureOverlay defaultBrush]', symObjAddr: 0x1630, symBinAddr: 0x18C08, symSize: 0x78 }
  - { offsetInCU: 0x1A1A1, offset: 0x1D075B, size: 0x8, addend: 0x0, symName: '+[SDCBarcodeCaptureOverlay defaultBrushForStyle:]', symObjAddr: 0x16A8, symBinAddr: 0x18C80, symSize: 0x98 }
  - { offsetInCU: 0x1A4E5, offset: 0x1D0A9F, size: 0x8, addend: 0x0, symName: '-[SDCBarcodeCaptureOverlay brush]', symObjAddr: 0x1740, symBinAddr: 0x18D18, symSize: 0x80 }
  - { offsetInCU: 0x1A6A5, offset: 0x1D0C5F, size: 0x8, addend: 0x0, symName: '-[SDCBarcodeCaptureOverlay setBrush:]', symObjAddr: 0x17C0, symBinAddr: 0x18D98, symSize: 0xD8 }
  - { offsetInCU: 0x1A8B6, offset: 0x1D0E70, size: 0x8, addend: 0x0, symName: __ZN3sdc4core9UiElement14setNeedsRedrawEv, symObjAddr: 0x1FCC, symBinAddr: 0x19598, symSize: 0x194 }
  - { offsetInCU: 0x1AC2C, offset: 0x1D11E6, size: 0x8, addend: 0x0, symName: '-[SDCBarcodeCaptureOverlay shouldShowScanAreaGuides]', symObjAddr: 0x1898, symBinAddr: 0x18E70, symSize: 0xC }
  - { offsetInCU: 0x1AC65, offset: 0x1D121F, size: 0x8, addend: 0x0, symName: '-[SDCBarcodeCaptureOverlay shouldShowScanAreaGuides]', symObjAddr: 0x1898, symBinAddr: 0x18E70, symSize: 0xC }
  - { offsetInCU: 0x1ACC2, offset: 0x1D127C, size: 0x8, addend: 0x0, symName: '-[SDCBarcodeCaptureOverlay setShouldShowScanAreaGuides:]', symObjAddr: 0x18A4, symBinAddr: 0x18E7C, symSize: 0xC }
  - { offsetInCU: 0x1AD59, offset: 0x1D1313, size: 0x8, addend: 0x0, symName: '-[SDCBarcodeCaptureOverlay setViewfinder:]', symObjAddr: 0x18B0, symBinAddr: 0x18E88, symSize: 0xE0 }
  - { offsetInCU: 0x1AE9B, offset: 0x1D1455, size: 0x8, addend: 0x0, symName: __ZNSt3__110shared_ptrIN3sdc4core10ViewfinderEED1B8ue170006Ev, symObjAddr: 0x1990, symBinAddr: 0x18F68, symSize: 0x68 }
  - { offsetInCU: 0x1AF88, offset: 0x1D1542, size: 0x8, addend: 0x0, symName: '-[SDCBarcodeCaptureOverlay viewfinder]', symObjAddr: 0x19F8, symBinAddr: 0x18FD0, symSize: 0xDC }
  - { offsetInCU: 0x1B190, offset: 0x1D174A, size: 0x8, addend: 0x0, symName: '-[SDCBarcodeCaptureOverlay style]', symObjAddr: 0x1AD4, symBinAddr: 0x190AC, symSize: 0x14 }
  - { offsetInCU: 0x1B1C9, offset: 0x1D1783, size: 0x8, addend: 0x0, symName: '-[SDCBarcodeCaptureOverlay style]', symObjAddr: 0x1AD4, symBinAddr: 0x190AC, symSize: 0x14 }
  - { offsetInCU: 0x1B285, offset: 0x1D183F, size: 0x8, addend: 0x0, symName: '-[SDCBarcodeCaptureOverlay setValue:forProperty:]', symObjAddr: 0x1AE8, symBinAddr: 0x190C0, symSize: 0x14C }
  - { offsetInCU: 0x1B3B3, offset: 0x1D196D, size: 0x8, addend: 0x0, symName: '+[SDCBarcodeCaptureOverlay barcodeCaptureOverlayFromJSONString:mode:error:]', symObjAddr: 0x1C34, symBinAddr: 0x1920C, symSize: 0x14C }
  - { offsetInCU: 0x1B49E, offset: 0x1D1A58, size: 0x8, addend: 0x0, symName: '-[SDCBarcodeCaptureOverlay updateFromJSONString:error:]', symObjAddr: 0x1D80, symBinAddr: 0x19358, symSize: 0x114 }
  - { offsetInCU: 0x1B763, offset: 0x1D1D1D, size: 0x8, addend: 0x0, symName: '-[SDCBarcodeCaptureOverlay .cxx_destruct]', symObjAddr: 0x1E94, symBinAddr: 0x1946C, symSize: 0xE4 }
  - { offsetInCU: 0x1BA7F, offset: 0x1D2039, size: 0x8, addend: 0x0, symName: '-[SDCBarcodeCaptureOverlay .cxx_construct]', symObjAddr: 0x1F78, symBinAddr: 0x19550, symSize: 0x48 }
  - { offsetInCU: 0x1BDBF, offset: 0x1D2379, size: 0x8, addend: 0x0, symName: __ZNSt3__110shared_ptrIN4glui19NeedsRedrawDelegateEED1B8ue170006Ev, symObjAddr: 0x21C8, symBinAddr: 0x19794, symSize: 0x68 }
  - { offsetInCU: 0x1BE5E, offset: 0x1D2418, size: 0x8, addend: 0x0, symName: __ZNSt3__110shared_ptrIN4glui2UiEED1B8ue170006Ev, symObjAddr: 0x2160, symBinAddr: 0x1972C, symSize: 0x68 }
  - { offsetInCU: 0x1C1D2, offset: 0x1D278C, size: 0x8, addend: 0x0, symName: __ZZN6djinni18get_cpp_proxy_implI22SDCLaserlineViewfinderN3sdc4core19LaserlineViewfinderEEEPT_RKNSt3__110shared_ptrIT0_EEENUlRKNS8_IvEEE_8__invokeESF_, symObjAddr: 0x2408, symBinAddr: 0x198E4, symSize: 0xE0 }
  - { offsetInCU: 0x1C48B, offset: 0x1D2A45, size: 0x8, addend: 0x0, symName: __ZZN6djinni18get_cpp_proxy_implI22SDCLaserlineViewfinderN3sdc4core19LaserlineViewfinderEEEPT_RKNSt3__110shared_ptrIT0_EEENUlRKNS8_IvEEE_8__invokeESF_.cold.1, symObjAddr: 0x30C4, symBinAddr: 0x271860, symSize: 0x2C }
  - { offsetInCU: 0x1C6E4, offset: 0x1D2C9E, size: 0x8, addend: 0x0, symName: __ZZN6djinni18get_cpp_proxy_implI24SDCRectangularViewfinderN3sdc4core21RectangularViewfinderEEEPT_RKNSt3__110shared_ptrIT0_EEENUlRKNS8_IvEEE_8__invokeESF_, symObjAddr: 0x25D0, symBinAddr: 0x19AAC, symSize: 0xE0 }
  - { offsetInCU: 0x1C99D, offset: 0x1D2F57, size: 0x8, addend: 0x0, symName: __ZZN6djinni18get_cpp_proxy_implI24SDCRectangularViewfinderN3sdc4core21RectangularViewfinderEEEPT_RKNSt3__110shared_ptrIT0_EEENUlRKNS8_IvEEE_8__invokeESF_.cold.1, symObjAddr: 0x30F0, symBinAddr: 0x27188C, symSize: 0x2C }
  - { offsetInCU: 0x1CBF6, offset: 0x1D31B0, size: 0x8, addend: 0x0, symName: __ZZN6djinni18get_cpp_proxy_implI22SDCSpotlightViewfinderN3sdc4core19SpotlightViewfinderEEEPT_RKNSt3__110shared_ptrIT0_EEENUlRKNS8_IvEEE_8__invokeESF_, symObjAddr: 0x2798, symBinAddr: 0x19C74, symSize: 0xE0 }
  - { offsetInCU: 0x1CEAF, offset: 0x1D3469, size: 0x8, addend: 0x0, symName: __ZZN6djinni18get_cpp_proxy_implI22SDCSpotlightViewfinderN3sdc4core19SpotlightViewfinderEEEPT_RKNSt3__110shared_ptrIT0_EEENUlRKNS8_IvEEE_8__invokeESF_.cold.1, symObjAddr: 0x311C, symBinAddr: 0x2718B8, symSize: 0x2C }
  - { offsetInCU: 0x1D108, offset: 0x1D36C2, size: 0x8, addend: 0x0, symName: __ZZN6djinni18get_cpp_proxy_implI21SDCCombinedViewfinderN3sdc4core18CombinedViewfinderEEEPT_RKNSt3__110shared_ptrIT0_EEENUlRKNS8_IvEEE_8__invokeESF_, symObjAddr: 0x2960, symBinAddr: 0x19E3C, symSize: 0xE0 }
  - { offsetInCU: 0x1D3C1, offset: 0x1D397B, size: 0x8, addend: 0x0, symName: __ZZN6djinni18get_cpp_proxy_implI21SDCCombinedViewfinderN3sdc4core18CombinedViewfinderEEEPT_RKNSt3__110shared_ptrIT0_EEENUlRKNS8_IvEEE_8__invokeESF_.cold.1, symObjAddr: 0x3148, symBinAddr: 0x2718E4, symSize: 0x2C }
  - { offsetInCU: 0x1D61A, offset: 0x1D3BD4, size: 0x8, addend: 0x0, symName: __ZZN6djinni18get_cpp_proxy_implI18SDCAimerViewfinderN3sdc4core15AimerViewfinderEEEPT_RKNSt3__110shared_ptrIT0_EEENUlRKNS8_IvEEE_8__invokeESF_, symObjAddr: 0x2B28, symBinAddr: 0x1A004, symSize: 0xE0 }
  - { offsetInCU: 0x1D8D3, offset: 0x1D3E8D, size: 0x8, addend: 0x0, symName: __ZZN6djinni18get_cpp_proxy_implI18SDCAimerViewfinderN3sdc4core15AimerViewfinderEEEPT_RKNSt3__110shared_ptrIT0_EEENUlRKNS8_IvEEE_8__invokeESF_.cold.1, symObjAddr: 0x3174, symBinAddr: 0x271910, symSize: 0x2C }
  - { offsetInCU: 0x1DB46, offset: 0x1D4100, size: 0x8, addend: 0x0, symName: __ZZN6djinni18get_cpp_proxy_implI24SDCTargetAimerViewfinderN3sdc4core21TargetAimerViewfinderEEEPT_RKNSt3__110shared_ptrIT0_EEENUlRKNS8_IvEEE_8__invokeESF_, symObjAddr: 0x2CF0, symBinAddr: 0x1A1CC, symSize: 0xE0 }
  - { offsetInCU: 0x1DDFF, offset: 0x1D43B9, size: 0x8, addend: 0x0, symName: __ZZN6djinni18get_cpp_proxy_implI24SDCTargetAimerViewfinderN3sdc4core21TargetAimerViewfinderEEEPT_RKNSt3__110shared_ptrIT0_EEENUlRKNS8_IvEEE_8__invokeESF_.cold.1, symObjAddr: 0x31A0, symBinAddr: 0x27193C, symSize: 0x2C }
  - { offsetInCU: 0x1DF6B, offset: 0x1D4525, size: 0x8, addend: 0x0, symName: _OUTLINED_FUNCTION_0, symObjAddr: 0x31F8, symBinAddr: 0x1A3D8, symSize: 0x10 }
  - { offsetInCU: 0x1DF83, offset: 0x1D453D, size: 0x8, addend: 0x0, symName: _OUTLINED_FUNCTION_1, symObjAddr: 0x3208, symBinAddr: 0x1A3E8, symSize: 0x10 }
  - { offsetInCU: 0x1DF9B, offset: 0x1D4555, size: 0x8, addend: 0x0, symName: _OUTLINED_FUNCTION_2, symObjAddr: 0x3218, symBinAddr: 0x1A3F8, symSize: 0x8 }
  - { offsetInCU: 0x1DFB3, offset: 0x1D456D, size: 0x8, addend: 0x0, symName: _OUTLINED_FUNCTION_3, symObjAddr: 0x3220, symBinAddr: 0x1A400, symSize: 0x8 }
  - { offsetInCU: 0x1DFCB, offset: 0x1D4585, size: 0x8, addend: 0x0, symName: _OUTLINED_FUNCTION_4, symObjAddr: 0x3228, symBinAddr: 0x1A408, symSize: 0xC }
  - { offsetInCU: 0x130B, offset: 0x1D58F5, size: 0x8, addend: 0x0, symName: __ZN3sdc4core31nsarrayWithCppSequenceContainerINSt3__16vectorINS2_10shared_ptrINS0_7BarcodeEEENS2_9allocatorIS6_EEEEU8__strongU13block_pointerFP10SDCBarcodeS6_EEEP7NSArrayRKT_OT0_NS2_17basic_string_viewIcNS2_11char_traitsIcEEEE, symObjAddr: 0xA78, symBinAddr: 0x1ADB0, symSize: 0x164 }
  - { offsetInCU: 0x15D6, offset: 0x1D5BC0, size: 0x8, addend: 0x0, symName: __ZN3sdc4core31nsarrayWithCppSequenceContainerINSt3__16vectorINS2_10shared_ptrINS0_20LocalizedOnlyBarcodeEEENS2_9allocatorIS6_EEEEU8__strongU13block_pointerFP23SDCLocalizedOnlyBarcodeS6_EEEP7NSArrayRKT_OT0_NS2_17basic_string_viewIcNS2_11char_traitsIcEEEE, symObjAddr: 0xE0C, symBinAddr: 0x1B144, symSize: 0x164 }
  - { offsetInCU: 0x115B2, offset: 0x1E5B9C, size: 0x8, addend: 0x0, symName: __ZN6djinni18get_cpp_proxy_implI10SDCBarcodeN3sdc4core7BarcodeEEEPT_RKNSt3__110shared_ptrIT0_EE, symObjAddr: 0x848, symBinAddr: 0x1ABE8, symSize: 0xE8 }
  - { offsetInCU: 0x117F9, offset: 0x1E5DE3, size: 0x8, addend: 0x0, symName: __ZN6djinni18get_cpp_proxy_implI23SDCLocalizedOnlyBarcodeN3sdc4core20LocalizedOnlyBarcodeEEEPT_RKNSt3__110shared_ptrIT0_EE, symObjAddr: 0xC44, symBinAddr: 0x1AF7C, symSize: 0xE8 }
  - { offsetInCU: 0x13A10, offset: 0x1E7FFA, size: 0x8, addend: 0x0, symName: '-[SDCBarcodeCaptureSession initWithCpp:]', symObjAddr: 0x0, symBinAddr: 0x1A414, symSize: 0xD0 }
  - { offsetInCU: 0x13C5C, offset: 0x1E8246, size: 0x8, addend: 0x0, symName: '-[SDCBarcodeCaptureSession cppImpl]', symObjAddr: 0xD0, symBinAddr: 0x1A4E4, symSize: 0x8 }
  - { offsetInCU: 0x13C95, offset: 0x1E827F, size: 0x8, addend: 0x0, symName: '-[SDCBarcodeCaptureSession cppImpl]', symObjAddr: 0xD0, symBinAddr: 0x1A4E4, symSize: 0x8 }
  - { offsetInCU: 0x13E25, offset: 0x1E840F, size: 0x8, addend: 0x0, symName: '-[SDCBarcodeCaptureSession newlyRecognizedBarcode]', symObjAddr: 0xD8, symBinAddr: 0x1A4EC, symSize: 0xDC }
  - { offsetInCU: 0x140BB, offset: 0x1E86A5, size: 0x8, addend: 0x0, symName: __ZNSt3__18optionalINS_10shared_ptrIN3sdc4core7BarcodeEEEED1Ev, symObjAddr: 0x1B4, symBinAddr: 0x1A5C8, symSize: 0x70 }
  - { offsetInCU: 0x143EC, offset: 0x1E89D6, size: 0x8, addend: 0x0, symName: '-[SDCBarcodeCaptureSession newlyRecognizedBarcodes]', symObjAddr: 0x224, symBinAddr: 0x1A638, symSize: 0x130 }
  - { offsetInCU: 0x14706, offset: 0x1E8CF0, size: 0x8, addend: 0x0, symName: __ZNSt3__16vectorINS_10shared_ptrIN3sdc4core7BarcodeEEENS_9allocatorIS5_EEED1B8ue170006Ev, symObjAddr: 0x35C, symBinAddr: 0x1A770, symSize: 0x98 }
  - { offsetInCU: 0x14944, offset: 0x1E8F2E, size: 0x8, addend: 0x0, symName: '___51-[SDCBarcodeCaptureSession newlyRecognizedBarcodes]_block_invoke', symObjAddr: 0x354, symBinAddr: 0x1A768, symSize: 0x8 }
  - { offsetInCU: 0x14BC8, offset: 0x1E91B2, size: 0x8, addend: 0x0, symName: '-[SDCBarcodeCaptureSession newlyLocalizedBarcodes]', symObjAddr: 0x3F4, symBinAddr: 0x1A808, symSize: 0x130 }
  - { offsetInCU: 0x14EE2, offset: 0x1E94CC, size: 0x8, addend: 0x0, symName: __ZNSt3__16vectorINS_10shared_ptrIN3sdc4core20LocalizedOnlyBarcodeEEENS_9allocatorIS5_EEED1B8ue170006Ev, symObjAddr: 0x52C, symBinAddr: 0x1A940, symSize: 0x98 }
  - { offsetInCU: 0x15120, offset: 0x1E970A, size: 0x8, addend: 0x0, symName: '___50-[SDCBarcodeCaptureSession newlyLocalizedBarcodes]_block_invoke', symObjAddr: 0x524, symBinAddr: 0x1A938, symSize: 0x8 }
  - { offsetInCU: 0x15252, offset: 0x1E983C, size: 0x8, addend: 0x0, symName: '-[SDCBarcodeCaptureSession JSONString]', symObjAddr: 0x5C4, symBinAddr: 0x1A9D8, symSize: 0xA4 }
  - { offsetInCU: 0x1553A, offset: 0x1E9B24, size: 0x8, addend: 0x0, symName: '-[SDCBarcodeCaptureSession reset]', symObjAddr: 0x668, symBinAddr: 0x1AA7C, symSize: 0x10 }
  - { offsetInCU: 0x1556F, offset: 0x1E9B59, size: 0x8, addend: 0x0, symName: '-[SDCBarcodeCaptureSession reset]', symObjAddr: 0x668, symBinAddr: 0x1AA7C, symSize: 0x10 }
  - { offsetInCU: 0x15604, offset: 0x1E9BEE, size: 0x8, addend: 0x0, symName: '-[SDCBarcodeCaptureSession typeErasedCppImpl]', symObjAddr: 0x678, symBinAddr: 0x1AA8C, symSize: 0x24 }
  - { offsetInCU: 0x1563B, offset: 0x1E9C25, size: 0x8, addend: 0x0, symName: '-[SDCBarcodeCaptureSession typeErasedCppImpl]', symObjAddr: 0x678, symBinAddr: 0x1AA8C, symSize: 0x24 }
  - { offsetInCU: 0x15664, offset: 0x1E9C4E, size: 0x8, addend: 0x0, symName: '-[SDCBarcodeCaptureSession typeErasedCppImpl]', symObjAddr: 0x678, symBinAddr: 0x1AA8C, symSize: 0x24 }
  - { offsetInCU: 0x15708, offset: 0x1E9CF2, size: 0x8, addend: 0x0, symName: '-[SDCBarcodeCaptureSession frameSequenceId]', symObjAddr: 0x69C, symBinAddr: 0x1AAB0, symSize: 0xC }
  - { offsetInCU: 0x15751, offset: 0x1E9D3B, size: 0x8, addend: 0x0, symName: '-[SDCBarcodeCaptureSession frameSequenceId]', symObjAddr: 0x69C, symBinAddr: 0x1AAB0, symSize: 0xC }
  - { offsetInCU: 0x15877, offset: 0x1E9E61, size: 0x8, addend: 0x0, symName: '-[SDCBarcodeCaptureSession .cxx_destruct]', symObjAddr: 0x6A8, symBinAddr: 0x1AABC, symSize: 0xE4 }
  - { offsetInCU: 0x15B8D, offset: 0x1EA177, size: 0x8, addend: 0x0, symName: '-[SDCBarcodeCaptureSession .cxx_construct]', symObjAddr: 0x78C, symBinAddr: 0x1ABA0, symSize: 0x48 }
  - { offsetInCU: 0x15FC8, offset: 0x1EA5B2, size: 0x8, addend: 0x0, symName: __ZZN6djinni18get_cpp_proxy_implI10SDCBarcodeN3sdc4core7BarcodeEEEPT_RKNSt3__110shared_ptrIT0_EEENUlRKNS8_IvEEE_8__invokeESF_, symObjAddr: 0x998, symBinAddr: 0x1ACD0, symSize: 0xE0 }
  - { offsetInCU: 0x1627A, offset: 0x1EA864, size: 0x8, addend: 0x0, symName: __ZZN6djinni18get_cpp_proxy_implI10SDCBarcodeN3sdc4core7BarcodeEEEPT_RKNSt3__110shared_ptrIT0_EEENUlRKNS8_IvEEE_8__invokeESF_.cold.1, symObjAddr: 0xF70, symBinAddr: 0x271968, symSize: 0x40 }
  - { offsetInCU: 0x163BD, offset: 0x1EA9A7, size: 0x8, addend: 0x0, symName: __ZNSt3__110shared_ptrIN3sdc4core20LocalizedOnlyBarcodeEED1B8ue170006Ev, symObjAddr: 0xBDC, symBinAddr: 0x1AF14, symSize: 0x68 }
  - { offsetInCU: 0x1660B, offset: 0x1EABF5, size: 0x8, addend: 0x0, symName: __ZZN6djinni18get_cpp_proxy_implI23SDCLocalizedOnlyBarcodeN3sdc4core20LocalizedOnlyBarcodeEEEPT_RKNSt3__110shared_ptrIT0_EEENUlRKNS8_IvEEE_8__invokeESF_, symObjAddr: 0xD2C, symBinAddr: 0x1B064, symSize: 0xE0 }
  - { offsetInCU: 0x168BD, offset: 0x1EAEA7, size: 0x8, addend: 0x0, symName: __ZZN6djinni18get_cpp_proxy_implI23SDCLocalizedOnlyBarcodeN3sdc4core20LocalizedOnlyBarcodeEEEPT_RKNSt3__110shared_ptrIT0_EEENUlRKNS8_IvEEE_8__invokeESF_.cold.1, symObjAddr: 0xFB0, symBinAddr: 0x2719A8, symSize: 0x40 }
  - { offsetInCU: 0x16A00, offset: 0x1EAFEA, size: 0x8, addend: 0x0, symName: _OUTLINED_FUNCTION_0, symObjAddr: 0xFF0, symBinAddr: 0x1B2A8, symSize: 0x10 }
  - { offsetInCU: 0x9ED, offset: 0x1EBAF8, size: 0x8, addend: 0x0, symName: __ZN8nlohmann16json_abi_v3_11_36detail9dtoa_impl6grisu2IdEEvPcRiS5_T_, symObjAddr: 0xF734, symBinAddr: 0x2925C, symSize: 0x1E4 }
  - { offsetInCU: 0x1101, offset: 0x1EC20C, size: 0x8, addend: 0x0, symName: __ZN8nlohmann16json_abi_v3_11_36detail9dtoa_impl16grisu2_digit_genEPcRiS4_NS2_5diyfpES5_S5_, symObjAddr: 0xF918, symBinAddr: 0x29440, symSize: 0x2CC }
  - { offsetInCU: 0x26F9, offset: 0x1ED804, size: 0x8, addend: 0x0, symName: __ZN8nlohmann16json_abi_v3_11_36detail6concatINSt3__112basic_stringIcNS3_11char_traitsIcEENS3_9allocatorIcEEEEJRA26_KcS9_cEEET_DpOT0_, symObjAddr: 0x8D80, symBinAddr: 0x23E14, symSize: 0xB4 }
  - { offsetInCU: 0x2A9F, offset: 0x1EDBAA, size: 0x8, addend: 0x0, symName: __ZN8nlohmann16json_abi_v3_11_36detail6concatINSt3__112basic_stringIcNS3_11char_traitsIcEENS3_9allocatorIcEEEEJRA17_KcRKS9_cS9_RA3_SA_EEET_DpOT0_, symObjAddr: 0xB0C0, symBinAddr: 0x24D60, symSize: 0x128 }
  - { offsetInCU: 0x303F, offset: 0x1EE14A, size: 0x8, addend: 0x0, symName: __ZN8nlohmann16json_abi_v3_11_36detail6concatINSt3__112basic_stringIcNS3_11char_traitsIcEENS3_9allocatorIcEEEEJS9_RA12_KcS9_RA3_SA_S9_RKS9_EEET_DpOT0_, symObjAddr: 0xBFB0, symBinAddr: 0x25C50, symSize: 0x190 }
  - { offsetInCU: 0x3B0D, offset: 0x1EEC18, size: 0x8, addend: 0x0, symName: __ZN8nlohmann16json_abi_v3_11_36detail6concatINSt3__112basic_stringIcNS3_11char_traitsIcEENS3_9allocatorIcEEEEJPKcRA15_SA_S9_cEEET_DpOT0_, symObjAddr: 0xC39C, symBinAddr: 0x2603C, symSize: 0xE0 }
  - { offsetInCU: 0x3F7B, offset: 0x1EF086, size: 0x8, addend: 0x0, symName: __ZN8nlohmann16json_abi_v3_11_36detail6concatINSt3__112basic_stringIcNS3_11char_traitsIcEENS3_9allocatorIcEEEEJS9_S9_RKS9_EEET_DpOT0_, symObjAddr: 0xAFC0, symBinAddr: 0x24C60, symSize: 0x100 }
  - { offsetInCU: 0x5096, offset: 0x1F01A1, size: 0x8, addend: 0x0, symName: __ZN8nlohmann16json_abi_v3_11_36detail6concatINSt3__112basic_stringIcNS3_11char_traitsIcEENS3_9allocatorIcEEEEJRA10_KcS9_SC_S9_EEET_DpOT0_, symObjAddr: 0xC25C, symBinAddr: 0x25EFC, symSize: 0x10C }
  - { offsetInCU: 0x594B, offset: 0x1F0A56, size: 0x8, addend: 0x0, symName: __ZN8nlohmann16json_abi_v3_11_36detail8to_charsIdEEPcS3_PKcT_, symObjAddr: 0xF480, symBinAddr: 0x28FA8, symSize: 0x2B4 }
  - { offsetInCU: 0x2B559, offset: 0x216664, size: 0x8, addend: 0x0, symName: __ZNSt3__113__tree_removeB8ue170006IPNS_16__tree_node_baseIPvEEEEvT_S5_, symObjAddr: 0xA920, symBinAddr: 0x245C0, symSize: 0x3C4 }
  - { offsetInCU: 0x2D69E, offset: 0x2187A9, size: 0x8, addend: 0x0, symName: __ZN8nlohmann16json_abi_v3_11_36detail10serializerINS0_10basic_jsonINSt3__13mapENS4_6vectorENS4_12basic_stringIcNS4_11char_traitsIcEENS4_9allocatorIcEEEEbxydSA_NS0_14adl_serializerENS6_IhNSA_IhEEEEvEEE12dump_integerIxLi0EEEvT_, symObjAddr: 0xF238, symBinAddr: 0x28D60, symSize: 0x248 }
  - { offsetInCU: 0x2E618, offset: 0x219723, size: 0x8, addend: 0x0, symName: __ZN3sdc4core31nsdictionaryWithCppUnorderedMapINSt3__112basic_stringIcNS2_11char_traitsIcEENS2_9allocatorIcEEEENS2_6vectorINS0_8PropertyENS6_ISA_EEEERFP8NSStringRKS8_EU8__strongU13block_pointerFP7NSArraySC_EEEP12NSDictionaryRKNS2_13unordered_mapIT_T0_NS2_4hashISR_EENS2_8equal_toISR_EENS6_INS2_4pairIKSR_SS_EEEEEEOT1_OT2_, symObjAddr: 0x11D8, symBinAddr: 0x1C3E0, symSize: 0x270 }
  - { offsetInCU: 0x2F32B, offset: 0x21A436, size: 0x8, addend: 0x0, symName: __ZN3sdc4core15cppSetWithNSSetINS0_9SymbologyEU8__strongU13block_pointerFS2_P8NSNumberEEENSt3__113unordered_setIT_NS8_4hashISA_EENS8_8equal_toISA_EENS8_9allocatorISA_EEEEP5NSSetOT0_, symObjAddr: 0x1710, symBinAddr: 0x1C878, symSize: 0x190 }
  - { offsetInCU: 0x2F732, offset: 0x21A83D, size: 0x8, addend: 0x0, symName: __ZN3sdc4core14stringFromEnumINS0_13ScanIntentionEvEENSt3__112basic_stringIcNS3_11char_traitsIcEENS3_9allocatorIcEEEERKNS3_6vectorINS3_4pairIT_PKcEENS7_ISF_EEEESC_, symObjAddr: 0x30BC, symBinAddr: 0x1E1FC, symSize: 0x124 }
  - { offsetInCU: 0x32667, offset: 0x21D772, size: 0x8, addend: 0x0, symName: __ZN6djinni13set_cpp_proxyIU8__strongP25SDCBarcodeCaptureSettingsNSt3__110shared_ptrIN3sdc22BarcodeCaptureSettingsEEEEEvRKT0_T_b, symObjAddr: 0x2C8, symBinAddr: 0x1B518, symSize: 0x104 }
  - { offsetInCU: 0x32A1A, offset: 0x21DB25, size: 0x8, addend: 0x0, symName: __ZN6djinni18get_cpp_proxy_implI20SDCSymbologySettingsN3sdc4core17SymbologySettingsEEEPT_RKNSt3__110shared_ptrIT0_EE, symObjAddr: 0xFE14, symBinAddr: 0x2970C, symSize: 0xE8 }
  - { offsetInCU: 0x34C22, offset: 0x21FD2D, size: 0x8, addend: 0x0, symName: '-[SDCBarcodeCaptureSettings initWithCpp:]', symObjAddr: 0x0, symBinAddr: 0x1B2B8, symSize: 0xD0 }
  - { offsetInCU: 0x350D9, offset: 0x2201E4, size: 0x8, addend: 0x0, symName: '-[SDCBarcodeCaptureSettings init]', symObjAddr: 0xD0, symBinAddr: 0x1B388, symSize: 0x190 }
  - { offsetInCU: 0x35998, offset: 0x220AA3, size: 0x8, addend: 0x0, symName: '-[SDCBarcodeCaptureSettings initWithCapturePresets:]', symObjAddr: 0x3CC, symBinAddr: 0x1B61C, symSize: 0x1A4 }
  - { offsetInCU: 0x35FAF, offset: 0x2210BA, size: 0x8, addend: 0x0, symName: __ZNSt3__113unordered_setIN3sdc4core13CapturePresetENS_4hashIS3_EENS_8equal_toIS3_EENS_9allocatorIS3_EEED1B8ue170006Ev, symObjAddr: 0x570, symBinAddr: 0x1B7C0, symSize: 0x48 }
  - { offsetInCU: 0x362B9, offset: 0x2213C4, size: 0x8, addend: 0x0, symName: '+[SDCBarcodeCaptureSettings settings]', symObjAddr: 0x5B8, symBinAddr: 0x1B808, symSize: 0xEC }
  - { offsetInCU: 0x36657, offset: 0x221762, size: 0x8, addend: 0x0, symName: '-[SDCBarcodeCaptureSettings cppImpl]', symObjAddr: 0x6A4, symBinAddr: 0x1B8F4, symSize: 0x8 }
  - { offsetInCU: 0x36690, offset: 0x22179B, size: 0x8, addend: 0x0, symName: '-[SDCBarcodeCaptureSettings cppImpl]', symObjAddr: 0x6A4, symBinAddr: 0x1B8F4, symSize: 0x8 }
  - { offsetInCU: 0x367DF, offset: 0x2218EA, size: 0x8, addend: 0x0, symName: '-[SDCBarcodeCaptureSettings settingsForSymbology:]', symObjAddr: 0x6AC, symBinAddr: 0x1B8FC, symSize: 0xD0 }
  - { offsetInCU: 0x369B2, offset: 0x221ABD, size: 0x8, addend: 0x0, symName: __ZNSt3__110shared_ptrIN3sdc4core17SymbologySettingsEED1B8ue170006Ev, symObjAddr: 0x77C, symBinAddr: 0x1B9CC, symSize: 0x68 }
  - { offsetInCU: 0x36A85, offset: 0x221B90, size: 0x8, addend: 0x0, symName: '-[SDCBarcodeCaptureSettings codeDuplicateFilter]', symObjAddr: 0x7E4, symBinAddr: 0x1BA34, symSize: 0x4C }
  - { offsetInCU: 0x36B7D, offset: 0x221C88, size: 0x8, addend: 0x0, symName: '-[SDCBarcodeCaptureSettings setCodeDuplicateFilter:]', symObjAddr: 0x830, symBinAddr: 0x1BA80, symSize: 0x28 }
  - { offsetInCU: 0x36FC5, offset: 0x2220D0, size: 0x8, addend: 0x0, symName: '-[SDCBarcodeCaptureSettings enabledSymbologies]', symObjAddr: 0x858, symBinAddr: 0x1BAA8, symSize: 0x138 }
  - { offsetInCU: 0x376F0, offset: 0x2227FB, size: 0x8, addend: 0x0, symName: '-[SDCBarcodeCaptureSettings valueForProperty:]', symObjAddr: 0x9D8, symBinAddr: 0x1BBE0, symSize: 0xFC }
  - { offsetInCU: 0x378CD, offset: 0x2229D8, size: 0x8, addend: 0x0, symName: __Z39SDCEnginePropertyGetFromCaptureSettingsIN3sdc22BarcodeCaptureSettingsEEP11objc_objectP8NSStringNSt3__110shared_ptrINS0_27BasicBarcodeCaptureSettingsIT_EEEE, symObjAddr: 0xAD4, symBinAddr: 0x1BCDC, symSize: 0x1CC }
  - { offsetInCU: 0x3821D, offset: 0x223328, size: 0x8, addend: 0x0, symName: __ZNSt3__110shared_ptrIN3sdc27BasicBarcodeCaptureSettingsINS1_22BarcodeCaptureSettingsEEEED1B8ue170006Ev, symObjAddr: 0xCA0, symBinAddr: 0x1BEA8, symSize: 0x68 }
  - { offsetInCU: 0x38570, offset: 0x22367B, size: 0x8, addend: 0x0, symName: '-[SDCBarcodeCaptureSettings setValue:forProperty:]', symObjAddr: 0xD08, symBinAddr: 0x1BF10, symSize: 0x110 }
  - { offsetInCU: 0x38761, offset: 0x22386C, size: 0x8, addend: 0x0, symName: __Z39SDCEnginePropertyApplyToCaptureSettingsIN3sdc22BarcodeCaptureSettingsEEvP11objc_objectP8NSStringNSt3__110shared_ptrINS0_27BasicBarcodeCaptureSettingsIT_EEEE, symObjAddr: 0xE18, symBinAddr: 0x1C020, symSize: 0x2F4 }
  - { offsetInCU: 0x39365, offset: 0x224470, size: 0x8, addend: 0x0, symName: '-[SDCBarcodeCaptureSettings properties]', symObjAddr: 0x110C, symBinAddr: 0x1C314, symSize: 0xCC }
  - { offsetInCU: 0x3962F, offset: 0x22473A, size: 0x8, addend: 0x0, symName: __ZNSt3__112__hash_tableINS_17__hash_value_typeINS_12basic_stringIcNS_11char_traitsIcEENS_9allocatorIcEEEENS_6vectorIN3sdc4core8PropertyENS5_ISB_EEEEEENS_22__unordered_map_hasherIS7_SE_NS_4hashIS7_EENS_8equal_toIS7_EELb1EEENS_21__unordered_map_equalIS7_SE_SJ_SH_Lb1EEENS5_ISE_EEE17__deallocate_nodeEPNS_16__hash_node_baseIPNS_11__hash_nodeISE_PvEEEE, symObjAddr: 0xFFDC, symBinAddr: 0x298D4, symSize: 0x14C }
  - { offsetInCU: 0x3A318, offset: 0x225423, size: 0x8, addend: 0x0, symName: __ZNSt3__113unordered_mapINS_12basic_stringIcNS_11char_traitsIcEENS_9allocatorIcEEEENS_6vectorIN3sdc4core8PropertyENS4_ISA_EEEENS_4hashIS6_EENS_8equal_toIS6_EENS4_INS_4pairIKS6_SC_EEEEED1B8ue170006Ev, symObjAddr: 0x1510, symBinAddr: 0x1C718, symSize: 0x38 }
  - { offsetInCU: 0x3A9EA, offset: 0x225AF5, size: 0x8, addend: 0x0, symName: __ZNSt3__16vectorIN3sdc4core8PropertyENS_9allocatorIS3_EEE16__init_with_sizeB8ue170006IPS3_S8_EEvT_T0_m, symObjAddr: 0x10268, symBinAddr: 0x29B60, symSize: 0x12C }
  - { offsetInCU: 0x3AEA3, offset: 0x225FAE, size: 0x8, addend: 0x0, symName: __ZNSt3__16vectorIN3sdc4core8PropertyENS_9allocatorIS3_EEED1B8ue170006Ev, symObjAddr: 0x10128, symBinAddr: 0x29A20, symSize: 0x58 }
  - { offsetInCU: 0x3B104, offset: 0x22620F, size: 0x8, addend: 0x0, symName: '___39-[SDCBarcodeCaptureSettings properties]_block_invoke', symObjAddr: 0x1448, symBinAddr: 0x1C650, symSize: 0xC8 }
  - { offsetInCU: 0x3B23B, offset: 0x226346, size: 0x8, addend: 0x0, symName: '-[SDCBarcodeCaptureSettings enableSymbologies:]', symObjAddr: 0x1548, symBinAddr: 0x1C750, symSize: 0x128 }
  - { offsetInCU: 0x3BA04, offset: 0x226B0F, size: 0x8, addend: 0x0, symName: __ZN3sdc4core15cppSetWithNSSetINS0_9SymbologyEU8__strongU13block_pointerFS2_P8NSNumberEEENSt3__113unordered_setIT_NS8_4hashISA_EENS8_8equal_toISA_EENS8_9allocatorISA_EEEEP5NSSetOT0_, symObjAddr: 0x1710, symBinAddr: 0x1C878, symSize: 0x190 }
  - { offsetInCU: 0x3BE95, offset: 0x226FA0, size: 0x8, addend: 0x0, symName: __ZNSt3__112__hash_tableIN3sdc4core9SymbologyENS_4hashIS3_EENS_8equal_toIS3_EENS_9allocatorIS3_EEE25__emplace_unique_key_argsIS3_JS3_EEENS_4pairINS_15__hash_iteratorIPNS_11__hash_nodeIS3_PvEEEEbEERKT_DpOT0_, symObjAddr: 0x109A0, symBinAddr: 0x2A298, symSize: 0x310 }
  - { offsetInCU: 0x3C4FA, offset: 0x227605, size: 0x8, addend: 0x0, symName: '___47-[SDCBarcodeCaptureSettings enableSymbologies:]_block_invoke', symObjAddr: 0x18A0, symBinAddr: 0x1CA08, symSize: 0x8C }
  - { offsetInCU: 0x3C54B, offset: 0x227656, size: 0x8, addend: 0x0, symName: '-[SDCBarcodeCaptureSettings enableSymbologiesForCompositeTypes:]', symObjAddr: 0x192C, symBinAddr: 0x1CA94, symSize: 0x60 }
  - { offsetInCU: 0x3C5FB, offset: 0x227706, size: 0x8, addend: 0x0, symName: '-[SDCBarcodeCaptureSettings setSymbology:enabled:]', symObjAddr: 0x198C, symBinAddr: 0x1CAF4, symSize: 0x70 }
  - { offsetInCU: 0x3C6CC, offset: 0x2277D7, size: 0x8, addend: 0x0, symName: '-[SDCBarcodeCaptureSettings enabledCompositeTypes]', symObjAddr: 0x19FC, symBinAddr: 0x1CB64, symSize: 0x58 }
  - { offsetInCU: 0x3C739, offset: 0x227844, size: 0x8, addend: 0x0, symName: '-[SDCBarcodeCaptureSettings setEnabledCompositeTypes:]', symObjAddr: 0x1A54, symBinAddr: 0x1CBBC, symSize: 0x60 }
  - { offsetInCU: 0x3C7BB, offset: 0x2278C6, size: 0x8, addend: 0x0, symName: '-[SDCBarcodeCaptureSettings batterySavingMode]', symObjAddr: 0x1AB4, symBinAddr: 0x1CC1C, symSize: 0x58 }
  - { offsetInCU: 0x3C82E, offset: 0x227939, size: 0x8, addend: 0x0, symName: '-[SDCBarcodeCaptureSettings setBatterySavingMode:]', symObjAddr: 0x1B0C, symBinAddr: 0x1CC74, symSize: 0x68 }
  - { offsetInCU: 0x3C8B2, offset: 0x2279BD, size: 0x8, addend: 0x0, symName: '-[SDCBarcodeCaptureSettings batterySaving]', symObjAddr: 0x1B74, symBinAddr: 0x1CCDC, symSize: 0x58 }
  - { offsetInCU: 0x3C91F, offset: 0x227A2A, size: 0x8, addend: 0x0, symName: '-[SDCBarcodeCaptureSettings setBatterySaving:]', symObjAddr: 0x1BCC, symBinAddr: 0x1CD34, symSize: 0x68 }
  - { offsetInCU: 0x3CA1F, offset: 0x227B2A, size: 0x8, addend: 0x0, symName: '-[SDCBarcodeCaptureSettings locationSelection]', symObjAddr: 0x1C34, symBinAddr: 0x1CD9C, symSize: 0xD4 }
  - { offsetInCU: 0x3CC15, offset: 0x227D20, size: 0x8, addend: 0x0, symName: __ZNSt3__110shared_ptrIN3sdc4core17LocationSelectionEED1B8ue170006Ev, symObjAddr: 0x1D08, symBinAddr: 0x1CE70, symSize: 0x68 }
  - { offsetInCU: 0x3CD27, offset: 0x227E32, size: 0x8, addend: 0x0, symName: '-[SDCBarcodeCaptureSettings setLocationSelection:]', symObjAddr: 0x1D70, symBinAddr: 0x1CED8, symSize: 0x118 }
  - { offsetInCU: 0x3D064, offset: 0x22816F, size: 0x8, addend: 0x0, symName: '-[SDCBarcodeCaptureSettings setArucoDictionary:]', symObjAddr: 0x1E88, symBinAddr: 0x1CFF0, symSize: 0xC4 }
  - { offsetInCU: 0x3D2F7, offset: 0x228402, size: 0x8, addend: 0x0, symName: '-[SDCBarcodeCaptureSettings scanIntention]', symObjAddr: 0x1F4C, symBinAddr: 0x1D0B4, symSize: 0xD8 }
  - { offsetInCU: 0x3D968, offset: 0x228A73, size: 0x8, addend: 0x0, symName: '-[SDCBarcodeCaptureSettings setScanIntention:]', symObjAddr: 0x2024, symBinAddr: 0x1D18C, symSize: 0xD8 }
  - { offsetInCU: 0x3DFEC, offset: 0x2290F7, size: 0x8, addend: 0x0, symName: '-[SDCBarcodeCaptureSettings copyWithZone:]', symObjAddr: 0x20FC, symBinAddr: 0x1D264, symSize: 0x124 }
  - { offsetInCU: 0x3E329, offset: 0x229434, size: 0x8, addend: 0x0, symName: __ZN3sdc22BarcodeCaptureSettings5cloneERKNSt3__110shared_ptrIS0_EE, symObjAddr: 0x2220, symBinAddr: 0x1D388, symSize: 0x14C }
  - { offsetInCU: 0x3E74A, offset: 0x229855, size: 0x8, addend: 0x0, symName: __ZN3sdc27BasicBarcodeCaptureSettingsINS_22BarcodeCaptureSettingsEE5cloneENSt3__110shared_ptrIS1_EE, symObjAddr: 0x24BC, symBinAddr: 0x1D624, symSize: 0x298 }
  - { offsetInCU: 0x3F7DD, offset: 0x22A8E8, size: 0x8, addend: 0x0, symName: '-[SDCBarcodeCaptureSettings typeErasedCppImpl]', symObjAddr: 0x236C, symBinAddr: 0x1D4D4, symSize: 0x24 }
  - { offsetInCU: 0x3F814, offset: 0x22A91F, size: 0x8, addend: 0x0, symName: '-[SDCBarcodeCaptureSettings typeErasedCppImpl]', symObjAddr: 0x236C, symBinAddr: 0x1D4D4, symSize: 0x24 }
  - { offsetInCU: 0x3F83D, offset: 0x22A948, size: 0x8, addend: 0x0, symName: '-[SDCBarcodeCaptureSettings typeErasedCppImpl]', symObjAddr: 0x236C, symBinAddr: 0x1D4D4, symSize: 0x24 }
  - { offsetInCU: 0x3F933, offset: 0x22AA3E, size: 0x8, addend: 0x0, symName: '-[SDCBarcodeCaptureSettings .cxx_destruct]', symObjAddr: 0x2390, symBinAddr: 0x1D4F8, symSize: 0xE4 }
  - { offsetInCU: 0x3FC49, offset: 0x22AD54, size: 0x8, addend: 0x0, symName: '-[SDCBarcodeCaptureSettings .cxx_construct]', symObjAddr: 0x2474, symBinAddr: 0x1D5DC, symSize: 0x48 }
  - { offsetInCU: 0x3FE4E, offset: 0x22AF59, size: 0x8, addend: 0x0, symName: __ZNSt3__120__shared_ptr_emplaceIN3sdc22BarcodeCaptureSettingsENS_9allocatorIS2_EEEC1B8ue170006IJRKNS_10shared_ptrINS1_4core22BarcodeScannerSettingsEEEEEES4_DpOT_, symObjAddr: 0x27BC, symBinAddr: 0x1D924, symSize: 0xE4 }
  - { offsetInCU: 0x400B5, offset: 0x22B1C0, size: 0x8, addend: 0x0, symName: __ZNSt3__110shared_ptrIN3sdc4core22BarcodeScannerSettingsEED1B8ue170006Ev, symObjAddr: 0x2754, symBinAddr: 0x1D8BC, symSize: 0x68 }
  - { offsetInCU: 0x40195, offset: 0x22B2A0, size: 0x8, addend: 0x0, symName: __ZNSt3__120__shared_ptr_emplaceIN3sdc22BarcodeCaptureSettingsENS_9allocatorIS2_EEEC1B8ue170006IJRKNS_10shared_ptrINS1_4core22BarcodeScannerSettingsEEEEEES4_DpOT_.cold.1, symObjAddr: 0x10E5C, symBinAddr: 0x2719E8, symSize: 0x30 }
  - { offsetInCU: 0x4025B, offset: 0x22B366, size: 0x8, addend: 0x0, symName: __ZNSt3__120__shared_ptr_emplaceIN3sdc22BarcodeCaptureSettingsENS_9allocatorIS2_EEED1Ev, symObjAddr: 0x28C8, symBinAddr: 0x1DA08, symSize: 0x10 }
  - { offsetInCU: 0x4027E, offset: 0x22B389, size: 0x8, addend: 0x0, symName: __ZNSt3__120__shared_ptr_emplaceIN3sdc22BarcodeCaptureSettingsENS_9allocatorIS2_EEED1Ev, symObjAddr: 0x28C8, symBinAddr: 0x1DA08, symSize: 0x10 }
  - { offsetInCU: 0x402B8, offset: 0x22B3C3, size: 0x8, addend: 0x0, symName: __ZNSt3__120__shared_ptr_emplaceIN3sdc22BarcodeCaptureSettingsENS_9allocatorIS2_EEED0Ev, symObjAddr: 0x28D8, symBinAddr: 0x1DA18, symSize: 0x20 }
  - { offsetInCU: 0x40370, offset: 0x22B47B, size: 0x8, addend: 0x0, symName: __ZNSt3__120__shared_ptr_emplaceIN3sdc22BarcodeCaptureSettingsENS_9allocatorIS2_EEE16__on_zero_sharedEv, symObjAddr: 0x28F8, symBinAddr: 0x1DA38, symSize: 0xA8 }
  - { offsetInCU: 0x4051A, offset: 0x22B625, size: 0x8, addend: 0x0, symName: __ZNSt3__120__shared_ptr_emplaceIN3sdc22BarcodeCaptureSettingsENS_9allocatorIS2_EEE21__on_zero_shared_weakEv, symObjAddr: 0x29A0, symBinAddr: 0x1DAE0, symSize: 0x4 }
  - { offsetInCU: 0x4054E, offset: 0x22B659, size: 0x8, addend: 0x0, symName: __ZNSt3__120__shared_ptr_emplaceIN3sdc22BarcodeCaptureSettingsENS_9allocatorIS2_EEE21__on_zero_shared_weakEv, symObjAddr: 0x29A0, symBinAddr: 0x1DAE0, symSize: 0x4 }
  - { offsetInCU: 0x40573, offset: 0x22B67E, size: 0x8, addend: 0x0, symName: __ZNSt3__120__shared_ptr_emplaceIN3sdc22BarcodeCaptureSettingsENS_9allocatorIS2_EEE21__on_zero_shared_weakEv, symObjAddr: 0x29A0, symBinAddr: 0x1DAE0, symSize: 0x4 }
  - { offsetInCU: 0x40598, offset: 0x22B6A3, size: 0x8, addend: 0x0, symName: __ZNSt3__120__shared_ptr_emplaceIN3sdc22BarcodeCaptureSettingsENS_9allocatorIS2_EEE21__on_zero_shared_weakEv, symObjAddr: 0x29A0, symBinAddr: 0x1DAE0, symSize: 0x4 }
  - { offsetInCU: 0x405C8, offset: 0x22B6D3, size: 0x8, addend: 0x0, symName: __ZNSt3__120__shared_ptr_emplaceIN3sdc22BarcodeCaptureSettingsENS_9allocatorIS2_EEE21__on_zero_shared_weakEv, symObjAddr: 0x29A0, symBinAddr: 0x1DAE0, symSize: 0x4 }
  - { offsetInCU: 0x405F2, offset: 0x22B6FD, size: 0x8, addend: 0x0, symName: __ZNSt3__120__shared_ptr_emplaceIN3sdc22BarcodeCaptureSettingsENS_9allocatorIS2_EEE21__on_zero_shared_weakEv, symObjAddr: 0x29A0, symBinAddr: 0x1DAE0, symSize: 0x4 }
  - { offsetInCU: 0x4061F, offset: 0x22B72A, size: 0x8, addend: 0x0, symName: __ZN3sdc27BasicBarcodeCaptureSettingsINS_22BarcodeCaptureSettingsEE14setIntPropertyERKNSt3__112basic_stringIcNS3_11char_traitsIcEENS3_9allocatorIcEEEEi, symObjAddr: 0x29A4, symBinAddr: 0x1DAE4, symSize: 0x8 }
  - { offsetInCU: 0x40664, offset: 0x22B76F, size: 0x8, addend: 0x0, symName: __ZN3sdc27BasicBarcodeCaptureSettingsINS_22BarcodeCaptureSettingsEE14setIntPropertyERKNSt3__112basic_stringIcNS3_11char_traitsIcEENS3_9allocatorIcEEEEi, symObjAddr: 0x29A4, symBinAddr: 0x1DAE4, symSize: 0x8 }
  - { offsetInCU: 0x40682, offset: 0x22B78D, size: 0x8, addend: 0x0, symName: __ZN3sdc27BasicBarcodeCaptureSettingsINS_22BarcodeCaptureSettingsEE17setStringPropertyERKNSt3__112basic_stringIcNS3_11char_traitsIcEENS3_9allocatorIcEEEESB_, symObjAddr: 0x29AC, symBinAddr: 0x1DAEC, symSize: 0x8 }
  - { offsetInCU: 0x406C7, offset: 0x22B7D2, size: 0x8, addend: 0x0, symName: __ZN3sdc27BasicBarcodeCaptureSettingsINS_22BarcodeCaptureSettingsEE17setStringPropertyERKNSt3__112basic_stringIcNS3_11char_traitsIcEENS3_9allocatorIcEEEESB_, symObjAddr: 0x29AC, symBinAddr: 0x1DAEC, symSize: 0x8 }
  - { offsetInCU: 0x406E5, offset: 0x22B7F0, size: 0x8, addend: 0x0, symName: __ZN3sdc27BasicBarcodeCaptureSettingsINS_22BarcodeCaptureSettingsEE15setBoolPropertyERKNSt3__112basic_stringIcNS3_11char_traitsIcEENS3_9allocatorIcEEEEb, symObjAddr: 0x29B4, symBinAddr: 0x1DAF4, symSize: 0x8 }
  - { offsetInCU: 0x4072F, offset: 0x22B83A, size: 0x8, addend: 0x0, symName: __ZN3sdc27BasicBarcodeCaptureSettingsINS_22BarcodeCaptureSettingsEE15setBoolPropertyERKNSt3__112basic_stringIcNS3_11char_traitsIcEENS3_9allocatorIcEEEEb, symObjAddr: 0x29B4, symBinAddr: 0x1DAF4, symSize: 0x8 }
  - { offsetInCU: 0x4074D, offset: 0x22B858, size: 0x8, addend: 0x0, symName: __ZN3sdc27BasicBarcodeCaptureSettingsINS_22BarcodeCaptureSettingsEE16setFloatPropertyERKNSt3__112basic_stringIcNS3_11char_traitsIcEENS3_9allocatorIcEEEEf, symObjAddr: 0x29BC, symBinAddr: 0x1DAFC, symSize: 0x8 }
  - { offsetInCU: 0x40793, offset: 0x22B89E, size: 0x8, addend: 0x0, symName: __ZN3sdc27BasicBarcodeCaptureSettingsINS_22BarcodeCaptureSettingsEE16setFloatPropertyERKNSt3__112basic_stringIcNS3_11char_traitsIcEENS3_9allocatorIcEEEEf, symObjAddr: 0x29BC, symBinAddr: 0x1DAFC, symSize: 0x8 }
  - { offsetInCU: 0x407B1, offset: 0x22B8BC, size: 0x8, addend: 0x0, symName: __ZNK3sdc27BasicBarcodeCaptureSettingsINS_22BarcodeCaptureSettingsEE14getIntPropertyERKNSt3__112basic_stringIcNS3_11char_traitsIcEENS3_9allocatorIcEEEE, symObjAddr: 0x29C4, symBinAddr: 0x1DB04, symSize: 0x8 }
  - { offsetInCU: 0x407E8, offset: 0x22B8F3, size: 0x8, addend: 0x0, symName: __ZNK3sdc27BasicBarcodeCaptureSettingsINS_22BarcodeCaptureSettingsEE14getIntPropertyERKNSt3__112basic_stringIcNS3_11char_traitsIcEENS3_9allocatorIcEEEE, symObjAddr: 0x29C4, symBinAddr: 0x1DB04, symSize: 0x8 }
  - { offsetInCU: 0x40806, offset: 0x22B911, size: 0x8, addend: 0x0, symName: __ZNK3sdc27BasicBarcodeCaptureSettingsINS_22BarcodeCaptureSettingsEE17getStringPropertyERKNSt3__112basic_stringIcNS3_11char_traitsIcEENS3_9allocatorIcEEEE, symObjAddr: 0x29CC, symBinAddr: 0x1DB0C, symSize: 0x8 }
  - { offsetInCU: 0x4083D, offset: 0x22B948, size: 0x8, addend: 0x0, symName: __ZNK3sdc27BasicBarcodeCaptureSettingsINS_22BarcodeCaptureSettingsEE17getStringPropertyERKNSt3__112basic_stringIcNS3_11char_traitsIcEENS3_9allocatorIcEEEE, symObjAddr: 0x29CC, symBinAddr: 0x1DB0C, symSize: 0x8 }
  - { offsetInCU: 0x4085B, offset: 0x22B966, size: 0x8, addend: 0x0, symName: __ZNK3sdc27BasicBarcodeCaptureSettingsINS_22BarcodeCaptureSettingsEE15getBoolPropertyERKNSt3__112basic_stringIcNS3_11char_traitsIcEENS3_9allocatorIcEEEE, symObjAddr: 0x29D4, symBinAddr: 0x1DB14, symSize: 0x8 }
  - { offsetInCU: 0x40892, offset: 0x22B99D, size: 0x8, addend: 0x0, symName: __ZNK3sdc27BasicBarcodeCaptureSettingsINS_22BarcodeCaptureSettingsEE15getBoolPropertyERKNSt3__112basic_stringIcNS3_11char_traitsIcEENS3_9allocatorIcEEEE, symObjAddr: 0x29D4, symBinAddr: 0x1DB14, symSize: 0x8 }
  - { offsetInCU: 0x408B0, offset: 0x22B9BB, size: 0x8, addend: 0x0, symName: __ZNK3sdc27BasicBarcodeCaptureSettingsINS_22BarcodeCaptureSettingsEE16getFloatPropertyERKNSt3__112basic_stringIcNS3_11char_traitsIcEENS3_9allocatorIcEEEE, symObjAddr: 0x29DC, symBinAddr: 0x1DB1C, symSize: 0x8 }
  - { offsetInCU: 0x408E7, offset: 0x22B9F2, size: 0x8, addend: 0x0, symName: __ZNK3sdc27BasicBarcodeCaptureSettingsINS_22BarcodeCaptureSettingsEE16getFloatPropertyERKNSt3__112basic_stringIcNS3_11char_traitsIcEENS3_9allocatorIcEEEE, symObjAddr: 0x29DC, symBinAddr: 0x1DB1C, symSize: 0x8 }
  - { offsetInCU: 0x40905, offset: 0x22BA10, size: 0x8, addend: 0x0, symName: __ZN3sdc27BasicBarcodeCaptureSettingsINS_22BarcodeCaptureSettingsEED1Ev, symObjAddr: 0x29E4, symBinAddr: 0x1DB24, symSize: 0xB8 }
  - { offsetInCU: 0x40A82, offset: 0x22BB8D, size: 0x8, addend: 0x0, symName: __ZN3sdc27BasicBarcodeCaptureSettingsINS_22BarcodeCaptureSettingsEED0Ev, symObjAddr: 0x2A9C, symBinAddr: 0x1DBDC, symSize: 0xB8 }
  - { offsetInCU: 0x4124F, offset: 0x22C35A, size: 0x8, addend: 0x0, symName: __ZNK3sdc27BasicBarcodeCaptureSettingsINS_22BarcodeCaptureSettingsEE6asJsonEb, symObjAddr: 0x2B54, symBinAddr: 0x1DC94, symSize: 0x2D4 }
  - { offsetInCU: 0x42610, offset: 0x22D71B, size: 0x8, addend: 0x0, symName: __ZN8nlohmann16json_abi_v3_11_310basic_jsonINSt3__13mapENS2_6vectorENS2_12basic_stringIcNS2_11char_traitsIcEENS2_9allocatorIcEEEEbxydS8_NS0_14adl_serializerENS4_IhNS8_IhEEEEvE5parseIRSA_EESE_OT_NS2_8functionIFbiNS0_6detail13parse_event_tERSE_EEEbb, symObjAddr: 0x2E28, symBinAddr: 0x1DF68, symSize: 0x294 }
  - { offsetInCU: 0x430D1, offset: 0x22E1DC, size: 0x8, addend: 0x0, symName: __ZN8nlohmann16json_abi_v3_11_310basic_jsonINSt3__13mapENS2_6vectorENS2_12basic_stringIcNS2_11char_traitsIcEENS2_9allocatorIcEEEEbxydS8_NS0_14adl_serializerENS4_IhNS8_IhEEEEvEixIKcEERSE_PT_, symObjAddr: 0x31E0, symBinAddr: 0x1E320, symSize: 0x164 }
  - { offsetInCU: 0x44635, offset: 0x22F740, size: 0x8, addend: 0x0, symName: __ZNK8nlohmann16json_abi_v3_11_310basic_jsonINSt3__13mapENS2_6vectorENS2_12basic_stringIcNS2_11char_traitsIcEENS2_9allocatorIcEEEEbxydS8_NS0_14adl_serializerENS4_IhNS8_IhEEEEvE4dumpEicbNS0_6detail15error_handler_tE, symObjAddr: 0x3370, symBinAddr: 0x1E484, symSize: 0x2DC }
  - { offsetInCU: 0x45712, offset: 0x23081D, size: 0x8, addend: 0x0, symName: __ZN8nlohmann16json_abi_v3_11_36detail6parserINS0_10basic_jsonINSt3__13mapENS4_6vectorENS4_12basic_stringIcNS4_11char_traitsIcEENS4_9allocatorIcEEEEbxydSA_NS0_14adl_serializerENS6_IhNSA_IhEEEEvEENS1_22iterator_input_adapterINS4_11__wrap_iterIPKcEEEEEC2EOSM_NS4_8functionIFbiNS1_13parse_event_tERSG_EEEbb, symObjAddr: 0x3E54, symBinAddr: 0x1EF5C, symSize: 0x134 }
  - { offsetInCU: 0x45971, offset: 0x230A7C, size: 0x8, addend: 0x0, symName: __ZN8nlohmann16json_abi_v3_11_36detail6parserINS0_10basic_jsonINSt3__13mapENS4_6vectorENS4_12basic_stringIcNS4_11char_traitsIcEENS4_9allocatorIcEEEEbxydSA_NS0_14adl_serializerENS6_IhNSA_IhEEEEvEENS1_22iterator_input_adapterINS4_11__wrap_iterIPKcEEEEE5parseEbRSG_, symObjAddr: 0x364C, symBinAddr: 0x1E760, symSize: 0x68C }
  - { offsetInCU: 0x47B61, offset: 0x232C6C, size: 0x8, addend: 0x0, symName: __ZN8nlohmann16json_abi_v3_11_36detail6parserINS0_10basic_jsonINSt3__13mapENS4_6vectorENS4_12basic_stringIcNS4_11char_traitsIcEENS4_9allocatorIcEEEEbxydSA_NS0_14adl_serializerENS6_IhNSA_IhEEEEvEENS1_22iterator_input_adapterINS4_11__wrap_iterIPKcEEEEED1Ev, symObjAddr: 0x3CD8, symBinAddr: 0x1EDEC, symSize: 0x78 }
  - { offsetInCU: 0x48C9D, offset: 0x233DA8, size: 0x8, addend: 0x0, symName: __ZN8nlohmann16json_abi_v3_11_36detail10serializerINS0_10basic_jsonINSt3__13mapENS4_6vectorENS4_12basic_stringIcNS4_11char_traitsIcEENS4_9allocatorIcEEEEbxydSA_NS0_14adl_serializerENS6_IhNSA_IhEEEEvEEE4dumpERKSG_bbjj, symObjAddr: 0xDDBC, symBinAddr: 0x278E4, symSize: 0x1034 }
  - { offsetInCU: 0x4ACCF, offset: 0x235DDA, size: 0x8, addend: 0x0, symName: __ZN8nlohmann16json_abi_v3_11_36detail10serializerINS0_10basic_jsonINSt3__13mapENS4_6vectorENS4_12basic_stringIcNS4_11char_traitsIcEENS4_9allocatorIcEEEEbxydSA_NS0_14adl_serializerENS6_IhNSA_IhEEEEvEEED1Ev, symObjAddr: 0xEDF0, symBinAddr: 0x28918, symSize: 0x80 }
  - { offsetInCU: 0x4AED6, offset: 0x235FE1, size: 0x8, addend: 0x0, symName: __ZNK8nlohmann16json_abi_v3_11_310basic_jsonINSt3__13mapENS2_6vectorENS2_12basic_stringIcNS2_11char_traitsIcEENS2_9allocatorIcEEEEbxydS8_NS0_14adl_serializerENS4_IhNS8_IhEEEEvE4dumpEicbNS0_6detail15error_handler_tE.cold.1, symObjAddr: 0x10E8C, symBinAddr: 0x271A18, symSize: 0x2C }
  - { offsetInCU: 0x4AF75, offset: 0x236080, size: 0x8, addend: 0x0, symName: __ZNSt3__110shared_ptrIN8nlohmann16json_abi_v3_11_36detail23output_adapter_protocolIcEEED1B8ue170006Ev, symObjAddr: 0xDCEC, symBinAddr: 0x27814, symSize: 0x68 }
  - { offsetInCU: 0x4B014, offset: 0x23611F, size: 0x8, addend: 0x0, symName: __ZN8nlohmann16json_abi_v3_11_36detail14output_adapterIcNSt3__112basic_stringIcNS3_11char_traitsIcEENS3_9allocatorIcEEEEED1Ev, symObjAddr: 0xDD54, symBinAddr: 0x2787C, symSize: 0x68 }
  - { offsetInCU: 0x4B61C, offset: 0x236727, size: 0x8, addend: 0x0, symName: __ZN8nlohmann16json_abi_v3_11_36detail6parserINS0_10basic_jsonINSt3__13mapENS4_6vectorENS4_12basic_stringIcNS4_11char_traitsIcEENS4_9allocatorIcEEEEbxydSA_NS0_14adl_serializerENS6_IhNSA_IhEEEEvEENS1_22iterator_input_adapterINS4_11__wrap_iterIPKcEEEEE18sax_parse_internalINS1_19json_sax_dom_parserISG_EEEEbPT_, symObjAddr: 0x719C, symBinAddr: 0x22230, symSize: 0xCE8 }
  - { offsetInCU: 0x4D7F7, offset: 0x238902, size: 0x8, addend: 0x0, symName: __ZN8nlohmann16json_abi_v3_11_36detail5lexerINS0_10basic_jsonINSt3__13mapENS4_6vectorENS4_12basic_stringIcNS4_11char_traitsIcEENS4_9allocatorIcEEEEbxydSA_NS0_14adl_serializerENS6_IhNSA_IhEEEEvEENS1_22iterator_input_adapterINS4_11__wrap_iterIPKcEEEEE4scanEv, symObjAddr: 0x3FD4, symBinAddr: 0x1F0DC, symSize: 0x28C }
  - { offsetInCU: 0x4DB5D, offset: 0x238C68, size: 0x8, addend: 0x0, symName: __ZN8nlohmann16json_abi_v3_11_36detail28json_sax_dom_callback_parserINS0_10basic_jsonINSt3__13mapENS4_6vectorENS4_12basic_stringIcNS4_11char_traitsIcEENS4_9allocatorIcEEEEbxydSA_NS0_14adl_serializerENS6_IhNSA_IhEEEEvEEEC2ERSG_NS4_8functionIFbiNS1_13parse_event_tESI_EEEb, symObjAddr: 0x7E84, symBinAddr: 0x22F18, symSize: 0x1C4 }
  - { offsetInCU: 0x4E1F9, offset: 0x239304, size: 0x8, addend: 0x0, symName: __ZN8nlohmann16json_abi_v3_11_36detail6parserINS0_10basic_jsonINSt3__13mapENS4_6vectorENS4_12basic_stringIcNS4_11char_traitsIcEENS4_9allocatorIcEEEEbxydSA_NS0_14adl_serializerENS6_IhNSA_IhEEEEvEENS1_22iterator_input_adapterINS4_11__wrap_iterIPKcEEEEE18sax_parse_internalINS1_28json_sax_dom_callback_parserISG_EEEEbPT_, symObjAddr: 0x5D84, symBinAddr: 0x20E18, symSize: 0xCD8 }
  - { offsetInCU: 0x50359, offset: 0x23B464, size: 0x8, addend: 0x0, symName: __ZN8nlohmann16json_abi_v3_11_36detail6parserINS0_10basic_jsonINSt3__13mapENS4_6vectorENS4_12basic_stringIcNS4_11char_traitsIcEENS4_9allocatorIcEEEEbxydSA_NS0_14adl_serializerENS6_IhNSA_IhEEEEvEENS1_22iterator_input_adapterINS4_11__wrap_iterIPKcEEEEE17exception_messageENS1_10lexer_baseISG_E10token_typeERKSC_, symObjAddr: 0x6DA0, symBinAddr: 0x21E34, symSize: 0x3CC }
  - { offsetInCU: 0x51604, offset: 0x23C70F, size: 0x8, addend: 0x0, symName: __ZN8nlohmann16json_abi_v3_11_36detail11parse_error6createIDnLi0EEES2_iRKNS1_10position_tERKNSt3__112basic_stringIcNS7_11char_traitsIcEENS7_9allocatorIcEEEET_, symObjAddr: 0x6B40, symBinAddr: 0x21BD4, symSize: 0x260 }
  - { offsetInCU: 0x52707, offset: 0x23D812, size: 0x8, addend: 0x0, symName: __ZN8nlohmann16json_abi_v3_11_36detail28json_sax_dom_callback_parserINS0_10basic_jsonINSt3__13mapENS4_6vectorENS4_12basic_stringIcNS4_11char_traitsIcEENS4_9allocatorIcEEEEbxydSA_NS0_14adl_serializerENS6_IhNSA_IhEEEEvEEED2Ev, symObjAddr: 0xC47C, symBinAddr: 0x2611C, symSize: 0x88 }
  - { offsetInCU: 0x530E9, offset: 0x23E1F4, size: 0x8, addend: 0x0, symName: __ZN8nlohmann16json_abi_v3_11_310basic_jsonINSt3__13mapENS2_6vectorENS2_12basic_stringIcNS2_11char_traitsIcEENS2_9allocatorIcEEEEbxydS8_NS0_14adl_serializerENS4_IhNS8_IhEEEEvE10json_valueC2ENS0_6detail7value_tE, symObjAddr: 0x3D5C, symBinAddr: 0x1EE64, symSize: 0xF8 }
  - { offsetInCU: 0x53707, offset: 0x23E812, size: 0x8, addend: 0x0, symName: __ZN8nlohmann16json_abi_v3_11_36detail5lexerINS0_10basic_jsonINSt3__13mapENS4_6vectorENS4_12basic_stringIcNS4_11char_traitsIcEENS4_9allocatorIcEEEEbxydSA_NS0_14adl_serializerENS6_IhNSA_IhEEEEvEENS1_22iterator_input_adapterINS4_11__wrap_iterIPKcEEEEED1Ev, symObjAddr: 0x3F88, symBinAddr: 0x1F090, symSize: 0x4C }
  - { offsetInCU: 0x53A6A, offset: 0x23EB75, size: 0x8, addend: 0x0, symName: __ZN8nlohmann16json_abi_v3_11_36detail5lexerINS0_10basic_jsonINSt3__13mapENS4_6vectorENS4_12basic_stringIcNS4_11char_traitsIcEENS4_9allocatorIcEEEEbxydSA_NS0_14adl_serializerENS6_IhNSA_IhEEEEvEENS1_22iterator_input_adapterINS4_11__wrap_iterIPKcEEEEE3getEv, symObjAddr: 0x5918, symBinAddr: 0x20A20, symSize: 0x238 }
  - { offsetInCU: 0x53F99, offset: 0x23F0A4, size: 0x8, addend: 0x0, symName: __ZNKSt3__16vectorIcNS_9allocatorIcEEE20__throw_length_errorB8ue170006Ev, symObjAddr: 0x5B50, symBinAddr: 0x20C58, symSize: 0x14 }
  - { offsetInCU: 0x53FAD, offset: 0x23F0B8, size: 0x8, addend: 0x0, symName: __ZN8nlohmann16json_abi_v3_11_36detail5lexerINS0_10basic_jsonINSt3__13mapENS4_6vectorENS4_12basic_stringIcNS4_11char_traitsIcEENS4_9allocatorIcEEEEbxydSA_NS0_14adl_serializerENS6_IhNSA_IhEEEEvEENS1_22iterator_input_adapterINS4_11__wrap_iterIPKcEEEEE15skip_whitespaceEv, symObjAddr: 0x4260, symBinAddr: 0x1F368, symSize: 0x254 }
  - { offsetInCU: 0x5453D, offset: 0x23F648, size: 0x8, addend: 0x0, symName: __ZN8nlohmann16json_abi_v3_11_36detail5lexerINS0_10basic_jsonINSt3__13mapENS4_6vectorENS4_12basic_stringIcNS4_11char_traitsIcEENS4_9allocatorIcEEEEbxydSA_NS0_14adl_serializerENS6_IhNSA_IhEEEEvEENS1_22iterator_input_adapterINS4_11__wrap_iterIPKcEEEEE12scan_commentEv, symObjAddr: 0x44B4, symBinAddr: 0x1F5BC, symSize: 0x120 }
  - { offsetInCU: 0x54551, offset: 0x23F65C, size: 0x8, addend: 0x0, symName: __ZN8nlohmann16json_abi_v3_11_36detail5lexerINS0_10basic_jsonINSt3__13mapENS4_6vectorENS4_12basic_stringIcNS4_11char_traitsIcEENS4_9allocatorIcEEEEbxydSA_NS0_14adl_serializerENS6_IhNSA_IhEEEEvEENS1_22iterator_input_adapterINS4_11__wrap_iterIPKcEEEEE12scan_commentEv, symObjAddr: 0x44B4, symBinAddr: 0x1F5BC, symSize: 0x120 }
  - { offsetInCU: 0x54669, offset: 0x23F774, size: 0x8, addend: 0x0, symName: __ZN8nlohmann16json_abi_v3_11_36detail5lexerINS0_10basic_jsonINSt3__13mapENS4_6vectorENS4_12basic_stringIcNS4_11char_traitsIcEENS4_9allocatorIcEEEEbxydSA_NS0_14adl_serializerENS6_IhNSA_IhEEEEvEENS1_22iterator_input_adapterINS4_11__wrap_iterIPKcEEEEE11scan_numberEv, symObjAddr: 0x52F8, symBinAddr: 0x20400, symSize: 0x620 }
  - { offsetInCU: 0x55567, offset: 0x240672, size: 0x8, addend: 0x0, symName: __ZN8nlohmann16json_abi_v3_11_36detail5lexerINS0_10basic_jsonINSt3__13mapENS4_6vectorENS4_12basic_stringIcNS4_11char_traitsIcEENS4_9allocatorIcEEEEbxydSA_NS0_14adl_serializerENS6_IhNSA_IhEEEEvEENS1_22iterator_input_adapterINS4_11__wrap_iterIPKcEEEEE11scan_stringEv, symObjAddr: 0x45D4, symBinAddr: 0x1F6DC, symSize: 0xD24 }
  - { offsetInCU: 0x57287, offset: 0x242392, size: 0x8, addend: 0x0, symName: __ZNKSt3__16vectorIcNS_9allocatorIcEEE20__throw_length_errorB8ue170006Ev, symObjAddr: 0x5B50, symBinAddr: 0x20C58, symSize: 0x14 }
  - { offsetInCU: 0x57361, offset: 0x24246C, size: 0x8, addend: 0x0, symName: __ZN8nlohmann16json_abi_v3_11_36detail5lexerINS0_10basic_jsonINSt3__13mapENS4_6vectorENS4_12basic_stringIcNS4_11char_traitsIcEENS4_9allocatorIcEEEEbxydSA_NS0_14adl_serializerENS6_IhNSA_IhEEEEvEENS1_22iterator_input_adapterINS4_11__wrap_iterIPKcEEEEE13get_codepointEv, symObjAddr: 0x5BD8, symBinAddr: 0x20C6C, symSize: 0x1AC }
  - { offsetInCU: 0x57962, offset: 0x242A6D, size: 0x8, addend: 0x0, symName: __ZN8nlohmann16json_abi_v3_11_36detail28json_sax_dom_callback_parserINS0_10basic_jsonINSt3__13mapENS4_6vectorENS4_12basic_stringIcNS4_11char_traitsIcEENS4_9allocatorIcEEEEbxydSA_NS0_14adl_serializerENS6_IhNSA_IhEEEEvEEE12handle_valueIRbEENS4_4pairIbPSG_EEOT_b, symObjAddr: 0xB4B8, symBinAddr: 0x25158, symSize: 0x22C }
  - { offsetInCU: 0x581BF, offset: 0x2432CA, size: 0x8, addend: 0x0, symName: __ZN8nlohmann16json_abi_v3_11_36detail28json_sax_dom_callback_parserINS0_10basic_jsonINSt3__13mapENS4_6vectorENS4_12basic_stringIcNS4_11char_traitsIcEENS4_9allocatorIcEEEEbxydSA_NS0_14adl_serializerENS6_IhNSA_IhEEEEvEEE12handle_valueIRxEENS4_4pairIbPSG_EEOT_b, symObjAddr: 0xB908, symBinAddr: 0x255A8, symSize: 0x228 }
  - { offsetInCU: 0x58A26, offset: 0x243B31, size: 0x8, addend: 0x0, symName: __ZN8nlohmann16json_abi_v3_11_36detail28json_sax_dom_callback_parserINS0_10basic_jsonINSt3__13mapENS4_6vectorENS4_12basic_stringIcNS4_11char_traitsIcEENS4_9allocatorIcEEEEbxydSA_NS0_14adl_serializerENS6_IhNSA_IhEEEEvEEE12handle_valueIRSC_EENS4_4pairIbPSG_EEOT_b, symObjAddr: 0xBB30, symBinAddr: 0x257D0, symSize: 0x254 }
  - { offsetInCU: 0x592D6, offset: 0x2443E1, size: 0x8, addend: 0x0, symName: __ZN8nlohmann16json_abi_v3_11_36detail28json_sax_dom_callback_parserINS0_10basic_jsonINSt3__13mapENS4_6vectorENS4_12basic_stringIcNS4_11char_traitsIcEENS4_9allocatorIcEEEEbxydSA_NS0_14adl_serializerENS6_IhNSA_IhEEEEvEEE12start_objectEm, symObjAddr: 0x816C, symBinAddr: 0x23200, symSize: 0x258 }
  - { offsetInCU: 0x59925, offset: 0x244A30, size: 0x8, addend: 0x0, symName: __ZN8nlohmann16json_abi_v3_11_36detail28json_sax_dom_callback_parserINS0_10basic_jsonINSt3__13mapENS4_6vectorENS4_12basic_stringIcNS4_11char_traitsIcEENS4_9allocatorIcEEEEbxydSA_NS0_14adl_serializerENS6_IhNSA_IhEEEEvEEE10end_objectEv, symObjAddr: 0x83C4, symBinAddr: 0x23458, symSize: 0x1F0 }
  - { offsetInCU: 0x59931, offset: 0x244A3C, size: 0x8, addend: 0x0, symName: __ZN8nlohmann16json_abi_v3_11_36detail28json_sax_dom_callback_parserINS0_10basic_jsonINSt3__13mapENS4_6vectorENS4_12basic_stringIcNS4_11char_traitsIcEENS4_9allocatorIcEEEEbxydSA_NS0_14adl_serializerENS6_IhNSA_IhEEEEvEEE10end_objectEv, symObjAddr: 0x83C4, symBinAddr: 0x23458, symSize: 0x1F0 }
  - { offsetInCU: 0x59EC3, offset: 0x244FCE, size: 0x8, addend: 0x0, symName: __ZN8nlohmann16json_abi_v3_11_36detail28json_sax_dom_callback_parserINS0_10basic_jsonINSt3__13mapENS4_6vectorENS4_12basic_stringIcNS4_11char_traitsIcEENS4_9allocatorIcEEEEbxydSA_NS0_14adl_serializerENS6_IhNSA_IhEEEEvEEE12handle_valueIDnEENS4_4pairIbPSG_EEOT_b, symObjAddr: 0xB6E4, symBinAddr: 0x25384, symSize: 0x224 }
  - { offsetInCU: 0x5A707, offset: 0x245812, size: 0x8, addend: 0x0, symName: __ZNK8nlohmann16json_abi_v3_11_36detail5lexerINS0_10basic_jsonINSt3__13mapENS4_6vectorENS4_12basic_stringIcNS4_11char_traitsIcEENS4_9allocatorIcEEEEbxydSA_NS0_14adl_serializerENS6_IhNSA_IhEEEEvEENS1_22iterator_input_adapterINS4_11__wrap_iterIPKcEEEEE16get_token_stringEv, symObjAddr: 0x6A5C, symBinAddr: 0x21AF0, symSize: 0xE4 }
  - { offsetInCU: 0x5A966, offset: 0x245A71, size: 0x8, addend: 0x0, symName: __ZN8nlohmann16json_abi_v3_11_36detail28json_sax_dom_callback_parserINS0_10basic_jsonINSt3__13mapENS4_6vectorENS4_12basic_stringIcNS4_11char_traitsIcEENS4_9allocatorIcEEEEbxydSA_NS0_14adl_serializerENS6_IhNSA_IhEEEEvEEE12handle_valueIRyEENS4_4pairIbPSG_EEOT_b, symObjAddr: 0xBD84, symBinAddr: 0x25A24, symSize: 0x22C }
  - { offsetInCU: 0x5B1CD, offset: 0x2462D8, size: 0x8, addend: 0x0, symName: __ZN8nlohmann16json_abi_v3_11_36detail28json_sax_dom_callback_parserINS0_10basic_jsonINSt3__13mapENS4_6vectorENS4_12basic_stringIcNS4_11char_traitsIcEENS4_9allocatorIcEEEEbxydSA_NS0_14adl_serializerENS6_IhNSA_IhEEEEvEEE11start_arrayEm, symObjAddr: 0x87BC, symBinAddr: 0x23850, symSize: 0x25C }
  - { offsetInCU: 0x5B81C, offset: 0x246927, size: 0x8, addend: 0x0, symName: __ZN8nlohmann16json_abi_v3_11_36detail28json_sax_dom_callback_parserINS0_10basic_jsonINSt3__13mapENS4_6vectorENS4_12basic_stringIcNS4_11char_traitsIcEENS4_9allocatorIcEEEEbxydSA_NS0_14adl_serializerENS6_IhNSA_IhEEEEvEEE9end_arrayEv, symObjAddr: 0x8A18, symBinAddr: 0x23AAC, symSize: 0x180 }
  - { offsetInCU: 0x5B828, offset: 0x246933, size: 0x8, addend: 0x0, symName: __ZN8nlohmann16json_abi_v3_11_36detail28json_sax_dom_callback_parserINS0_10basic_jsonINSt3__13mapENS4_6vectorENS4_12basic_stringIcNS4_11char_traitsIcEENS4_9allocatorIcEEEEbxydSA_NS0_14adl_serializerENS6_IhNSA_IhEEEEvEEE9end_arrayEv, symObjAddr: 0x8A18, symBinAddr: 0x23AAC, symSize: 0x180 }
  - { offsetInCU: 0x5BCC5, offset: 0x246DD0, size: 0x8, addend: 0x0, symName: __ZN8nlohmann16json_abi_v3_11_36detail28json_sax_dom_callback_parserINS0_10basic_jsonINSt3__13mapENS4_6vectorENS4_12basic_stringIcNS4_11char_traitsIcEENS4_9allocatorIcEEEEbxydSA_NS0_14adl_serializerENS6_IhNSA_IhEEEEvEEE12handle_valueIRdEENS4_4pairIbPSG_EEOT_b, symObjAddr: 0xB288, symBinAddr: 0x24F28, symSize: 0x230 }
  - { offsetInCU: 0x5C53E, offset: 0x247649, size: 0x8, addend: 0x0, symName: __ZN8nlohmann16json_abi_v3_11_36detail28json_sax_dom_callback_parserINS0_10basic_jsonINSt3__13mapENS4_6vectorENS4_12basic_stringIcNS4_11char_traitsIcEENS4_9allocatorIcEEEEbxydSA_NS0_14adl_serializerENS6_IhNSA_IhEEEEvEEE3keyERSC_, symObjAddr: 0x85B4, symBinAddr: 0x23648, symSize: 0x208 }
  - { offsetInCU: 0x5CAF5, offset: 0x247C00, size: 0x8, addend: 0x0, symName: __ZNSt3__16vectorIbNS_9allocatorIbEEE7reserveEm, symObjAddr: 0x8048, symBinAddr: 0x230DC, symSize: 0x110 }
  - { offsetInCU: 0x5CF04, offset: 0x24800F, size: 0x8, addend: 0x0, symName: __ZNKSt3__16vectorIbNS_9allocatorIbEEE20__throw_length_errorB8ue170006Ev, symObjAddr: 0x8158, symBinAddr: 0x231EC, symSize: 0x14 }
  - { offsetInCU: 0x5CF18, offset: 0x248023, size: 0x8, addend: 0x0, symName: __ZN8nlohmann16json_abi_v3_11_36detail12out_of_range6createIDnLi0EEES2_iRKNSt3__112basic_stringIcNS4_11char_traitsIcEENS4_9allocatorIcEEEET_, symObjAddr: 0x8B98, symBinAddr: 0x23C2C, symSize: 0x1E8 }
  - { offsetInCU: 0x5DDB9, offset: 0x248EC4, size: 0x8, addend: 0x0, symName: __ZNKSt3__16vectorIbNS_9allocatorIbEEE20__throw_length_errorB8ue170006Ev, symObjAddr: 0x8158, symBinAddr: 0x231EC, symSize: 0x14 }
  - { offsetInCU: 0x5DDE2, offset: 0x248EED, size: 0x8, addend: 0x0, symName: __ZN8nlohmann16json_abi_v3_11_36detail28json_sax_dom_callback_parserINS0_10basic_jsonINSt3__13mapENS4_6vectorENS4_12basic_stringIcNS4_11char_traitsIcEENS4_9allocatorIcEEEEbxydSA_NS0_14adl_serializerENS6_IhNSA_IhEEEEvEEE12start_objectEm, symObjAddr: 0x816C, symBinAddr: 0x23200, symSize: 0x258 }
  - { offsetInCU: 0x5DEF8, offset: 0x249003, size: 0x8, addend: 0x0, symName: __ZN8nlohmann16json_abi_v3_11_36detail11parse_error15position_stringERKNS1_10position_tE, symObjAddr: 0xC140, symBinAddr: 0x25DE0, symSize: 0x11C }
  - { offsetInCU: 0x5E50C, offset: 0x249617, size: 0x8, addend: 0x0, symName: __ZN8nlohmann16json_abi_v3_11_36detail11parse_errorD1Ev, symObjAddr: 0x716C, symBinAddr: 0x22200, symSize: 0x30 }
  - { offsetInCU: 0x5E6D3, offset: 0x2497DE, size: 0x8, addend: 0x0, symName: __ZN8nlohmann16json_abi_v3_11_36detail19json_sax_dom_parserINS0_10basic_jsonINSt3__13mapENS4_6vectorENS4_12basic_stringIcNS4_11char_traitsIcEENS4_9allocatorIcEEEEbxydSA_NS0_14adl_serializerENS6_IhNSA_IhEEEEvEEE12handle_valueIRbEEPSG_OT_, symObjAddr: 0xCEB8, symBinAddr: 0x26B58, symSize: 0x13C }
  - { offsetInCU: 0x5ED3D, offset: 0x249E48, size: 0x8, addend: 0x0, symName: __ZN8nlohmann16json_abi_v3_11_36detail19json_sax_dom_parserINS0_10basic_jsonINSt3__13mapENS4_6vectorENS4_12basic_stringIcNS4_11char_traitsIcEENS4_9allocatorIcEEEEbxydSA_NS0_14adl_serializerENS6_IhNSA_IhEEEEvEEE12handle_valueIRxEEPSG_OT_, symObjAddr: 0xD358, symBinAddr: 0x26FF8, symSize: 0x13C }
  - { offsetInCU: 0x5F3B7, offset: 0x24A4C2, size: 0x8, addend: 0x0, symName: __ZN8nlohmann16json_abi_v3_11_36detail19json_sax_dom_parserINS0_10basic_jsonINSt3__13mapENS4_6vectorENS4_12basic_stringIcNS4_11char_traitsIcEENS4_9allocatorIcEEEEbxydSA_NS0_14adl_serializerENS6_IhNSA_IhEEEEvEEE12handle_valueIRSC_EEPSG_OT_, symObjAddr: 0xD5BC, symBinAddr: 0x2725C, symSize: 0x19C }
  - { offsetInCU: 0x5FBB3, offset: 0x24ACBE, size: 0x8, addend: 0x0, symName: __ZN8nlohmann16json_abi_v3_11_36detail19json_sax_dom_parserINS0_10basic_jsonINSt3__13mapENS4_6vectorENS4_12basic_stringIcNS4_11char_traitsIcEENS4_9allocatorIcEEEEbxydSA_NS0_14adl_serializerENS6_IhNSA_IhEEEEvEEE12start_objectEm, symObjAddr: 0xC504, symBinAddr: 0x261A4, symSize: 0x194 }
  - { offsetInCU: 0x6006F, offset: 0x24B17A, size: 0x8, addend: 0x0, symName: __ZN8nlohmann16json_abi_v3_11_36detail19json_sax_dom_parserINS0_10basic_jsonINSt3__13mapENS4_6vectorENS4_12basic_stringIcNS4_11char_traitsIcEENS4_9allocatorIcEEEEbxydSA_NS0_14adl_serializerENS6_IhNSA_IhEEEEvEEE11start_arrayEm, symObjAddr: 0xC698, symBinAddr: 0x26338, symSize: 0x194 }
  - { offsetInCU: 0x60092, offset: 0x24B19D, size: 0x8, addend: 0x0, symName: __ZNSt3__16__treeINS_12__value_typeINS_12basic_stringIcNS_11char_traitsIcEENS_9allocatorIcEEEEN8nlohmann16json_abi_v3_11_310basic_jsonINS_3mapENS_6vectorES7_bxydS5_NS9_14adl_serializerENSC_IhNS5_IhEEEEvEEEENS_19__map_value_compareIS7_SH_NS_4lessIvEELb1EEENS5_ISH_EEE25__emplace_unique_key_argsIS7_JRKNS_21piecewise_construct_tENS_5tupleIJRKS7_EEENSS_IJEEEEEENS_4pairINS_15__tree_iteratorISH_PNS_11__tree_nodeISH_PvEElEEbEERKT_DpOT0_, symObjAddr: 0xADD8, symBinAddr: 0x24A78, symSize: 0x1E8 }
  - { offsetInCU: 0x60BC5, offset: 0x24BCD0, size: 0x8, addend: 0x0, symName: __ZN8nlohmann16json_abi_v3_11_36detail19json_sax_dom_parserINS0_10basic_jsonINSt3__13mapENS4_6vectorENS4_12basic_stringIcNS4_11char_traitsIcEENS4_9allocatorIcEEEEbxydSA_NS0_14adl_serializerENS6_IhNSA_IhEEEEvEEE12handle_valueIDnEEPSG_OT_, symObjAddr: 0xD11C, symBinAddr: 0x26DBC, symSize: 0x120 }
  - { offsetInCU: 0x6128C, offset: 0x24C397, size: 0x8, addend: 0x0, symName: __ZN8nlohmann16json_abi_v3_11_36detail19json_sax_dom_parserINS0_10basic_jsonINSt3__13mapENS4_6vectorENS4_12basic_stringIcNS4_11char_traitsIcEENS4_9allocatorIcEEEEbxydSA_NS0_14adl_serializerENS6_IhNSA_IhEEEEvEEE12handle_valueIRyEEPSG_OT_, symObjAddr: 0xD910, symBinAddr: 0x275B0, symSize: 0x13C }
  - { offsetInCU: 0x61906, offset: 0x24CA11, size: 0x8, addend: 0x0, symName: __ZN8nlohmann16json_abi_v3_11_36detail19json_sax_dom_parserINS0_10basic_jsonINSt3__13mapENS4_6vectorENS4_12basic_stringIcNS4_11char_traitsIcEENS4_9allocatorIcEEEEbxydSA_NS0_14adl_serializerENS6_IhNSA_IhEEEEvEEE11start_arrayEm, symObjAddr: 0xC698, symBinAddr: 0x26338, symSize: 0x194 }
  - { offsetInCU: 0x61DC6, offset: 0x24CED1, size: 0x8, addend: 0x0, symName: __ZN8nlohmann16json_abi_v3_11_36detail19json_sax_dom_parserINS0_10basic_jsonINSt3__13mapENS4_6vectorENS4_12basic_stringIcNS4_11char_traitsIcEENS4_9allocatorIcEEEEbxydSA_NS0_14adl_serializerENS6_IhNSA_IhEEEEvEEE12handle_valueINS1_7value_tEEEPSG_OT_, symObjAddr: 0xC82C, symBinAddr: 0x264CC, symSize: 0x274 }
  - { offsetInCU: 0x61DD2, offset: 0x24CEDD, size: 0x8, addend: 0x0, symName: __ZN8nlohmann16json_abi_v3_11_36detail19json_sax_dom_parserINS0_10basic_jsonINSt3__13mapENS4_6vectorENS4_12basic_stringIcNS4_11char_traitsIcEENS4_9allocatorIcEEEEbxydSA_NS0_14adl_serializerENS6_IhNSA_IhEEEEvEEE12handle_valueIRdEEPSG_OT_, symObjAddr: 0xCC48, symBinAddr: 0x268E8, symSize: 0x144 }
  - { offsetInCU: 0x62B53, offset: 0x24DC5E, size: 0x8, addend: 0x0, symName: __ZN8nlohmann16json_abi_v3_11_36detail28json_sax_dom_callback_parserINS0_10basic_jsonINSt3__13mapENS4_6vectorENS4_12basic_stringIcNS4_11char_traitsIcEENS4_9allocatorIcEEEEbxydSA_NS0_14adl_serializerENS6_IhNSA_IhEEEEvEEE12handle_valueINS1_7value_tEEENS4_4pairIbPSG_EEOT_b, symObjAddr: 0x8E64, symBinAddr: 0x23EF8, symSize: 0x2C0 }
  - { offsetInCU: 0x638CA, offset: 0x24E9D5, size: 0x8, addend: 0x0, symName: __ZNKSt3__16vectorIPN8nlohmann16json_abi_v3_11_310basic_jsonINS_3mapES0_NS_12basic_stringIcNS_11char_traitsIcEENS_9allocatorIcEEEEbxydS8_NS2_14adl_serializerENS0_IhNS8_IhEEEEvEENS8_ISF_EEE20__throw_length_errorB8ue170006Ev, symObjAddr: 0x92F8, symBinAddr: 0x2432C, symSize: 0x14 }
  - { offsetInCU: 0x638F3, offset: 0x24E9FE, size: 0x8, addend: 0x0, symName: __ZN8nlohmann16json_abi_v3_11_310basic_jsonINSt3__13mapENS2_6vectorENS2_12basic_stringIcNS2_11char_traitsIcEENS2_9allocatorIcEEEEbxydS8_NS0_14adl_serializerENS4_IhNS8_IhEEEEvE5eraseINS0_6detail9iter_implISE_EELi0EEET_SJ_, symObjAddr: 0x930C, symBinAddr: 0x24340, symSize: 0x1C8 }
  - { offsetInCU: 0x6462E, offset: 0x24F739, size: 0x8, addend: 0x0, symName: __ZN8nlohmann16json_abi_v3_11_310basic_jsonINSt3__13mapENS2_6vectorENS2_12basic_stringIcNS2_11char_traitsIcEENS2_9allocatorIcEEEEbxydS8_NS0_14adl_serializerENS4_IhNS8_IhEEEEvE5eraseINS0_6detail9iter_implISE_EELi0EEET_SJ_, symObjAddr: 0x930C, symBinAddr: 0x24340, symSize: 0x1C8 }
  - { offsetInCU: 0x64F8A, offset: 0x250095, size: 0x8, addend: 0x0, symName: __ZN8nlohmann16json_abi_v3_11_36detail20external_constructorILNS1_7value_tE3EE9constructINS0_10basic_jsonINSt3__13mapENS7_6vectorENS7_12basic_stringIcNS7_11char_traitsIcEENS7_9allocatorIcEEEEbxydSD_NS0_14adl_serializerENS9_IhNSD_IhEEEEvEEEEvRT_RKNSK_8string_tE, symObjAddr: 0xACE4, symBinAddr: 0x24984, symSize: 0xF4 }
  - { offsetInCU: 0x65758, offset: 0x250863, size: 0x8, addend: 0x0, symName: __ZN8nlohmann16json_abi_v3_11_36detail12out_of_rangeD1Ev, symObjAddr: 0x8E34, symBinAddr: 0x23EC8, symSize: 0x30 }
  - { offsetInCU: 0x65A24, offset: 0x250B2F, size: 0x8, addend: 0x0, symName: __ZNSt3__16vectorIN8nlohmann16json_abi_v3_11_310basic_jsonINS_3mapES0_NS_12basic_stringIcNS_11char_traitsIcEENS_9allocatorIcEEEEbxydS8_NS2_14adl_serializerENS0_IhNS8_IhEEEEvEENS8_ISE_EEE24__emplace_back_slow_pathIJSE_EEEvDpOT_, symObjAddr: 0x9170, symBinAddr: 0x241B8, symSize: 0x120 }
  - { offsetInCU: 0x662E9, offset: 0x2513F4, size: 0x8, addend: 0x0, symName: __ZNKSt3__16vectorIPN8nlohmann16json_abi_v3_11_310basic_jsonINS_3mapES0_NS_12basic_stringIcNS_11char_traitsIcEENS_9allocatorIcEEEEbxydS8_NS2_14adl_serializerENS0_IhNS8_IhEEEEvEENS8_ISF_EEE20__throw_length_errorB8ue170006Ev, symObjAddr: 0x92F8, symBinAddr: 0x2432C, symSize: 0x14 }
  - { offsetInCU: 0x662F5, offset: 0x251400, size: 0x8, addend: 0x0, symName: __ZNSt3__114__split_bufferIN8nlohmann16json_abi_v3_11_310basic_jsonINS_3mapENS_6vectorENS_12basic_stringIcNS_11char_traitsIcEENS_9allocatorIcEEEEbxydS9_NS2_14adl_serializerENS5_IhNS9_IhEEEEvEERNS9_ISF_EEED1Ev, symObjAddr: 0x9290, symBinAddr: 0x242D8, symSize: 0x54 }
  - { offsetInCU: 0x668F2, offset: 0x2519FD, size: 0x8, addend: 0x0, symName: __ZNSt3__16__treeINS_12__value_typeINS_12basic_stringIcNS_11char_traitsIcEENS_9allocatorIcEEEEN8nlohmann16json_abi_v3_11_310basic_jsonINS_3mapENS_6vectorES7_bxydS5_NS9_14adl_serializerENSC_IhNS5_IhEEEEvEEEENS_19__map_value_compareIS7_SH_NS_4lessIvEELb1EEENS5_ISH_EEE5eraseENS_21__tree_const_iteratorISH_PNS_11__tree_nodeISH_PvEElEE, symObjAddr: 0xA868, symBinAddr: 0x24508, symSize: 0xB8 }
  - { offsetInCU: 0x6A4D3, offset: 0x2555DE, size: 0x8, addend: 0x0, symName: __ZN8nlohmann16json_abi_v3_11_36detail12out_of_rangeD0Ev, symObjAddr: 0xB1E8, symBinAddr: 0x24E88, symSize: 0x34 }
  - { offsetInCU: 0x6A55A, offset: 0x255665, size: 0x8, addend: 0x0, symName: __ZNK8nlohmann16json_abi_v3_11_36detail9exception4whatEv, symObjAddr: 0xB21C, symBinAddr: 0x24EBC, symSize: 0x8 }
  - { offsetInCU: 0x6A581, offset: 0x25568C, size: 0x8, addend: 0x0, symName: __ZN8nlohmann16json_abi_v3_11_36detail9exceptionD1Ev, symObjAddr: 0xB224, symBinAddr: 0x24EC4, symSize: 0x30 }
  - { offsetInCU: 0x6A5E0, offset: 0x2556EB, size: 0x8, addend: 0x0, symName: __ZN8nlohmann16json_abi_v3_11_36detail9exceptionD0Ev, symObjAddr: 0xB254, symBinAddr: 0x24EF4, symSize: 0x34 }
  - { offsetInCU: 0x6AAF9, offset: 0x255C04, size: 0x8, addend: 0x0, symName: __ZN8nlohmann16json_abi_v3_11_36detail11parse_errorD0Ev, symObjAddr: 0xC368, symBinAddr: 0x26008, symSize: 0x34 }
  - { offsetInCU: 0x6ACD4, offset: 0x255DDF, size: 0x8, addend: 0x0, symName: __ZN8nlohmann16json_abi_v3_11_36detail19json_sax_dom_parserINS0_10basic_jsonINSt3__13mapENS4_6vectorENS4_12basic_stringIcNS4_11char_traitsIcEENS4_9allocatorIcEEEEbxydSA_NS0_14adl_serializerENS6_IhNSA_IhEEEEvEEE12handle_valueINS1_7value_tEEEPSG_OT_, symObjAddr: 0xC82C, symBinAddr: 0x264CC, symSize: 0x274 }
  - { offsetInCU: 0x6BEE9, offset: 0x256FF4, size: 0x8, addend: 0x0, symName: __ZNSt3__16vectorIN8nlohmann16json_abi_v3_11_310basic_jsonINS_3mapES0_NS_12basic_stringIcNS_11char_traitsIcEENS_9allocatorIcEEEEbxydS8_NS2_14adl_serializerENS0_IhNS8_IhEEEEvEENS8_ISE_EEE24__emplace_back_slow_pathIJNS2_6detail7value_tEEEEvDpOT_, symObjAddr: 0xCAA0, symBinAddr: 0x26740, symSize: 0x1A8 }
  - { offsetInCU: 0x6C7A4, offset: 0x2578AF, size: 0x8, addend: 0x0, symName: __ZNSt3__16vectorIN8nlohmann16json_abi_v3_11_310basic_jsonINS_3mapES0_NS_12basic_stringIcNS_11char_traitsIcEENS_9allocatorIcEEEEbxydS8_NS2_14adl_serializerENS0_IhNS8_IhEEEEvEENS8_ISE_EEE24__emplace_back_slow_pathIJRdEEEvDpOT_, symObjAddr: 0xCD8C, symBinAddr: 0x26A2C, symSize: 0x12C }
  - { offsetInCU: 0x6CF4B, offset: 0x258056, size: 0x8, addend: 0x0, symName: __ZNSt3__16vectorIN8nlohmann16json_abi_v3_11_310basic_jsonINS_3mapES0_NS_12basic_stringIcNS_11char_traitsIcEENS_9allocatorIcEEEEbxydS8_NS2_14adl_serializerENS0_IhNS8_IhEEEEvEENS8_ISE_EEE24__emplace_back_slow_pathIJRbEEEvDpOT_, symObjAddr: 0xCFF4, symBinAddr: 0x26C94, symSize: 0x128 }
  - { offsetInCU: 0x6D6D0, offset: 0x2587DB, size: 0x8, addend: 0x0, symName: __ZNSt3__16vectorIN8nlohmann16json_abi_v3_11_310basic_jsonINS_3mapES0_NS_12basic_stringIcNS_11char_traitsIcEENS_9allocatorIcEEEEbxydS8_NS2_14adl_serializerENS0_IhNS8_IhEEEEvEENS8_ISE_EEE24__emplace_back_slow_pathIJDnEEEvDpOT_, symObjAddr: 0xD23C, symBinAddr: 0x26EDC, symSize: 0x11C }
  - { offsetInCU: 0x6DE4C, offset: 0x258F57, size: 0x8, addend: 0x0, symName: __ZNSt3__16vectorIN8nlohmann16json_abi_v3_11_310basic_jsonINS_3mapES0_NS_12basic_stringIcNS_11char_traitsIcEENS_9allocatorIcEEEEbxydS8_NS2_14adl_serializerENS0_IhNS8_IhEEEEvEENS8_ISE_EEE24__emplace_back_slow_pathIJRxEEEvDpOT_, symObjAddr: 0xD494, symBinAddr: 0x27134, symSize: 0x128 }
  - { offsetInCU: 0x6E5E1, offset: 0x2596EC, size: 0x8, addend: 0x0, symName: __ZNSt3__16vectorIN8nlohmann16json_abi_v3_11_310basic_jsonINS_3mapES0_NS_12basic_stringIcNS_11char_traitsIcEENS_9allocatorIcEEEEbxydS8_NS2_14adl_serializerENS0_IhNS8_IhEEEEvEENS8_ISE_EEE24__emplace_back_slow_pathIJRSA_EEEvDpOT_, symObjAddr: 0xD758, symBinAddr: 0x273F8, symSize: 0x1B8 }
  - { offsetInCU: 0x6EE8A, offset: 0x259F95, size: 0x8, addend: 0x0, symName: __ZNSt3__16vectorIN8nlohmann16json_abi_v3_11_310basic_jsonINS_3mapES0_NS_12basic_stringIcNS_11char_traitsIcEENS_9allocatorIcEEEEbxydS8_NS2_14adl_serializerENS0_IhNS8_IhEEEEvEENS8_ISE_EEE24__emplace_back_slow_pathIJRyEEEvDpOT_, symObjAddr: 0xDA4C, symBinAddr: 0x276EC, symSize: 0x128 }
  - { offsetInCU: 0x6FAE2, offset: 0x25ABED, size: 0x8, addend: 0x0, symName: __ZN8nlohmann16json_abi_v3_11_36detail10serializerINS0_10basic_jsonINSt3__13mapENS4_6vectorENS4_12basic_stringIcNS4_11char_traitsIcEENS4_9allocatorIcEEEEbxydSA_NS0_14adl_serializerENS6_IhNSA_IhEEEEvEEE12dump_escapedERKSC_b, symObjAddr: 0xEEC8, symBinAddr: 0x289F0, symSize: 0x370 }
  - { offsetInCU: 0x6FE51, offset: 0x25AF5C, size: 0x8, addend: 0x0, symName: __ZNSt3__120__shared_ptr_emplaceIN8nlohmann16json_abi_v3_11_36detail21output_string_adapterIcNS_12basic_stringIcNS_11char_traitsIcEENS_9allocatorIcEEEEEENS8_ISB_EEED1Ev, symObjAddr: 0xEE70, symBinAddr: 0x28998, symSize: 0x10 }
  - { offsetInCU: 0x6FE74, offset: 0x25AF7F, size: 0x8, addend: 0x0, symName: __ZNSt3__120__shared_ptr_emplaceIN8nlohmann16json_abi_v3_11_36detail21output_string_adapterIcNS_12basic_stringIcNS_11char_traitsIcEENS_9allocatorIcEEEEEENS8_ISB_EEED1Ev, symObjAddr: 0xEE70, symBinAddr: 0x28998, symSize: 0x10 }
  - { offsetInCU: 0x6FEAE, offset: 0x25AFB9, size: 0x8, addend: 0x0, symName: __ZNSt3__120__shared_ptr_emplaceIN8nlohmann16json_abi_v3_11_36detail21output_string_adapterIcNS_12basic_stringIcNS_11char_traitsIcEENS_9allocatorIcEEEEEENS8_ISB_EEED0Ev, symObjAddr: 0xEE80, symBinAddr: 0x289A8, symSize: 0x20 }
  - { offsetInCU: 0x6FF18, offset: 0x25B023, size: 0x8, addend: 0x0, symName: __ZNSt3__120__shared_ptr_emplaceIN8nlohmann16json_abi_v3_11_36detail21output_string_adapterIcNS_12basic_stringIcNS_11char_traitsIcEENS_9allocatorIcEEEEEENS8_ISB_EEE16__on_zero_sharedEv, symObjAddr: 0xEEA0, symBinAddr: 0x289C8, symSize: 0xC }
  - { offsetInCU: 0x6FFA8, offset: 0x25B0B3, size: 0x8, addend: 0x0, symName: __ZNSt3__120__shared_ptr_emplaceIN8nlohmann16json_abi_v3_11_36detail21output_string_adapterIcNS_12basic_stringIcNS_11char_traitsIcEENS_9allocatorIcEEEEEENS8_ISB_EEE21__on_zero_shared_weakEv, symObjAddr: 0xEEAC, symBinAddr: 0x289D4, symSize: 0x4 }
  - { offsetInCU: 0x6FFDC, offset: 0x25B0E7, size: 0x8, addend: 0x0, symName: __ZNSt3__120__shared_ptr_emplaceIN8nlohmann16json_abi_v3_11_36detail21output_string_adapterIcNS_12basic_stringIcNS_11char_traitsIcEENS_9allocatorIcEEEEEENS8_ISB_EEE21__on_zero_shared_weakEv, symObjAddr: 0xEEAC, symBinAddr: 0x289D4, symSize: 0x4 }
  - { offsetInCU: 0x70001, offset: 0x25B10C, size: 0x8, addend: 0x0, symName: __ZNSt3__120__shared_ptr_emplaceIN8nlohmann16json_abi_v3_11_36detail21output_string_adapterIcNS_12basic_stringIcNS_11char_traitsIcEENS_9allocatorIcEEEEEENS8_ISB_EEE21__on_zero_shared_weakEv, symObjAddr: 0xEEAC, symBinAddr: 0x289D4, symSize: 0x4 }
  - { offsetInCU: 0x70026, offset: 0x25B131, size: 0x8, addend: 0x0, symName: __ZNSt3__120__shared_ptr_emplaceIN8nlohmann16json_abi_v3_11_36detail21output_string_adapterIcNS_12basic_stringIcNS_11char_traitsIcEENS_9allocatorIcEEEEEENS8_ISB_EEE21__on_zero_shared_weakEv, symObjAddr: 0xEEAC, symBinAddr: 0x289D4, symSize: 0x4 }
  - { offsetInCU: 0x70056, offset: 0x25B161, size: 0x8, addend: 0x0, symName: __ZNSt3__120__shared_ptr_emplaceIN8nlohmann16json_abi_v3_11_36detail21output_string_adapterIcNS_12basic_stringIcNS_11char_traitsIcEENS_9allocatorIcEEEEEENS8_ISB_EEE21__on_zero_shared_weakEv, symObjAddr: 0xEEAC, symBinAddr: 0x289D4, symSize: 0x4 }
  - { offsetInCU: 0x70080, offset: 0x25B18B, size: 0x8, addend: 0x0, symName: __ZNSt3__120__shared_ptr_emplaceIN8nlohmann16json_abi_v3_11_36detail21output_string_adapterIcNS_12basic_stringIcNS_11char_traitsIcEENS_9allocatorIcEEEEEENS8_ISB_EEE21__on_zero_shared_weakEv, symObjAddr: 0xEEAC, symBinAddr: 0x289D4, symSize: 0x4 }
  - { offsetInCU: 0x700AD, offset: 0x25B1B8, size: 0x8, addend: 0x0, symName: __ZN8nlohmann16json_abi_v3_11_36detail21output_string_adapterIcNSt3__112basic_stringIcNS3_11char_traitsIcEENS3_9allocatorIcEEEEE15write_characterEc, symObjAddr: 0xEEB0, symBinAddr: 0x289D8, symSize: 0x8 }
  - { offsetInCU: 0x700E2, offset: 0x25B1ED, size: 0x8, addend: 0x0, symName: __ZN8nlohmann16json_abi_v3_11_36detail21output_string_adapterIcNSt3__112basic_stringIcNS3_11char_traitsIcEENS3_9allocatorIcEEEEE16write_charactersEPKcm, symObjAddr: 0xEEB8, symBinAddr: 0x289E0, symSize: 0x8 }
  - { offsetInCU: 0x70125, offset: 0x25B230, size: 0x8, addend: 0x0, symName: __ZN8nlohmann16json_abi_v3_11_36detail21output_string_adapterIcNSt3__112basic_stringIcNS3_11char_traitsIcEENS3_9allocatorIcEEEEED1Ev, symObjAddr: 0xEEC0, symBinAddr: 0x289E8, symSize: 0x4 }
  - { offsetInCU: 0x70150, offset: 0x25B25B, size: 0x8, addend: 0x0, symName: __ZN8nlohmann16json_abi_v3_11_36detail21output_string_adapterIcNSt3__112basic_stringIcNS3_11char_traitsIcEENS3_9allocatorIcEEEEED0Ev, symObjAddr: 0xEEC4, symBinAddr: 0x289EC, symSize: 0x4 }
  - { offsetInCU: 0x7064B, offset: 0x25B756, size: 0x8, addend: 0x0, symName: __ZZN6djinni18get_cpp_proxy_implI20SDCSymbologySettingsN3sdc4core17SymbologySettingsEEEPT_RKNSt3__110shared_ptrIT0_EEENUlRKNS8_IvEEE_8__invokeESF_, symObjAddr: 0xFEFC, symBinAddr: 0x297F4, symSize: 0xE0 }
  - { offsetInCU: 0x708FD, offset: 0x25BA08, size: 0x8, addend: 0x0, symName: __ZZN6djinni18get_cpp_proxy_implI20SDCSymbologySettingsN3sdc4core17SymbologySettingsEEEPT_RKNSt3__110shared_ptrIT0_EEENUlRKNS8_IvEEE_8__invokeESF_.cold.1, symObjAddr: 0x10EE8, symBinAddr: 0x271A44, symSize: 0x30 }
  - { offsetInCU: 0x70A70, offset: 0x25BB7B, size: 0x8, addend: 0x0, symName: __ZN3sdc4core8PropertyD2Ev, symObjAddr: 0x10180, symBinAddr: 0x29A78, symSize: 0xE8 }
  - { offsetInCU: 0x71572, offset: 0x25C67D, size: 0x8, addend: 0x0, symName: __ZN3sdc4core8PropertyC2ERKS1_, symObjAddr: 0x1042C, symBinAddr: 0x29D24, symSize: 0x290 }
  - { offsetInCU: 0x725DF, offset: 0x25D6EA, size: 0x8, addend: 0x0, symName: __ZNKSt3__16vectorIN3sdc4core8PropertyENS_9allocatorIS3_EEE20__throw_length_errorB8ue170006Ev, symObjAddr: 0x10418, symBinAddr: 0x29D10, symSize: 0x14 }
  - { offsetInCU: 0x72608, offset: 0x25D713, size: 0x8, addend: 0x0, symName: __ZN3sdc4core8PropertyC2ERKS1_, symObjAddr: 0x1042C, symBinAddr: 0x29D24, symSize: 0x290 }
  - { offsetInCU: 0x72614, offset: 0x25D71F, size: 0x8, addend: 0x0, symName: __ZNSt3__128__exception_guard_exceptionsINS_6vectorIN3sdc4core8PropertyENS_9allocatorIS4_EEE16__destroy_vectorEED1B8ue170006Ev, symObjAddr: 0x10394, symBinAddr: 0x29C8C, symSize: 0x84 }
  - { offsetInCU: 0x7291D, offset: 0x25DA28, size: 0x8, addend: 0x0, symName: __ZNSt3__123__optional_storage_baseIN3sdc4core18PropertyDataStringELb0EE16__construct_fromB8ue170006IRKNS_20__optional_copy_baseIS3_Lb0EEEEEvOT_, symObjAddr: 0x106BC, symBinAddr: 0x29FB4, symSize: 0xD8 }
  - { offsetInCU: 0x72F2B, offset: 0x25E036, size: 0x8, addend: 0x0, symName: __ZN3sdc4core8PropertyC2ERKS1_.cold.1, symObjAddr: 0x10F18, symBinAddr: 0x271A74, symSize: 0x80 }
  - { offsetInCU: 0x734B5, offset: 0x25E5C0, size: 0x8, addend: 0x0, symName: __ZNSt3__16vectorINS_12basic_stringIcNS_11char_traitsIcEENS_9allocatorIcEEEENS4_IS6_EEEC2ERKS8_, symObjAddr: 0x10794, symBinAddr: 0x2A08C, symSize: 0xB4 }
  - { offsetInCU: 0x737A5, offset: 0x25E8B0, size: 0x8, addend: 0x0, symName: __ZNSt3__16vectorINS_12basic_stringIcNS_11char_traitsIcEENS_9allocatorIcEEEENS4_IS6_EEE18__construct_at_endIPS6_SA_EEvT_T0_m, symObjAddr: 0x10848, symBinAddr: 0x2A140, symSize: 0x144 }
  - { offsetInCU: 0x73FF3, offset: 0x25F0FE, size: 0x8, addend: 0x0, symName: __ZNKSt3__16vectorINS_12basic_stringIcNS_11char_traitsIcEENS_9allocatorIcEEEENS4_IS6_EEE20__throw_length_errorB8ue170006Ev, symObjAddr: 0x1098C, symBinAddr: 0x2A284, symSize: 0x14 }
  - { offsetInCU: 0x7401C, offset: 0x25F127, size: 0x8, addend: 0x0, symName: __ZNSt3__112__hash_tableIN3sdc4core9SymbologyENS_4hashIS3_EENS_8equal_toIS3_EENS_9allocatorIS3_EEE25__emplace_unique_key_argsIS3_JS3_EEENS_4pairINS_15__hash_iteratorIPNS_11__hash_nodeIS3_PvEEEEbEERKT_DpOT0_, symObjAddr: 0x109A0, symBinAddr: 0x2A298, symSize: 0x310 }
  - { offsetInCU: 0x74028, offset: 0x25F133, size: 0x8, addend: 0x0, symName: __ZNSt3__16vectorINS_12basic_stringIcNS_11char_traitsIcEENS_9allocatorIcEEEENS4_IS6_EEEC2ERKS8_.cold.1, symObjAddr: 0x10F98, symBinAddr: 0x271AF4, symSize: 0x5C }
  - { offsetInCU: 0x74ABB, offset: 0x25FBC6, size: 0x8, addend: 0x0, symName: __ZNSt3__120__shared_ptr_emplaceIN3sdc22BarcodeCaptureSettingsENS_9allocatorIS2_EEEC1B8ue170006IJRKNS_10shared_ptrINS1_4core22BarcodeScannerSettingsEEEEEES4_DpOT_.cold.1, symObjAddr: 0x10E5C, symBinAddr: 0x2719E8, symSize: 0x30 }
  - { offsetInCU: 0x74B50, offset: 0x25FC5B, size: 0x8, addend: 0x0, symName: _OUTLINED_FUNCTION_0, symObjAddr: 0x10FF4, symBinAddr: 0x2A5A8, symSize: 0x10 }
  - { offsetInCU: 0x74B68, offset: 0x25FC73, size: 0x8, addend: 0x0, symName: _OUTLINED_FUNCTION_1, symObjAddr: 0x11004, symBinAddr: 0x2A5B8, symSize: 0xC }
  - { offsetInCU: 0x74B80, offset: 0x25FC8B, size: 0x8, addend: 0x0, symName: _OUTLINED_FUNCTION_2, symObjAddr: 0x11010, symBinAddr: 0x2A5C4, symSize: 0x10 }
  - { offsetInCU: 0x74B98, offset: 0x25FCA3, size: 0x8, addend: 0x0, symName: _OUTLINED_FUNCTION_3, symObjAddr: 0x11020, symBinAddr: 0x2A5D4, symSize: 0x8 }
  - { offsetInCU: 0x74BB0, offset: 0x25FCBB, size: 0x8, addend: 0x0, symName: _OUTLINED_FUNCTION_4, symObjAddr: 0x11028, symBinAddr: 0x2A5DC, symSize: 0x8 }
  - { offsetInCU: 0x2CDA8, offset: 0x28CD0C, size: 0x8, addend: 0x0, symName: __ZNSt3__19remove_ifB8ue170006INS_11__wrap_iterIPNS_10shared_ptrIN3sdc4core25BarcodeCountListenerProxyEEEEEZN11proxy_cache18ListenerProxyCacheIU8__strongPU34objcproto23SDCBarcodeCountListener11objc_objectS5_E26getAndRemoveExpiredProxiesEvEUlRKT_E_EESF_SF_SF_T0_, symObjAddr: 0x4744, symBinAddr: 0x2E8C4, symSize: 0x1CC }
  - { offsetInCU: 0x2D432, offset: 0x28D396, size: 0x8, addend: 0x0, symName: __ZNSt3__19remove_ifB8ue170006INS_11__wrap_iterIPNS_10shared_ptrIN3sdc4core30BarcodeCountStateListenerProxyEEEEEZN11proxy_cache18ListenerProxyCacheIU8__strongPU39objcproto28SDCBarcodeCountStateListener11objc_objectS5_E26getAndRemoveExpiredProxiesEvEUlRKT_E_EESF_SF_SF_T0_, symObjAddr: 0x4BA4, symBinAddr: 0x2ED24, symSize: 0x1CC }
  - { offsetInCU: 0x2EC88, offset: 0x28EBEC, size: 0x8, addend: 0x0, symName: __ZNSt3__111make_sharedB8ue170006IN12_GLOBAL__N_123IosBarcodeCountFeedbackEJRU8__strongP23SDCBarcodeCountFeedbackNS1_24BarcodeCountFeedbackTypeEEvEENS_10shared_ptrIT_EEDpOT0_, symObjAddr: 0x2D80, symBinAddr: 0x2D0E8, symSize: 0x11C }
  - { offsetInCU: 0x34BC6, offset: 0x294B2A, size: 0x8, addend: 0x0, symName: __ZN3sdc4core20cppVectorWithNSArrayINSt3__110shared_ptrINS0_7BarcodeEEEU8__strongU13block_pointerFS5_P10SDCBarcodeEEENS2_6vectorIT_NS2_9allocatorISC_EEEEP7NSArrayOT0_, symObjAddr: 0x2420, symBinAddr: 0x2C820, symSize: 0x218 }
  - { offsetInCU: 0x34F3B, offset: 0x294E9F, size: 0x8, addend: 0x0, symName: __ZN3sdc4core31nsarrayWithCppSequenceContainerINSt3__16vectorINS2_10shared_ptrINS0_14TrackedBarcodeEEENS2_9allocatorIS6_EEEEU8__strongU13block_pointerFP17SDCTrackedBarcodeS6_EEEP7NSArrayRKT_OT0_NS2_17basic_string_viewIcNS2_11char_traitsIcEEEE, symObjAddr: 0x75B8, symBinAddr: 0x310B0, symSize: 0x164 }
  - { offsetInCU: 0x3C9A3, offset: 0x29C907, size: 0x8, addend: 0x0, symName: __ZN6djinni18get_cpp_proxy_implI15SDCBarcodeCountN3sdc12BarcodeCountEEEPT_RKNSt3__110shared_ptrIT0_EE, symObjAddr: 0x4514, symBinAddr: 0x2E6FC, symSize: 0xE8 }
  - { offsetInCU: 0x3CBEA, offset: 0x29CB4E, size: 0x8, addend: 0x0, symName: __ZN6djinni18get_cpp_proxy_implI23SDCBarcodeCountSettingsN3sdc20BarcodeCountSettingsEEEPT_RKNSt3__110shared_ptrIT0_EE, symObjAddr: 0x57AC, symBinAddr: 0x2F510, symSize: 0xE8 }
  - { offsetInCU: 0x3CE3D, offset: 0x29CDA1, size: 0x8, addend: 0x0, symName: __ZN6djinni12set_objc_ptrINSt3__110shared_ptrIN3sdc4core25BarcodeCountListenerProxyEEEU34objcproto23SDCBarcodeCountListener11objc_objectEEvRKT_PT0_, symObjAddr: 0x5974, symBinAddr: 0x2F6D8, symSize: 0x110 }
  - { offsetInCU: 0x3D060, offset: 0x29CFC4, size: 0x8, addend: 0x0, symName: __ZN6djinni12set_objc_ptrINSt3__110shared_ptrIN3sdc4core30BarcodeCountStateListenerProxyEEEU39objcproto28SDCBarcodeCountStateListener11objc_objectEEvRKT_PT0_, symObjAddr: 0x6594, symBinAddr: 0x3009C, symSize: 0x110 }
  - { offsetInCU: 0x3D47D, offset: 0x29D3E1, size: 0x8, addend: 0x0, symName: __ZN6djinni18get_cpp_proxy_implI22SDCBarcodeCountSessionN3sdc19BarcodeCountSessionEEEPT_RKNSt3__110shared_ptrIT0_EE, symObjAddr: 0x62EC, symBinAddr: 0x2FED4, symSize: 0xE8 }
  - { offsetInCU: 0x3D72A, offset: 0x29D68E, size: 0x8, addend: 0x0, symName: __ZN6djinni18get_cpp_proxy_implI37SDCBarcodeCountStatusProviderCallbackN3sdc34BarcodeCountStatusProviderCallbackEEEPT_RKNSt3__110shared_ptrIT0_EE, symObjAddr: 0x73F0, symBinAddr: 0x30EE8, symSize: 0xE8 }
  - { offsetInCU: 0x3D971, offset: 0x29D8D5, size: 0x8, addend: 0x0, symName: __ZN6djinni18get_cpp_proxy_implI17SDCTrackedBarcodeN3sdc4core14TrackedBarcodeEEEPT_RKNSt3__110shared_ptrIT0_EE, symObjAddr: 0x7784, symBinAddr: 0x3127C, symSize: 0xE8 }
  - { offsetInCU: 0x3E0EA, offset: 0x29E04E, size: 0x8, addend: 0x0, symName: '-[SDCBarcodeCount applySettings:completionHandler:]', symObjAddr: 0xBF8, symBinAddr: 0x2B060, symSize: 0x3B0 }
  - { offsetInCU: 0x41D63, offset: 0x2A1CC7, size: 0x8, addend: 0x0, symName: '-[SDCBarcodeCount initWithCpp:]', symObjAddr: 0x0, symBinAddr: 0x2A5E4, symSize: 0xD0 }
  - { offsetInCU: 0x42138, offset: 0x2A209C, size: 0x8, addend: 0x0, symName: '+[SDCBarcodeCount barcodeCountWithContext:settings:]', symObjAddr: 0xD0, symBinAddr: 0x2A6B4, symSize: 0x29C }
  - { offsetInCU: 0x428B8, offset: 0x2A281C, size: 0x8, addend: 0x0, symName: __ZNSt3__110shared_ptrIN3sdc12BarcodeCountEED1B8ue170006Ev, symObjAddr: 0x40C, symBinAddr: 0x2A950, symSize: 0x68 }
  - { offsetInCU: 0x42935, offset: 0x2A2899, size: 0x8, addend: 0x0, symName: __ZNSt3__110shared_ptrIN3sdc12BarcodeCountEED1B8ue170006Ev, symObjAddr: 0x40C, symBinAddr: 0x2A950, symSize: 0x68 }
  - { offsetInCU: 0x432AA, offset: 0x2A320E, size: 0x8, addend: 0x0, symName: '-[SDCBarcodeCount dealloc]', symObjAddr: 0x544, symBinAddr: 0x2A9B8, symSize: 0x3AC }
  - { offsetInCU: 0x43E2F, offset: 0x2A3D93, size: 0x8, addend: 0x0, symName: __ZNSt3__16vectorINS_10shared_ptrIN3sdc4core25BarcodeCountListenerProxyEEENS_9allocatorIS5_EEE5eraseENS_11__wrap_iterIPKS5_EESC_, symObjAddr: 0x4910, symBinAddr: 0x2EA90, symSize: 0x100 }
  - { offsetInCU: 0x4425A, offset: 0x2A41BE, size: 0x8, addend: 0x0, symName: __ZNSt3__16vectorINS_10shared_ptrIN3sdc4core30BarcodeCountStateListenerProxyEEENS_9allocatorIS5_EEE5eraseENS_11__wrap_iterIPKS5_EESC_, symObjAddr: 0x4D70, symBinAddr: 0x2EEF0, symSize: 0x100 }
  - { offsetInCU: 0x44685, offset: 0x2A45E9, size: 0x8, addend: 0x0, symName: __ZNSt3__16vectorINS_10shared_ptrIN3sdc4core30BarcodeCountStateListenerProxyEEENS_9allocatorIS5_EEED1B8ue170006Ev, symObjAddr: 0xA58, symBinAddr: 0x2AECC, symSize: 0x98 }
  - { offsetInCU: 0x448C3, offset: 0x2A4827, size: 0x8, addend: 0x0, symName: __ZNSt3__16vectorINS_10shared_ptrIN3sdc4core25BarcodeCountListenerProxyEEENS_9allocatorIS5_EEED1B8ue170006Ev, symObjAddr: 0x958, symBinAddr: 0x2ADCC, symSize: 0x98 }
  - { offsetInCU: 0x44B01, offset: 0x2A4A65, size: 0x8, addend: 0x0, symName: __ZNSt3__110shared_ptrIN3sdc25BarcodeCountStateListenerEED1B8ue170006Ev, symObjAddr: 0x9F0, symBinAddr: 0x2AE64, symSize: 0x68 }
  - { offsetInCU: 0x44BA0, offset: 0x2A4B04, size: 0x8, addend: 0x0, symName: __ZNSt3__110shared_ptrIN3sdc20BarcodeCountListenerEED1B8ue170006Ev, symObjAddr: 0x8F0, symBinAddr: 0x2AD64, symSize: 0x68 }
  - { offsetInCU: 0x44C3F, offset: 0x2A4BA3, size: 0x8, addend: 0x0, symName: '+[SDCBarcodeCount recommendedCameraSettings]', symObjAddr: 0xAFC, symBinAddr: 0x2AF64, symSize: 0xFC }
  - { offsetInCU: 0x4599A, offset: 0x2A58FE, size: 0x8, addend: 0x0, symName: '__ZN3bar4impl12ThenCallbackINS_4VoidEZ51-[SDCBarcodeCount applySettings:completionHandler:]E3$_0ED1Ev', symObjAddr: 0x5004, symBinAddr: 0x2F184, symSize: 0x70 }
  - { offsetInCU: 0x45C9D, offset: 0x2A5C01, size: 0x8, addend: 0x0, symName: '-[SDCBarcodeCount settings]', symObjAddr: 0x1010, symBinAddr: 0x2B410, symSize: 0xBC }
  - { offsetInCU: 0x45E0F, offset: 0x2A5D73, size: 0x8, addend: 0x0, symName: __ZNSt3__110shared_ptrIN3sdc20BarcodeCountSettingsEED1B8ue170006Ev, symObjAddr: 0x10CC, symBinAddr: 0x2B4CC, symSize: 0x68 }
  - { offsetInCU: 0x45EAE, offset: 0x2A5E12, size: 0x8, addend: 0x0, symName: '-[SDCBarcodeCount startScanningPhase]', symObjAddr: 0x1134, symBinAddr: 0x2B534, symSize: 0x6C }
  - { offsetInCU: 0x45F22, offset: 0x2A5E86, size: 0x8, addend: 0x0, symName: '-[SDCBarcodeCount reset]', symObjAddr: 0x11A0, symBinAddr: 0x2B5A0, symSize: 0x8 }
  - { offsetInCU: 0x45F58, offset: 0x2A5EBC, size: 0x8, addend: 0x0, symName: '-[SDCBarcodeCount reset]', symObjAddr: 0x11A0, symBinAddr: 0x2B5A0, symSize: 0x8 }
  - { offsetInCU: 0x45F75, offset: 0x2A5ED9, size: 0x8, addend: 0x0, symName: '-[SDCBarcodeCount endScanningPhase]', symObjAddr: 0x11A8, symBinAddr: 0x2B5A8, symSize: 0x8C }
  - { offsetInCU: 0x4600E, offset: 0x2A5F72, size: 0x8, addend: 0x0, symName: '-[SDCBarcodeCount addListener:]', symObjAddr: 0x1234, symBinAddr: 0x2B634, symSize: 0x2EC }
  - { offsetInCU: 0x469BD, offset: 0x2A6921, size: 0x8, addend: 0x0, symName: __ZN11proxy_cache18ListenerProxyCacheIU8__strongPU34objcproto23SDCBarcodeCountListener11objc_objectN3sdc4core25BarcodeCountListenerProxyEE11getOrCreateES2_, symObjAddr: 0x1520, symBinAddr: 0x2B920, symSize: 0x2F0 }
  - { offsetInCU: 0x4742E, offset: 0x2A7392, size: 0x8, addend: 0x0, symName: __ZNSt3__110shared_ptrIN3sdc4core25BarcodeCountListenerProxyEED1B8ue170006Ev, symObjAddr: 0x1810, symBinAddr: 0x2BC10, symSize: 0x68 }
  - { offsetInCU: 0x47B09, offset: 0x2A7A6D, size: 0x8, addend: 0x0, symName: __ZN11proxy_cache13ListenerProxyIU8__strongPU34objcproto23SDCBarcodeCountListener11objc_objectN3sdc20BarcodeCountListenerEEC2ES2_, symObjAddr: 0x5BA4, symBinAddr: 0x2F908, symSize: 0xC4 }
  - { offsetInCU: 0x47CF6, offset: 0x2A7C5A, size: 0x8, addend: 0x0, symName: __ZNSt3__16vectorINS_10shared_ptrIN3sdc4core25BarcodeCountListenerProxyEEENS_9allocatorIS5_EEE21__push_back_slow_pathIRKS5_EEvOT_, symObjAddr: 0x4A10, symBinAddr: 0x2EB90, symSize: 0x180 }
  - { offsetInCU: 0x48317, offset: 0x2A827B, size: 0x8, addend: 0x0, symName: __ZNKSt3__16vectorINS_10shared_ptrIN3sdc4core25BarcodeCountListenerProxyEEENS_9allocatorIS5_EEE20__throw_length_errorB8ue170006Ev, symObjAddr: 0x4B90, symBinAddr: 0x2ED10, symSize: 0x14 }
  - { offsetInCU: 0x4832C, offset: 0x2A8290, size: 0x8, addend: 0x0, symName: '-[SDCBarcodeCount removeListener:]', symObjAddr: 0x1878, symBinAddr: 0x2BC78, symSize: 0x16C }
  - { offsetInCU: 0x48772, offset: 0x2A86D6, size: 0x8, addend: 0x0, symName: '-[SDCBarcodeCount addStateListener:]', symObjAddr: 0x19E4, symBinAddr: 0x2BDE4, symSize: 0x2EC }
  - { offsetInCU: 0x49119, offset: 0x2A907D, size: 0x8, addend: 0x0, symName: __ZN11proxy_cache18ListenerProxyCacheIU8__strongPU39objcproto28SDCBarcodeCountStateListener11objc_objectN3sdc4core30BarcodeCountStateListenerProxyEE11getOrCreateES2_, symObjAddr: 0x1CD0, symBinAddr: 0x2C0D0, symSize: 0x2F0 }
  - { offsetInCU: 0x49B8A, offset: 0x2A9AEE, size: 0x8, addend: 0x0, symName: __ZNSt3__110shared_ptrIN3sdc4core30BarcodeCountStateListenerProxyEED1B8ue170006Ev, symObjAddr: 0x1FC0, symBinAddr: 0x2C3C0, symSize: 0x68 }
  - { offsetInCU: 0x4A1BA, offset: 0x2AA11E, size: 0x8, addend: 0x0, symName: __ZN11proxy_cache13ListenerProxyIU8__strongPU39objcproto28SDCBarcodeCountStateListener11objc_objectN3sdc25BarcodeCountStateListenerEEC2ES2_, symObjAddr: 0x67C4, symBinAddr: 0x302CC, symSize: 0xC4 }
  - { offsetInCU: 0x4A3A7, offset: 0x2AA30B, size: 0x8, addend: 0x0, symName: __ZNSt3__16vectorINS_10shared_ptrIN3sdc4core30BarcodeCountStateListenerProxyEEENS_9allocatorIS5_EEE21__push_back_slow_pathIRKS5_EEvOT_, symObjAddr: 0x4E70, symBinAddr: 0x2EFF0, symSize: 0x180 }
  - { offsetInCU: 0x4A9C8, offset: 0x2AA92C, size: 0x8, addend: 0x0, symName: __ZNKSt3__16vectorINS_10shared_ptrIN3sdc4core30BarcodeCountStateListenerProxyEEENS_9allocatorIS5_EEE20__throw_length_errorB8ue170006Ev, symObjAddr: 0x4FF0, symBinAddr: 0x2F170, symSize: 0x14 }
  - { offsetInCU: 0x4A9DD, offset: 0x2AA941, size: 0x8, addend: 0x0, symName: '-[SDCBarcodeCount removeStateListener:]', symObjAddr: 0x2028, symBinAddr: 0x2C428, symSize: 0x16C }
  - { offsetInCU: 0x4AE3D, offset: 0x2AADA1, size: 0x8, addend: 0x0, symName: '-[SDCBarcodeCount setCaptureList:]', symObjAddr: 0x2194, symBinAddr: 0x2C594, symSize: 0xF0 }
  - { offsetInCU: 0x4AF95, offset: 0x2AAEF9, size: 0x8, addend: 0x0, symName: __ZNSt3__110shared_ptrIN3sdc23BarcodeCountCaptureListEED1B8ue170006Ev, symObjAddr: 0x2284, symBinAddr: 0x2C684, symSize: 0x68 }
  - { offsetInCU: 0x4B1B4, offset: 0x2AB118, size: 0x8, addend: 0x0, symName: '-[SDCBarcodeCount setAdditionalBarcodes:]', symObjAddr: 0x22EC, symBinAddr: 0x2C6EC, symSize: 0x134 }
  - { offsetInCU: 0x4B7C8, offset: 0x2AB72C, size: 0x8, addend: 0x0, symName: __ZNSt3__16vectorINS_10shared_ptrIN3sdc4core7BarcodeEEENS_9allocatorIS5_EEE7reserveEm, symObjAddr: 0x6C60, symBinAddr: 0x30760, symSize: 0x110 }
  - { offsetInCU: 0x4BC70, offset: 0x2ABBD4, size: 0x8, addend: 0x0, symName: __ZNKSt3__16vectorINS_10shared_ptrIN3sdc4core7BarcodeEEENS_9allocatorIS5_EEE20__throw_length_errorB8ue170006Ev, symObjAddr: 0x6D70, symBinAddr: 0x30870, symSize: 0x14 }
  - { offsetInCU: 0x4BC83, offset: 0x2ABBE7, size: 0x8, addend: 0x0, symName: __ZNSt3__16vectorINS_10shared_ptrIN3sdc4core7BarcodeEEENS_9allocatorIS5_EEE24__emplace_back_slow_pathIJS5_EEEvDpOT_, symObjAddr: 0x6D84, symBinAddr: 0x30884, symSize: 0x160 }
  - { offsetInCU: 0x4C23B, offset: 0x2AC19F, size: 0x8, addend: 0x0, symName: __ZZN6djinniL14get_objc_proxyIN3sdc4core31BarcodeCountStatusProviderProxyEU40objcproto29SDCBarcodeCountStatusProvider11objc_objectEENSt3__110shared_ptrIT_EEPT0_ENUlRU8__strongKP11objc_objectE_8__invokeESE_, symObjAddr: 0x6EE4, symBinAddr: 0x309E4, symSize: 0x7C }
  - { offsetInCU: 0x4C306, offset: 0x2AC26A, size: 0x8, addend: 0x0, symName: '___41-[SDCBarcodeCount setAdditionalBarcodes:]_block_invoke', symObjAddr: 0x2638, symBinAddr: 0x2CA38, symSize: 0x64 }
  - { offsetInCU: 0x4C3ED, offset: 0x2AC351, size: 0x8, addend: 0x0, symName: '-[SDCBarcodeCount clearAdditionalBarcodes]', symObjAddr: 0x2734, symBinAddr: 0x2CA9C, symSize: 0x8 }
  - { offsetInCU: 0x4C423, offset: 0x2AC387, size: 0x8, addend: 0x0, symName: '-[SDCBarcodeCount clearAdditionalBarcodes]', symObjAddr: 0x2734, symBinAddr: 0x2CA9C, symSize: 0x8 }
  - { offsetInCU: 0x4C62B, offset: 0x2AC58F, size: 0x8, addend: 0x0, symName: '-[SDCBarcodeCount setStatusProvider:]', symObjAddr: 0x273C, symBinAddr: 0x2CAA4, symSize: 0x21C }
  - { offsetInCU: 0x4CB9D, offset: 0x2ACB01, size: 0x8, addend: 0x0, symName: __ZNSt3__110shared_ptrIN3sdc26BarcodeCountStatusProviderEED1B8ue170006Ev, symObjAddr: 0x2958, symBinAddr: 0x2CCC0, symSize: 0x68 }
  - { offsetInCU: 0x4CC3C, offset: 0x2ACBA0, size: 0x8, addend: 0x0, symName: __ZNSt3__110shared_ptrIN3sdc4core31BarcodeCountStatusProviderProxyEED1B8ue170006Ev, symObjAddr: 0x29C0, symBinAddr: 0x2CD28, symSize: 0x68 }
  - { offsetInCU: 0x4CCDB, offset: 0x2ACC3F, size: 0x8, addend: 0x0, symName: '-[SDCBarcodeCount triggerStatusRequest]', symObjAddr: 0x2A28, symBinAddr: 0x2CD90, symSize: 0x18 }
  - { offsetInCU: 0x4CD2C, offset: 0x2ACC90, size: 0x8, addend: 0x0, symName: '-[SDCBarcodeCount cancelStatusRequest]', symObjAddr: 0x2A40, symBinAddr: 0x2CDA8, symSize: 0x18 }
  - { offsetInCU: 0x4CD7D, offset: 0x2ACCE1, size: 0x8, addend: 0x0, symName: '-[SDCBarcodeCount prepareScanningWithContext:]', symObjAddr: 0x2A58, symBinAddr: 0x2CDC0, symSize: 0x54 }
  - { offsetInCU: 0x4CDC0, offset: 0x2ACD24, size: 0x8, addend: 0x0, symName: '-[SDCBarcodeCount stopScanning]', symObjAddr: 0x2AAC, symBinAddr: 0x2CE14, symSize: 0x60 }
  - { offsetInCU: 0x4CDF3, offset: 0x2ACD57, size: 0x8, addend: 0x0, symName: '-[SDCBarcodeCount turnOffTorch]', symObjAddr: 0x2B0C, symBinAddr: 0x2CE74, symSize: 0xF4 }
  - { offsetInCU: 0x4CF89, offset: 0x2ACEED, size: 0x8, addend: 0x0, symName: '-[SDCBarcodeCount setSuccessFeedback:]', symObjAddr: 0x2C00, symBinAddr: 0x2CF68, symSize: 0x180 }
  - { offsetInCU: 0x4D3D7, offset: 0x2AD33B, size: 0x8, addend: 0x0, symName: __ZNSt3__110shared_ptrIN12_GLOBAL__N_123IosBarcodeCountFeedbackEED1B8ue170006Ev, symObjAddr: 0x2F04, symBinAddr: 0x2D204, symSize: 0x68 }
  - { offsetInCU: 0x4D89B, offset: 0x2AD7FF, size: 0x8, addend: 0x0, symName: '-[SDCBarcodeCount setFailureFeedback:]', symObjAddr: 0x2F6C, symBinAddr: 0x2D26C, symSize: 0x180 }
  - { offsetInCU: 0x4DC84, offset: 0x2ADBE8, size: 0x8, addend: 0x0, symName: '-[SDCBarcodeCount setUnrecognizedFeedback:]', symObjAddr: 0x30EC, symBinAddr: 0x2D3EC, symSize: 0x180 }
  - { offsetInCU: 0x4E077, offset: 0x2ADFDB, size: 0x8, addend: 0x0, symName: '-[SDCBarcodeCount setFeedback:]', symObjAddr: 0x326C, symBinAddr: 0x2D56C, symSize: 0xA8 }
  - { offsetInCU: 0x4E0BC, offset: 0x2AE020, size: 0x8, addend: 0x0, symName: '-[SDCBarcodeCount audioFeedbackEnabled]', symObjAddr: 0x3314, symBinAddr: 0x2D614, symSize: 0x1DC }
  - { offsetInCU: 0x4E0F4, offset: 0x2AE058, size: 0x8, addend: 0x0, symName: '-[SDCBarcodeCount setAudioFeedbackEnabled:]', symObjAddr: 0x34F0, symBinAddr: 0x2D7F0, symSize: 0x3F4 }
  - { offsetInCU: 0x4E1C8, offset: 0x2AE12C, size: 0x8, addend: 0x0, symName: '-[SDCBarcodeCount vibrationFeedbackEnabled]', symObjAddr: 0x38E4, symBinAddr: 0x2DBE4, symSize: 0x1DC }
  - { offsetInCU: 0x4E200, offset: 0x2AE164, size: 0x8, addend: 0x0, symName: '-[SDCBarcodeCount setVibrationFeedbackEnabled:]', symObjAddr: 0x3AC0, symBinAddr: 0x2DDC0, symSize: 0x3F4 }
  - { offsetInCU: 0x4E2D4, offset: 0x2AE238, size: 0x8, addend: 0x0, symName: '-[SDCBarcodeCount triggerLostState]', symObjAddr: 0x3EB4, symBinAddr: 0x2E1B4, symSize: 0x1C }
  - { offsetInCU: 0x4E327, offset: 0x2AE28B, size: 0x8, addend: 0x0, symName: '-[SDCBarcodeCount isEnabled]', symObjAddr: 0x3ED0, symBinAddr: 0x2E1D0, symSize: 0x8 }
  - { offsetInCU: 0x4E362, offset: 0x2AE2C6, size: 0x8, addend: 0x0, symName: '-[SDCBarcodeCount isEnabled]', symObjAddr: 0x3ED0, symBinAddr: 0x2E1D0, symSize: 0x8 }
  - { offsetInCU: 0x4E380, offset: 0x2AE2E4, size: 0x8, addend: 0x0, symName: '-[SDCBarcodeCount setEnabled:]', symObjAddr: 0x3ED8, symBinAddr: 0x2E1D8, symSize: 0xB8 }
  - { offsetInCU: 0x4E3E6, offset: 0x2AE34A, size: 0x8, addend: 0x0, symName: '-[SDCBarcodeCount isAttachedToContext]', symObjAddr: 0x3F90, symBinAddr: 0x2E290, symSize: 0x10 }
  - { offsetInCU: 0x4E421, offset: 0x2AE385, size: 0x8, addend: 0x0, symName: '-[SDCBarcodeCount isAttachedToContext]', symObjAddr: 0x3F90, symBinAddr: 0x2E290, symSize: 0x10 }
  - { offsetInCU: 0x4E44B, offset: 0x2AE3AF, size: 0x8, addend: 0x0, symName: '-[SDCBarcodeCount didAttachToContext:]', symObjAddr: 0x3FA0, symBinAddr: 0x2E2A0, symSize: 0x4 }
  - { offsetInCU: 0x4E488, offset: 0x2AE3EC, size: 0x8, addend: 0x0, symName: '-[SDCBarcodeCount didDetachFromContext:]', symObjAddr: 0x3FA4, symBinAddr: 0x2E2A4, symSize: 0x4 }
  - { offsetInCU: 0x4E4C5, offset: 0x2AE429, size: 0x8, addend: 0x0, symName: '-[SDCBarcodeCount context:willProcessFrame:]', symObjAddr: 0x3FA8, symBinAddr: 0x2E2A8, symSize: 0x4 }
  - { offsetInCU: 0x4E540, offset: 0x2AE4A4, size: 0x8, addend: 0x0, symName: '-[SDCBarcodeCount context]', symObjAddr: 0x3FAC, symBinAddr: 0x2E2AC, symSize: 0xD4 }
  - { offsetInCU: 0x4E704, offset: 0x2AE668, size: 0x8, addend: 0x0, symName: '-[SDCBarcodeCount cppImpl]', symObjAddr: 0x4080, symBinAddr: 0x2E380, symSize: 0x8 }
  - { offsetInCU: 0x4E73F, offset: 0x2AE6A3, size: 0x8, addend: 0x0, symName: '-[SDCBarcodeCount cppImpl]', symObjAddr: 0x4080, symBinAddr: 0x2E380, symSize: 0x8 }
  - { offsetInCU: 0x4E7C3, offset: 0x2AE727, size: 0x8, addend: 0x0, symName: '-[SDCBarcodeCount typeErasedCppImpl]', symObjAddr: 0x4088, symBinAddr: 0x2E388, symSize: 0x24 }
  - { offsetInCU: 0x4E7FC, offset: 0x2AE760, size: 0x8, addend: 0x0, symName: '-[SDCBarcodeCount typeErasedCppImpl]', symObjAddr: 0x4088, symBinAddr: 0x2E388, symSize: 0x24 }
  - { offsetInCU: 0x4E826, offset: 0x2AE78A, size: 0x8, addend: 0x0, symName: '-[SDCBarcodeCount typeErasedCppImpl]', symObjAddr: 0x4088, symBinAddr: 0x2E388, symSize: 0x24 }
  - { offsetInCU: 0x4E8AE, offset: 0x2AE812, size: 0x8, addend: 0x0, symName: '-[SDCBarcodeCount feedback]', symObjAddr: 0x40AC, symBinAddr: 0x2E3AC, symSize: 0x8 }
  - { offsetInCU: 0x4E9EE, offset: 0x2AE952, size: 0x8, addend: 0x0, symName: '-[SDCBarcodeCount .cxx_destruct]', symObjAddr: 0x40B4, symBinAddr: 0x2E3B4, symSize: 0x1F8 }
  - { offsetInCU: 0x4F262, offset: 0x2AF1C6, size: 0x8, addend: 0x0, symName: '-[SDCBarcodeCount .cxx_construct]', symObjAddr: 0x42AC, symBinAddr: 0x2E5AC, symSize: 0x150 }
  - { offsetInCU: 0x4F617, offset: 0x2AF57B, size: 0x8, addend: 0x0, symName: __ZNSt3__16vectorINS_10shared_ptrIN3sdc4core25BarcodeCountListenerProxyEEENS_9allocatorIS5_EEE7reserveEm, symObjAddr: 0x7D6C, symBinAddr: 0x3168C, symSize: 0x110 }
  - { offsetInCU: 0x4FABF, offset: 0x2AFA23, size: 0x8, addend: 0x0, symName: __ZNSt3__16vectorINS_10shared_ptrIN3sdc4core30BarcodeCountStateListenerProxyEEENS_9allocatorIS5_EEE7reserveEm, symObjAddr: 0x7E7C, symBinAddr: 0x3179C, symSize: 0x110 }
  - { offsetInCU: 0x4FAD2, offset: 0x2AFA36, size: 0x8, addend: 0x0, symName: __ZNSt3__16vectorINS_10shared_ptrIN3sdc4core30BarcodeCountStateListenerProxyEEENS_9allocatorIS5_EEE7reserveEm, symObjAddr: 0x7E7C, symBinAddr: 0x3179C, symSize: 0x110 }
  - { offsetInCU: 0x4FF7A, offset: 0x2AFEDE, size: 0x8, addend: 0x0, symName: '-[SDCBarcodeCount .cxx_construct].cold.1', symObjAddr: 0x7F8C, symBinAddr: 0x271B68, symSize: 0x78 }
  - { offsetInCU: 0x4FF8D, offset: 0x2AFEF1, size: 0x8, addend: 0x0, symName: '-[SDCBarcodeCount .cxx_construct].cold.1', symObjAddr: 0x7F8C, symBinAddr: 0x271B68, symSize: 0x78 }
  - { offsetInCU: 0x500FC, offset: 0x2B0060, size: 0x8, addend: 0x0, symName: '-[SDCBarcodeCount .cxx_construct].cold.2', symObjAddr: 0x8004, symBinAddr: 0x271BE0, symSize: 0x78 }
  - { offsetInCU: 0x5048A, offset: 0x2B03EE, size: 0x8, addend: 0x0, symName: __ZZN6djinni18get_cpp_proxy_implI15SDCBarcodeCountN3sdc12BarcodeCountEEEPT_RKNSt3__110shared_ptrIT0_EEENUlRKNS7_IvEEE_8__invokeESE_, symObjAddr: 0x4664, symBinAddr: 0x2E7E4, symSize: 0xE0 }
  - { offsetInCU: 0x5073C, offset: 0x2B06A0, size: 0x8, addend: 0x0, symName: __ZZN6djinni18get_cpp_proxy_implI15SDCBarcodeCountN3sdc12BarcodeCountEEEPT_RKNSt3__110shared_ptrIT0_EEENUlRKNS7_IvEEE_8__invokeESE_.cold.1, symObjAddr: 0x807C, symBinAddr: 0x271C58, symSize: 0x2C }
  - { offsetInCU: 0x50BE5, offset: 0x2B0B49, size: 0x8, addend: 0x0, symName: __ZNKSt3__16vectorINS_10shared_ptrIN3sdc4core25BarcodeCountListenerProxyEEENS_9allocatorIS5_EEE20__throw_length_errorB8ue170006Ev, symObjAddr: 0x4B90, symBinAddr: 0x2ED10, symSize: 0x14 }
  - { offsetInCU: 0x50C0F, offset: 0x2B0B73, size: 0x8, addend: 0x0, symName: __ZNSt3__19remove_ifB8ue170006INS_11__wrap_iterIPNS_10shared_ptrIN3sdc4core30BarcodeCountStateListenerProxyEEEEEZN11proxy_cache18ListenerProxyCacheIU8__strongPU39objcproto28SDCBarcodeCountStateListener11objc_objectS5_E26getAndRemoveExpiredProxiesEvEUlRKT_E_EESF_SF_SF_T0_, symObjAddr: 0x4BA4, symBinAddr: 0x2ED24, symSize: 0x1CC }
  - { offsetInCU: 0x5100D, offset: 0x2B0F71, size: 0x8, addend: 0x0, symName: __ZNKSt3__16vectorINS_10shared_ptrIN3sdc4core30BarcodeCountStateListenerProxyEEENS_9allocatorIS5_EEE20__throw_length_errorB8ue170006Ev, symObjAddr: 0x4FF0, symBinAddr: 0x2F170, symSize: 0x14 }
  - { offsetInCU: 0x51037, offset: 0x2B0F9B, size: 0x8, addend: 0x0, symName: '__ZN3bar4impl12ThenCallbackINS_4VoidEZ51-[SDCBarcodeCount applySettings:completionHandler:]E3$_0ED1Ev', symObjAddr: 0x5004, symBinAddr: 0x2F184, symSize: 0x70 }
  - { offsetInCU: 0x5115B, offset: 0x2B10BF, size: 0x8, addend: 0x0, symName: '__ZNSt3__110__function6__funcIN3bar4impl12ThenCallbackINS2_4VoidEZ51-[SDCBarcodeCount applySettings:completionHandler:]E3$_0EENS_9allocatorIS7_EEFvRKS5_EED1Ev', symObjAddr: 0x5184, symBinAddr: 0x2F1F4, symSize: 0x7C }
  - { offsetInCU: 0x51361, offset: 0x2B12C5, size: 0x8, addend: 0x0, symName: '__ZNSt3__110__function6__funcIN3bar4impl12ThenCallbackINS2_4VoidEZ51-[SDCBarcodeCount applySettings:completionHandler:]E3$_0EENS_9allocatorIS7_EEFvRKS5_EED0Ev', symObjAddr: 0x5200, symBinAddr: 0x2F270, symSize: 0x7C }
  - { offsetInCU: 0x5180E, offset: 0x2B1772, size: 0x8, addend: 0x0, symName: '__ZNKSt3__110__function6__funcIN3bar4impl12ThenCallbackINS2_4VoidEZ51-[SDCBarcodeCount applySettings:completionHandler:]E3$_0EENS_9allocatorIS7_EEFvRKS5_EE7__cloneEv', symObjAddr: 0x527C, symBinAddr: 0x2F2EC, symSize: 0x64 }
  - { offsetInCU: 0x51CA6, offset: 0x2B1C0A, size: 0x8, addend: 0x0, symName: '__ZNKSt3__110__function6__funcIN3bar4impl12ThenCallbackINS2_4VoidEZ51-[SDCBarcodeCount applySettings:completionHandler:]E3$_0EENS_9allocatorIS7_EEFvRKS5_EE7__cloneEPNS0_6__baseISC_EE', symObjAddr: 0x52E0, symBinAddr: 0x2F350, symSize: 0x54 }
  - { offsetInCU: 0x51F5F, offset: 0x2B1EC3, size: 0x8, addend: 0x0, symName: '__ZNSt3__110__function6__funcIN3bar4impl12ThenCallbackINS2_4VoidEZ51-[SDCBarcodeCount applySettings:completionHandler:]E3$_0EENS_9allocatorIS7_EEFvRKS5_EE7destroyEv', symObjAddr: 0x5334, symBinAddr: 0x2F3A4, symSize: 0x64 }
  - { offsetInCU: 0x5214B, offset: 0x2B20AF, size: 0x8, addend: 0x0, symName: '__ZNSt3__110__function6__funcIN3bar4impl12ThenCallbackINS2_4VoidEZ51-[SDCBarcodeCount applySettings:completionHandler:]E3$_0EENS_9allocatorIS7_EEFvRKS5_EE18destroy_deallocateEv', symObjAddr: 0x5398, symBinAddr: 0x2F408, symSize: 0x70 }
  - { offsetInCU: 0x5248B, offset: 0x2B23EF, size: 0x8, addend: 0x0, symName: '__ZNSt3__110__function6__funcIN3bar4impl12ThenCallbackINS2_4VoidEZ51-[SDCBarcodeCount applySettings:completionHandler:]E3$_0EENS_9allocatorIS7_EEFvRKS5_EEclESB_', symObjAddr: 0x5408, symBinAddr: 0x2F478, symSize: 0x2C }
  - { offsetInCU: 0x52879, offset: 0x2B27DD, size: 0x8, addend: 0x0, symName: '__ZNKSt3__110__function6__funcIN3bar4impl12ThenCallbackINS2_4VoidEZ51-[SDCBarcodeCount applySettings:completionHandler:]E3$_0EENS_9allocatorIS7_EEFvRKS5_EE6targetERKSt9type_info', symObjAddr: 0x5434, symBinAddr: 0x2F4A4, symSize: 0x60 }
  - { offsetInCU: 0x52905, offset: 0x2B2869, size: 0x8, addend: 0x0, symName: '__ZNKSt3__110__function6__funcIN3bar4impl12ThenCallbackINS2_4VoidEZ51-[SDCBarcodeCount applySettings:completionHandler:]E3$_0EENS_9allocatorIS7_EEFvRKS5_EE11target_typeEv', symObjAddr: 0x5494, symBinAddr: 0x2F504, symSize: 0xC }
  - { offsetInCU: 0x52B37, offset: 0x2B2A9B, size: 0x8, addend: 0x0, symName: __ZZN6djinni18get_cpp_proxy_implI23SDCBarcodeCountSettingsN3sdc20BarcodeCountSettingsEEEPT_RKNSt3__110shared_ptrIT0_EEENUlRKNS7_IvEEE_8__invokeESE_, symObjAddr: 0x5894, symBinAddr: 0x2F5F8, symSize: 0xE0 }
  - { offsetInCU: 0x52DE9, offset: 0x2B2D4D, size: 0x8, addend: 0x0, symName: __ZZN6djinni18get_cpp_proxy_implI23SDCBarcodeCountSettingsN3sdc20BarcodeCountSettingsEEEPT_RKNSt3__110shared_ptrIT0_EEENUlRKNS7_IvEEE_8__invokeESE_.cold.1, symObjAddr: 0x80A8, symBinAddr: 0x271C84, symSize: 0x2C }
  - { offsetInCU: 0x530BD, offset: 0x2B3021, size: 0x8, addend: 0x0, symName: __ZZN6djinniL14get_objc_proxyIN3sdc4core25BarcodeCountListenerProxyEU34objcproto23SDCBarcodeCountListener11objc_objectEENSt3__110shared_ptrIT_EEPT0_ENUlRU8__strongKP11objc_objectE_8__invokeESE_, symObjAddr: 0x5A84, symBinAddr: 0x2F7E8, symSize: 0x7C }
  - { offsetInCU: 0x5344A, offset: 0x2B33AE, size: 0x8, addend: 0x0, symName: __ZNSt3__120__shared_ptr_emplaceIN3sdc4core25BarcodeCountListenerProxyENS_9allocatorIS3_EEED1Ev, symObjAddr: 0x5B00, symBinAddr: 0x2F864, symSize: 0x10 }
  - { offsetInCU: 0x5346E, offset: 0x2B33D2, size: 0x8, addend: 0x0, symName: __ZNSt3__120__shared_ptr_emplaceIN3sdc4core25BarcodeCountListenerProxyENS_9allocatorIS3_EEED1Ev, symObjAddr: 0x5B00, symBinAddr: 0x2F864, symSize: 0x10 }
  - { offsetInCU: 0x534A7, offset: 0x2B340B, size: 0x8, addend: 0x0, symName: __ZNSt3__120__shared_ptr_emplaceIN3sdc4core25BarcodeCountListenerProxyENS_9allocatorIS3_EEED0Ev, symObjAddr: 0x5B10, symBinAddr: 0x2F874, symSize: 0x20 }
  - { offsetInCU: 0x5357F, offset: 0x2B34E3, size: 0x8, addend: 0x0, symName: __ZNSt3__120__shared_ptr_emplaceIN3sdc4core25BarcodeCountListenerProxyENS_9allocatorIS3_EEE16__on_zero_sharedEv, symObjAddr: 0x5B30, symBinAddr: 0x2F894, symSize: 0x70 }
  - { offsetInCU: 0x536AF, offset: 0x2B3613, size: 0x8, addend: 0x0, symName: __ZN6djinni10ProxyCacheINS_20ObjcProxyCacheTraitsEE6HandleIU6__weakPU34objcproto23SDCBarcodeCountListener11objc_objectU8__strongS5_ED2Ev, symObjAddr: 0x6080, symBinAddr: 0x2FDDC, symSize: 0xF8 }
  - { offsetInCU: 0x537D6, offset: 0x2B373A, size: 0x8, addend: 0x0, symName: __ZNSt3__120__shared_ptr_emplaceIN3sdc4core25BarcodeCountListenerProxyENS_9allocatorIS3_EEE21__on_zero_shared_weakEv, symObjAddr: 0x5BA0, symBinAddr: 0x2F904, symSize: 0x4 }
  - { offsetInCU: 0x5380B, offset: 0x2B376F, size: 0x8, addend: 0x0, symName: __ZNSt3__120__shared_ptr_emplaceIN3sdc4core25BarcodeCountListenerProxyENS_9allocatorIS3_EEE21__on_zero_shared_weakEv, symObjAddr: 0x5BA0, symBinAddr: 0x2F904, symSize: 0x4 }
  - { offsetInCU: 0x53830, offset: 0x2B3794, size: 0x8, addend: 0x0, symName: __ZNSt3__120__shared_ptr_emplaceIN3sdc4core25BarcodeCountListenerProxyENS_9allocatorIS3_EEE21__on_zero_shared_weakEv, symObjAddr: 0x5BA0, symBinAddr: 0x2F904, symSize: 0x4 }
  - { offsetInCU: 0x53855, offset: 0x2B37B9, size: 0x8, addend: 0x0, symName: __ZNSt3__120__shared_ptr_emplaceIN3sdc4core25BarcodeCountListenerProxyENS_9allocatorIS3_EEE21__on_zero_shared_weakEv, symObjAddr: 0x5BA0, symBinAddr: 0x2F904, symSize: 0x4 }
  - { offsetInCU: 0x53885, offset: 0x2B37E9, size: 0x8, addend: 0x0, symName: __ZNSt3__120__shared_ptr_emplaceIN3sdc4core25BarcodeCountListenerProxyENS_9allocatorIS3_EEE21__on_zero_shared_weakEv, symObjAddr: 0x5BA0, symBinAddr: 0x2F904, symSize: 0x4 }
  - { offsetInCU: 0x538AF, offset: 0x2B3813, size: 0x8, addend: 0x0, symName: __ZNSt3__120__shared_ptr_emplaceIN3sdc4core25BarcodeCountListenerProxyENS_9allocatorIS3_EEE21__on_zero_shared_weakEv, symObjAddr: 0x5BA0, symBinAddr: 0x2F904, symSize: 0x4 }
  - { offsetInCU: 0x539A7, offset: 0x2B390B, size: 0x8, addend: 0x0, symName: __ZN3sdc4core25BarcodeCountListenerProxyD1Ev, symObjAddr: 0x5C68, symBinAddr: 0x2F9CC, symSize: 0x78 }
  - { offsetInCU: 0x53ABA, offset: 0x2B3A1E, size: 0x8, addend: 0x0, symName: __ZN3sdc4core25BarcodeCountListenerProxyD0Ev, symObjAddr: 0x5CE0, symBinAddr: 0x2FA44, symSize: 0x78 }
  - { offsetInCU: 0x53BEF, offset: 0x2B3B53, size: 0x8, addend: 0x0, symName: __ZN3sdc4core25BarcodeCountListenerProxy20onObservationStartedERKNSt3__110shared_ptrINS_12BarcodeCountEEE, symObjAddr: 0x5D58, symBinAddr: 0x2FABC, symSize: 0x94 }
  - { offsetInCU: 0x53CBA, offset: 0x2B3C1E, size: 0x8, addend: 0x0, symName: __ZN3sdc4core25BarcodeCountListenerProxy20onObservationStoppedERKNSt3__110shared_ptrINS_12BarcodeCountEEE, symObjAddr: 0x5DEC, symBinAddr: 0x2FB50, symSize: 0x94 }
  - { offsetInCU: 0x53D85, offset: 0x2B3CE9, size: 0x8, addend: 0x0, symName: __ZN3sdc4core36DetectorBasedDataCaptureModeListenerINS_12BarcodeCountENS_20BarcodeCountSettingsEE17onSettingsUpdatedERKNSt3__110shared_ptrIS2_EERKNS6_IS3_EE, symObjAddr: 0x5E80, symBinAddr: 0x2FBE4, symSize: 0x4 }
  - { offsetInCU: 0x53E1A, offset: 0x2B3D7E, size: 0x8, addend: 0x0, symName: __ZN3sdc4core25BarcodeCountListenerProxy16onSessionUpdatedERKNSt3__110shared_ptrINS_12BarcodeCountEEERKNS3_INS_19BarcodeCountSessionEEERKNS3_INS0_9FrameDataEEE, symObjAddr: 0x5E84, symBinAddr: 0x2FBE8, symSize: 0x100 }
  - { offsetInCU: 0x53F6F, offset: 0x2B3ED3, size: 0x8, addend: 0x0, symName: __ZN3sdc4core25BarcodeCountListenerProxy6onScanERKNSt3__110shared_ptrINS_12BarcodeCountEEERKNS3_INS_19BarcodeCountSessionEEERKNS3_INS0_9FrameDataEEE, symObjAddr: 0x5F84, symBinAddr: 0x2FCE8, symSize: 0xEC }
  - { offsetInCU: 0x540C4, offset: 0x2B4028, size: 0x8, addend: 0x0, symName: __ZN3sdc20BarcodeCountListener22onContextStatusChangedERKNSt3__110shared_ptrINS_12BarcodeCountEEERKNS2_INS_4core18DataCaptureContextEEENS7_13ContextStatusE, symObjAddr: 0x6070, symBinAddr: 0x2FDD4, symSize: 0x4 }
  - { offsetInCU: 0x54114, offset: 0x2B4078, size: 0x8, addend: 0x0, symName: __ZN3sdc20BarcodeCountListener25onTrackedBarcodeUncountedERKNSt3__110shared_ptrINS_19BarcodeCountSessionEEERKNS2_INS_4core14TrackedBarcodeEEE, symObjAddr: 0x6074, symBinAddr: 0x2FDD8, symSize: 0x4 }
  - { offsetInCU: 0x54155, offset: 0x2B40B9, size: 0x8, addend: 0x0, symName: __ZN11proxy_cache13ListenerProxyIU8__strongPU34objcproto23SDCBarcodeCountListener11objc_objectN3sdc20BarcodeCountListenerEED1Ev, symObjAddr: 0x6078, symBinAddr: 0x271B50, symSize: 0x4 }
  - { offsetInCU: 0x54180, offset: 0x2B40E4, size: 0x8, addend: 0x0, symName: __ZN11proxy_cache13ListenerProxyIU8__strongPU34objcproto23SDCBarcodeCountListener11objc_objectN3sdc20BarcodeCountListenerEED0Ev, symObjAddr: 0x607C, symBinAddr: 0x271B54, symSize: 0x4 }
  - { offsetInCU: 0x54513, offset: 0x2B4477, size: 0x8, addend: 0x0, symName: __ZZN6djinni18get_cpp_proxy_implI22SDCBarcodeCountSessionN3sdc19BarcodeCountSessionEEEPT_RKNSt3__110shared_ptrIT0_EEENUlRKNS7_IvEEE_8__invokeESE_, symObjAddr: 0x63D4, symBinAddr: 0x2FFBC, symSize: 0xE0 }
  - { offsetInCU: 0x547C5, offset: 0x2B4729, size: 0x8, addend: 0x0, symName: __ZZN6djinni18get_cpp_proxy_implI22SDCBarcodeCountSessionN3sdc19BarcodeCountSessionEEEPT_RKNSt3__110shared_ptrIT0_EEENUlRKNS7_IvEEE_8__invokeESE_.cold.1, symObjAddr: 0x80D4, symBinAddr: 0x271CB0, symSize: 0x2C }
  - { offsetInCU: 0x54A9E, offset: 0x2B4A02, size: 0x8, addend: 0x0, symName: __ZZN6djinniL14get_objc_proxyIN3sdc4core30BarcodeCountStateListenerProxyEU39objcproto28SDCBarcodeCountStateListener11objc_objectEENSt3__110shared_ptrIT_EEPT0_ENUlRU8__strongKP11objc_objectE_8__invokeESE_, symObjAddr: 0x66A4, symBinAddr: 0x301AC, symSize: 0x7C }
  - { offsetInCU: 0x54E2B, offset: 0x2B4D8F, size: 0x8, addend: 0x0, symName: __ZNSt3__120__shared_ptr_emplaceIN3sdc4core30BarcodeCountStateListenerProxyENS_9allocatorIS3_EEED1Ev, symObjAddr: 0x6720, symBinAddr: 0x30228, symSize: 0x10 }
  - { offsetInCU: 0x54E4F, offset: 0x2B4DB3, size: 0x8, addend: 0x0, symName: __ZNSt3__120__shared_ptr_emplaceIN3sdc4core30BarcodeCountStateListenerProxyENS_9allocatorIS3_EEED1Ev, symObjAddr: 0x6720, symBinAddr: 0x30228, symSize: 0x10 }
  - { offsetInCU: 0x54E88, offset: 0x2B4DEC, size: 0x8, addend: 0x0, symName: __ZNSt3__120__shared_ptr_emplaceIN3sdc4core30BarcodeCountStateListenerProxyENS_9allocatorIS3_EEED0Ev, symObjAddr: 0x6730, symBinAddr: 0x30238, symSize: 0x20 }
  - { offsetInCU: 0x54F60, offset: 0x2B4EC4, size: 0x8, addend: 0x0, symName: __ZNSt3__120__shared_ptr_emplaceIN3sdc4core30BarcodeCountStateListenerProxyENS_9allocatorIS3_EEE16__on_zero_sharedEv, symObjAddr: 0x6750, symBinAddr: 0x30258, symSize: 0x70 }
  - { offsetInCU: 0x55090, offset: 0x2B4FF4, size: 0x8, addend: 0x0, symName: __ZN6djinni10ProxyCacheINS_20ObjcProxyCacheTraitsEE6HandleIU6__weakPU39objcproto28SDCBarcodeCountStateListener11objc_objectU8__strongS5_ED2Ev, symObjAddr: 0x6B68, symBinAddr: 0x30668, symSize: 0xF8 }
  - { offsetInCU: 0x551B7, offset: 0x2B511B, size: 0x8, addend: 0x0, symName: __ZNSt3__120__shared_ptr_emplaceIN3sdc4core30BarcodeCountStateListenerProxyENS_9allocatorIS3_EEE21__on_zero_shared_weakEv, symObjAddr: 0x67C0, symBinAddr: 0x302C8, symSize: 0x4 }
  - { offsetInCU: 0x551EC, offset: 0x2B5150, size: 0x8, addend: 0x0, symName: __ZNSt3__120__shared_ptr_emplaceIN3sdc4core30BarcodeCountStateListenerProxyENS_9allocatorIS3_EEE21__on_zero_shared_weakEv, symObjAddr: 0x67C0, symBinAddr: 0x302C8, symSize: 0x4 }
  - { offsetInCU: 0x55211, offset: 0x2B5175, size: 0x8, addend: 0x0, symName: __ZNSt3__120__shared_ptr_emplaceIN3sdc4core30BarcodeCountStateListenerProxyENS_9allocatorIS3_EEE21__on_zero_shared_weakEv, symObjAddr: 0x67C0, symBinAddr: 0x302C8, symSize: 0x4 }
  - { offsetInCU: 0x55236, offset: 0x2B519A, size: 0x8, addend: 0x0, symName: __ZNSt3__120__shared_ptr_emplaceIN3sdc4core30BarcodeCountStateListenerProxyENS_9allocatorIS3_EEE21__on_zero_shared_weakEv, symObjAddr: 0x67C0, symBinAddr: 0x302C8, symSize: 0x4 }
  - { offsetInCU: 0x55266, offset: 0x2B51CA, size: 0x8, addend: 0x0, symName: __ZNSt3__120__shared_ptr_emplaceIN3sdc4core30BarcodeCountStateListenerProxyENS_9allocatorIS3_EEE21__on_zero_shared_weakEv, symObjAddr: 0x67C0, symBinAddr: 0x302C8, symSize: 0x4 }
  - { offsetInCU: 0x55290, offset: 0x2B51F4, size: 0x8, addend: 0x0, symName: __ZNSt3__120__shared_ptr_emplaceIN3sdc4core30BarcodeCountStateListenerProxyENS_9allocatorIS3_EEE21__on_zero_shared_weakEv, symObjAddr: 0x67C0, symBinAddr: 0x302C8, symSize: 0x4 }
  - { offsetInCU: 0x55322, offset: 0x2B5286, size: 0x8, addend: 0x0, symName: __ZN3sdc4core30BarcodeCountStateListenerProxyD1Ev, symObjAddr: 0x6888, symBinAddr: 0x30390, symSize: 0x78 }
  - { offsetInCU: 0x55435, offset: 0x2B5399, size: 0x8, addend: 0x0, symName: __ZN3sdc4core30BarcodeCountStateListenerProxyD0Ev, symObjAddr: 0x6900, symBinAddr: 0x30408, symSize: 0x78 }
  - { offsetInCU: 0x5556A, offset: 0x2B54CE, size: 0x8, addend: 0x0, symName: __ZN3sdc4core30BarcodeCountStateListenerProxy20onObservationStartedERKNSt3__110shared_ptrINS_12BarcodeCountEEE, symObjAddr: 0x6978, symBinAddr: 0x30480, symSize: 0x94 }
  - { offsetInCU: 0x55635, offset: 0x2B5599, size: 0x8, addend: 0x0, symName: __ZN3sdc4core30BarcodeCountStateListenerProxy20onObservationStoppedERKNSt3__110shared_ptrINS_12BarcodeCountEEE, symObjAddr: 0x6A0C, symBinAddr: 0x30514, symSize: 0x94 }
  - { offsetInCU: 0x55700, offset: 0x2B5664, size: 0x8, addend: 0x0, symName: __ZN3sdc4core30BarcodeCountStateListenerProxy14onStateChangedENS_17BarcodeCountStateES2_RKNSt3__110shared_ptrINS0_9FrameDataEEERKNS4_INS_12BarcodeCountEEE, symObjAddr: 0x6AA0, symBinAddr: 0x305A8, symSize: 0xC0 }
  - { offsetInCU: 0x5580D, offset: 0x2B5771, size: 0x8, addend: 0x0, symName: __ZN11proxy_cache13ListenerProxyIU8__strongPU39objcproto28SDCBarcodeCountStateListener11objc_objectN3sdc25BarcodeCountStateListenerEED1Ev, symObjAddr: 0x6B60, symBinAddr: 0x271B58, symSize: 0x4 }
  - { offsetInCU: 0x55838, offset: 0x2B579C, size: 0x8, addend: 0x0, symName: __ZN11proxy_cache13ListenerProxyIU8__strongPU39objcproto28SDCBarcodeCountStateListener11objc_objectN3sdc25BarcodeCountStateListenerEED0Ev, symObjAddr: 0x6B64, symBinAddr: 0x271B5C, symSize: 0x4 }
  - { offsetInCU: 0x55A0C, offset: 0x2B5970, size: 0x8, addend: 0x0, symName: __ZNKSt3__16vectorINS_10shared_ptrIN3sdc4core7BarcodeEEENS_9allocatorIS5_EEE20__throw_length_errorB8ue170006Ev, symObjAddr: 0x6D70, symBinAddr: 0x30870, symSize: 0x14 }
  - { offsetInCU: 0x55A36, offset: 0x2B599A, size: 0x8, addend: 0x0, symName: __ZNSt3__16vectorINS_10shared_ptrIN3sdc4core7BarcodeEEENS_9allocatorIS5_EEE24__emplace_back_slow_pathIJS5_EEEvDpOT_, symObjAddr: 0x6D84, symBinAddr: 0x30884, symSize: 0x160 }
  - { offsetInCU: 0x55E4A, offset: 0x2B5DAE, size: 0x8, addend: 0x0, symName: __ZZN6djinniL14get_objc_proxyIN3sdc4core31BarcodeCountStatusProviderProxyEU40objcproto29SDCBarcodeCountStatusProvider11objc_objectEENSt3__110shared_ptrIT_EEPT0_ENUlRU8__strongKP11objc_objectE_8__invokeESE_, symObjAddr: 0x6EE4, symBinAddr: 0x309E4, symSize: 0x7C }
  - { offsetInCU: 0x561BA, offset: 0x2B611E, size: 0x8, addend: 0x0, symName: __ZN11proxy_cache13ListenerProxyIU8__strongPU40objcproto29SDCBarcodeCountStatusProvider11objc_objectN3sdc26BarcodeCountStatusProviderEEC2ES2_, symObjAddr: 0x7010, symBinAddr: 0x30B10, symSize: 0xCC }
  - { offsetInCU: 0x563C4, offset: 0x2B6328, size: 0x8, addend: 0x0, symName: __ZNSt3__120__shared_ptr_emplaceIN3sdc4core31BarcodeCountStatusProviderProxyENS_9allocatorIS3_EEED1Ev, symObjAddr: 0x6F60, symBinAddr: 0x30A60, symSize: 0x10 }
  - { offsetInCU: 0x563E8, offset: 0x2B634C, size: 0x8, addend: 0x0, symName: __ZNSt3__120__shared_ptr_emplaceIN3sdc4core31BarcodeCountStatusProviderProxyENS_9allocatorIS3_EEED1Ev, symObjAddr: 0x6F60, symBinAddr: 0x30A60, symSize: 0x10 }
  - { offsetInCU: 0x56421, offset: 0x2B6385, size: 0x8, addend: 0x0, symName: __ZNSt3__120__shared_ptr_emplaceIN3sdc4core31BarcodeCountStatusProviderProxyENS_9allocatorIS3_EEED0Ev, symObjAddr: 0x6F70, symBinAddr: 0x30A70, symSize: 0x20 }
  - { offsetInCU: 0x564F9, offset: 0x2B645D, size: 0x8, addend: 0x0, symName: __ZNSt3__120__shared_ptr_emplaceIN3sdc4core31BarcodeCountStatusProviderProxyENS_9allocatorIS3_EEE16__on_zero_sharedEv, symObjAddr: 0x6F90, symBinAddr: 0x30A90, symSize: 0x7C }
  - { offsetInCU: 0x56649, offset: 0x2B65AD, size: 0x8, addend: 0x0, symName: __ZN6djinni10ProxyCacheINS_20ObjcProxyCacheTraitsEE6HandleIU6__weakPU40objcproto29SDCBarcodeCountStatusProvider11objc_objectU8__strongS5_ED2Ev, symObjAddr: 0x72F0, symBinAddr: 0x30DE8, symSize: 0xF8 }
  - { offsetInCU: 0x56770, offset: 0x2B66D4, size: 0x8, addend: 0x0, symName: __ZNSt3__120__shared_ptr_emplaceIN3sdc4core31BarcodeCountStatusProviderProxyENS_9allocatorIS3_EEE21__on_zero_shared_weakEv, symObjAddr: 0x700C, symBinAddr: 0x30B0C, symSize: 0x4 }
  - { offsetInCU: 0x567A5, offset: 0x2B6709, size: 0x8, addend: 0x0, symName: __ZNSt3__120__shared_ptr_emplaceIN3sdc4core31BarcodeCountStatusProviderProxyENS_9allocatorIS3_EEE21__on_zero_shared_weakEv, symObjAddr: 0x700C, symBinAddr: 0x30B0C, symSize: 0x4 }
  - { offsetInCU: 0x567CA, offset: 0x2B672E, size: 0x8, addend: 0x0, symName: __ZNSt3__120__shared_ptr_emplaceIN3sdc4core31BarcodeCountStatusProviderProxyENS_9allocatorIS3_EEE21__on_zero_shared_weakEv, symObjAddr: 0x700C, symBinAddr: 0x30B0C, symSize: 0x4 }
  - { offsetInCU: 0x567EF, offset: 0x2B6753, size: 0x8, addend: 0x0, symName: __ZNSt3__120__shared_ptr_emplaceIN3sdc4core31BarcodeCountStatusProviderProxyENS_9allocatorIS3_EEE21__on_zero_shared_weakEv, symObjAddr: 0x700C, symBinAddr: 0x30B0C, symSize: 0x4 }
  - { offsetInCU: 0x5681F, offset: 0x2B6783, size: 0x8, addend: 0x0, symName: __ZNSt3__120__shared_ptr_emplaceIN3sdc4core31BarcodeCountStatusProviderProxyENS_9allocatorIS3_EEE21__on_zero_shared_weakEv, symObjAddr: 0x700C, symBinAddr: 0x30B0C, symSize: 0x4 }
  - { offsetInCU: 0x56849, offset: 0x2B67AD, size: 0x8, addend: 0x0, symName: __ZNSt3__120__shared_ptr_emplaceIN3sdc4core31BarcodeCountStatusProviderProxyENS_9allocatorIS3_EEE21__on_zero_shared_weakEv, symObjAddr: 0x700C, symBinAddr: 0x30B0C, symSize: 0x4 }
  - { offsetInCU: 0x568DB, offset: 0x2B683F, size: 0x8, addend: 0x0, symName: __ZN3sdc4core31BarcodeCountStatusProviderProxyD1Ev, symObjAddr: 0x70DC, symBinAddr: 0x30BDC, symSize: 0x78 }
  - { offsetInCU: 0x569FE, offset: 0x2B6962, size: 0x8, addend: 0x0, symName: __ZN3sdc4core31BarcodeCountStatusProviderProxyD0Ev, symObjAddr: 0x7154, symBinAddr: 0x30C54, symSize: 0x80 }
  - { offsetInCU: 0x56C59, offset: 0x2B6BBD, size: 0x8, addend: 0x0, symName: __ZN3sdc4core31BarcodeCountStatusProviderProxy17onStatusRequestedERKNSt3__16vectorINS2_10shared_ptrINS0_14TrackedBarcodeEEENS2_9allocatorIS6_EEEERKNS4_INS_34BarcodeCountStatusProviderCallbackEEE, symObjAddr: 0x71D4, symBinAddr: 0x30CD4, symSize: 0x114 }
  - { offsetInCU: 0x56D8D, offset: 0x2B6CF1, size: 0x8, addend: 0x0, symName: __ZN11proxy_cache13ListenerProxyIU8__strongPU40objcproto29SDCBarcodeCountStatusProvider11objc_objectN3sdc26BarcodeCountStatusProviderEED1Ev, symObjAddr: 0x72E8, symBinAddr: 0x271B60, symSize: 0x4 }
  - { offsetInCU: 0x56DB8, offset: 0x2B6D1C, size: 0x8, addend: 0x0, symName: __ZN11proxy_cache13ListenerProxyIU8__strongPU40objcproto29SDCBarcodeCountStatusProvider11objc_objectN3sdc26BarcodeCountStatusProviderEED0Ev, symObjAddr: 0x72EC, symBinAddr: 0x271B64, symSize: 0x4 }
  - { offsetInCU: 0x56DE3, offset: 0x2B6D47, size: 0x8, addend: 0x0, symName: ____ZN3sdc4core31BarcodeCountStatusProviderProxy17onStatusRequestedERKNSt3__16vectorINS2_10shared_ptrINS0_14TrackedBarcodeEEENS2_9allocatorIS6_EEEERKNS4_INS_34BarcodeCountStatusProviderCallbackEEE_block_invoke, symObjAddr: 0x73E8, symBinAddr: 0x30EE0, symSize: 0x8 }
  - { offsetInCU: 0x5703B, offset: 0x2B6F9F, size: 0x8, addend: 0x0, symName: __ZZN6djinni18get_cpp_proxy_implI37SDCBarcodeCountStatusProviderCallbackN3sdc34BarcodeCountStatusProviderCallbackEEEPT_RKNSt3__110shared_ptrIT0_EEENUlRKNS7_IvEEE_8__invokeESE_, symObjAddr: 0x74D8, symBinAddr: 0x30FD0, symSize: 0xE0 }
  - { offsetInCU: 0x572ED, offset: 0x2B7251, size: 0x8, addend: 0x0, symName: __ZZN6djinni18get_cpp_proxy_implI37SDCBarcodeCountStatusProviderCallbackN3sdc34BarcodeCountStatusProviderCallbackEEEPT_RKNSt3__110shared_ptrIT0_EEENUlRKNS7_IvEEE_8__invokeESE_.cold.1, symObjAddr: 0x812C, symBinAddr: 0x271CDC, symSize: 0x2C }
  - { offsetInCU: 0x57464, offset: 0x2B73C8, size: 0x8, addend: 0x0, symName: __ZNSt3__110shared_ptrIN3sdc4core14TrackedBarcodeEED1B8ue170006Ev, symObjAddr: 0x771C, symBinAddr: 0x31214, symSize: 0x68 }
  - { offsetInCU: 0x576B2, offset: 0x2B7616, size: 0x8, addend: 0x0, symName: __ZZN6djinni18get_cpp_proxy_implI17SDCTrackedBarcodeN3sdc4core14TrackedBarcodeEEEPT_RKNSt3__110shared_ptrIT0_EEENUlRKNS8_IvEEE_8__invokeESF_, symObjAddr: 0x786C, symBinAddr: 0x31364, symSize: 0xE0 }
  - { offsetInCU: 0x57964, offset: 0x2B78C8, size: 0x8, addend: 0x0, symName: __ZZN6djinni18get_cpp_proxy_implI17SDCTrackedBarcodeN3sdc4core14TrackedBarcodeEEEPT_RKNSt3__110shared_ptrIT0_EEENUlRKNS8_IvEEE_8__invokeESF_.cold.1, symObjAddr: 0x8158, symBinAddr: 0x271D08, symSize: 0x2C }
  - { offsetInCU: 0x57A28, offset: 0x2B798C, size: 0x8, addend: 0x0, symName: __ZNSt3__120__shared_ptr_emplaceIN12_GLOBAL__N_123IosBarcodeCountFeedbackENS_9allocatorIS2_EEED1Ev, symObjAddr: 0x794C, symBinAddr: 0x31444, symSize: 0x10 }
  - { offsetInCU: 0x57A4C, offset: 0x2B79B0, size: 0x8, addend: 0x0, symName: __ZNSt3__120__shared_ptr_emplaceIN12_GLOBAL__N_123IosBarcodeCountFeedbackENS_9allocatorIS2_EEED1Ev, symObjAddr: 0x794C, symBinAddr: 0x31444, symSize: 0x10 }
  - { offsetInCU: 0x57A85, offset: 0x2B79E9, size: 0x8, addend: 0x0, symName: __ZNSt3__120__shared_ptr_emplaceIN12_GLOBAL__N_123IosBarcodeCountFeedbackENS_9allocatorIS2_EEED0Ev, symObjAddr: 0x795C, symBinAddr: 0x31454, symSize: 0x20 }
  - { offsetInCU: 0x57AEF, offset: 0x2B7A53, size: 0x8, addend: 0x0, symName: __ZNSt3__120__shared_ptr_emplaceIN12_GLOBAL__N_123IosBarcodeCountFeedbackENS_9allocatorIS2_EEE16__on_zero_sharedEv, symObjAddr: 0x797C, symBinAddr: 0x31474, symSize: 0xC }
  - { offsetInCU: 0x57B22, offset: 0x2B7A86, size: 0x8, addend: 0x0, symName: __ZNSt3__120__shared_ptr_emplaceIN12_GLOBAL__N_123IosBarcodeCountFeedbackENS_9allocatorIS2_EEE21__on_zero_shared_weakEv, symObjAddr: 0x7988, symBinAddr: 0x31480, symSize: 0x4 }
  - { offsetInCU: 0x57B57, offset: 0x2B7ABB, size: 0x8, addend: 0x0, symName: __ZNSt3__120__shared_ptr_emplaceIN12_GLOBAL__N_123IosBarcodeCountFeedbackENS_9allocatorIS2_EEE21__on_zero_shared_weakEv, symObjAddr: 0x7988, symBinAddr: 0x31480, symSize: 0x4 }
  - { offsetInCU: 0x57B7C, offset: 0x2B7AE0, size: 0x8, addend: 0x0, symName: __ZNSt3__120__shared_ptr_emplaceIN12_GLOBAL__N_123IosBarcodeCountFeedbackENS_9allocatorIS2_EEE21__on_zero_shared_weakEv, symObjAddr: 0x7988, symBinAddr: 0x31480, symSize: 0x4 }
  - { offsetInCU: 0x57BA1, offset: 0x2B7B05, size: 0x8, addend: 0x0, symName: __ZNSt3__120__shared_ptr_emplaceIN12_GLOBAL__N_123IosBarcodeCountFeedbackENS_9allocatorIS2_EEE21__on_zero_shared_weakEv, symObjAddr: 0x7988, symBinAddr: 0x31480, symSize: 0x4 }
  - { offsetInCU: 0x57BD0, offset: 0x2B7B34, size: 0x8, addend: 0x0, symName: __ZNSt3__120__shared_ptr_emplaceIN12_GLOBAL__N_123IosBarcodeCountFeedbackENS_9allocatorIS2_EEE21__on_zero_shared_weakEv, symObjAddr: 0x7988, symBinAddr: 0x31480, symSize: 0x4 }
  - { offsetInCU: 0x57BF9, offset: 0x2B7B5D, size: 0x8, addend: 0x0, symName: __ZNSt3__120__shared_ptr_emplaceIN12_GLOBAL__N_123IosBarcodeCountFeedbackENS_9allocatorIS2_EEE21__on_zero_shared_weakEv, symObjAddr: 0x7988, symBinAddr: 0x31480, symSize: 0x4 }
  - { offsetInCU: 0x57C75, offset: 0x2B7BD9, size: 0x8, addend: 0x0, symName: __ZN12_GLOBAL__N_123IosBarcodeCountFeedbackD1Ev, symObjAddr: 0x798C, symBinAddr: 0x31484, symSize: 0x48 }
  - { offsetInCU: 0x57CFC, offset: 0x2B7C60, size: 0x8, addend: 0x0, symName: __ZN6djinni10ProxyCacheINS_20ObjcProxyCacheTraitsEE6HandleIU8__strongP23SDCBarcodeCountFeedbackS6_ED2Ev, symObjAddr: 0x7AD8, symBinAddr: 0x315C0, symSize: 0xCC }
  - { offsetInCU: 0x57E3F, offset: 0x2B7DA3, size: 0x8, addend: 0x0, symName: __ZN12_GLOBAL__N_123IosBarcodeCountFeedbackD0Ev, symObjAddr: 0x79D4, symBinAddr: 0x314CC, symSize: 0x48 }
  - { offsetInCU: 0x57EE8, offset: 0x2B7E4C, size: 0x8, addend: 0x0, symName: __ZN12_GLOBAL__N_123IosBarcodeCountFeedback4emitEv, symObjAddr: 0x7A1C, symBinAddr: 0x31514, symSize: 0xAC }
  - { offsetInCU: 0x57F85, offset: 0x2B7EE9, size: 0x8, addend: 0x0, symName: _OUTLINED_FUNCTION_0, symObjAddr: 0x81B0, symBinAddr: 0x318AC, symSize: 0x10 }
  - { offsetInCU: 0x57F9D, offset: 0x2B7F01, size: 0x8, addend: 0x0, symName: _OUTLINED_FUNCTION_1, symObjAddr: 0x81C0, symBinAddr: 0x318BC, symSize: 0x10 }
  - { offsetInCU: 0x57FB5, offset: 0x2B7F19, size: 0x8, addend: 0x0, symName: _OUTLINED_FUNCTION_2, symObjAddr: 0x81D0, symBinAddr: 0x318CC, symSize: 0x8 }
  - { offsetInCU: 0x57FCD, offset: 0x2B7F31, size: 0x8, addend: 0x0, symName: _OUTLINED_FUNCTION_3, symObjAddr: 0x81D8, symBinAddr: 0x318D4, symSize: 0x8 }
  - { offsetInCU: 0x57FE5, offset: 0x2B7F49, size: 0x8, addend: 0x0, symName: _OUTLINED_FUNCTION_4, symObjAddr: 0x81E0, symBinAddr: 0x318DC, symSize: 0xC }
  - { offsetInCU: 0x57FFD, offset: 0x2B7F61, size: 0x8, addend: 0x0, symName: _OUTLINED_FUNCTION_5, symObjAddr: 0x81EC, symBinAddr: 0x318E8, symSize: 0x10 }
  - { offsetInCU: 0x58015, offset: 0x2B7F79, size: 0x8, addend: 0x0, symName: _OUTLINED_FUNCTION_6, symObjAddr: 0x81FC, symBinAddr: 0x318F8, symSize: 0x10 }
  - { offsetInCU: 0x27, offset: 0x2B81E6, size: 0x8, addend: 0x0, symName: '-[SDCBarcodeCountActionPopover initWithAnchorView:status:settings:colorScheme:]', symObjAddr: 0x0, symBinAddr: 0x31908, symSize: 0x2A0 }
  - { offsetInCU: 0x908, offset: 0x2B8AC7, size: 0x8, addend: 0x0, symName: '-[SDCBarcodeCountActionPopover initWithAnchorView:status:settings:colorScheme:]', symObjAddr: 0x0, symBinAddr: 0x31908, symSize: 0x2A0 }
  - { offsetInCU: 0x97F, offset: 0x2B8B3E, size: 0x8, addend: 0x0, symName: '-[SDCBarcodeCountActionPopover setup]', symObjAddr: 0x2A0, symBinAddr: 0x31BA8, symSize: 0xE18 }
  - { offsetInCU: 0xA32, offset: 0x2B8BF1, size: 0x8, addend: 0x0, symName: '___37-[SDCBarcodeCountActionPopover setup]_block_invoke', symObjAddr: 0x10B8, symBinAddr: 0x329C0, symSize: 0x40 }
  - { offsetInCU: 0xA6D, offset: 0x2B8C2C, size: 0x8, addend: 0x0, symName: ___copy_helper_block_ea8_32w, symObjAddr: 0x10F8, symBinAddr: 0x32A00, symSize: 0xC }
  - { offsetInCU: 0xA96, offset: 0x2B8C55, size: 0x8, addend: 0x0, symName: ___destroy_helper_block_ea8_32w, symObjAddr: 0x1104, symBinAddr: 0x32A0C, symSize: 0x8 }
  - { offsetInCU: 0xAB5, offset: 0x2B8C74, size: 0x8, addend: 0x0, symName: '___37-[SDCBarcodeCountActionPopover setup]_block_invoke.17', symObjAddr: 0x110C, symBinAddr: 0x32A14, symSize: 0x40 }
  - { offsetInCU: 0xAF0, offset: 0x2B8CAF, size: 0x8, addend: 0x0, symName: '___37-[SDCBarcodeCountActionPopover setup]_block_invoke_2', symObjAddr: 0x114C, symBinAddr: 0x32A54, symSize: 0x40 }
  - { offsetInCU: 0xB2B, offset: 0x2B8CEA, size: 0x8, addend: 0x0, symName: '-[SDCBarcodeCountActionPopover didRecognizeTap:]', symObjAddr: 0x118C, symBinAddr: 0x32A94, symSize: 0x4 }
  - { offsetInCU: 0xB66, offset: 0x2B8D25, size: 0x8, addend: 0x0, symName: '-[SDCBarcodeCountActionPopover observeValueForKeyPath:ofObject:change:context:]', symObjAddr: 0x1190, symBinAddr: 0x32A98, symSize: 0x50 }
  - { offsetInCU: 0xBCD, offset: 0x2B8D8C, size: 0x8, addend: 0x0, symName: '-[SDCBarcodeCountActionPopover didMoveToSuperview]', symObjAddr: 0x11E0, symBinAddr: 0x32AE8, symSize: 0x44 }
  - { offsetInCU: 0xC00, offset: 0x2B8DBF, size: 0x8, addend: 0x0, symName: '-[SDCBarcodeCountActionPopover computePosition]', symObjAddr: 0x1224, symBinAddr: 0x32B2C, symSize: 0x858 }
  - { offsetInCU: 0xE32, offset: 0x2B8FF1, size: 0x8, addend: 0x0, symName: '-[SDCBarcodeCountActionPopover setOrientation:]', symObjAddr: 0x1A7C, symBinAddr: 0x33384, symSize: 0x114 }
  - { offsetInCU: 0xED9, offset: 0x2B9098, size: 0x8, addend: 0x0, symName: '-[SDCBarcodeCountActionPopover switchLayoutToOrientation:]', symObjAddr: 0x1B90, symBinAddr: 0x33498, symSize: 0x6A8 }
  - { offsetInCU: 0xF40, offset: 0x2B90FF, size: 0x8, addend: 0x0, symName: '-[SDCBarcodeCountActionPopover didTapAccept]', symObjAddr: 0x2238, symBinAddr: 0x33B40, symSize: 0x60 }
  - { offsetInCU: 0xF85, offset: 0x2B9144, size: 0x8, addend: 0x0, symName: '-[SDCBarcodeCountActionPopover didTapReject]', symObjAddr: 0x2298, symBinAddr: 0x33BA0, symSize: 0x60 }
  - { offsetInCU: 0xFCA, offset: 0x2B9189, size: 0x8, addend: 0x0, symName: '-[SDCBarcodeCountActionPopover didTapCancel]', symObjAddr: 0x22F8, symBinAddr: 0x33C00, symSize: 0x60 }
  - { offsetInCU: 0x100F, offset: 0x2B91CE, size: 0x8, addend: 0x0, symName: '-[SDCBarcodeCountActionPopover anchorView]', symObjAddr: 0x2358, symBinAddr: 0x33C60, symSize: 0x20 }
  - { offsetInCU: 0x1046, offset: 0x2B9205, size: 0x8, addend: 0x0, symName: '-[SDCBarcodeCountActionPopover setAnchorView:]', symObjAddr: 0x2378, symBinAddr: 0x33C80, symSize: 0x14 }
  - { offsetInCU: 0x1087, offset: 0x2B9246, size: 0x8, addend: 0x0, symName: '-[SDCBarcodeCountActionPopover status]', symObjAddr: 0x238C, symBinAddr: 0x33C94, symSize: 0x10 }
  - { offsetInCU: 0x10BE, offset: 0x2B927D, size: 0x8, addend: 0x0, symName: '-[SDCBarcodeCountActionPopover setStatus:]', symObjAddr: 0x239C, symBinAddr: 0x33CA4, symSize: 0x10 }
  - { offsetInCU: 0x10FB, offset: 0x2B92BA, size: 0x8, addend: 0x0, symName: '-[SDCBarcodeCountActionPopover delegate]', symObjAddr: 0x23AC, symBinAddr: 0x33CB4, symSize: 0x20 }
  - { offsetInCU: 0x1132, offset: 0x2B92F1, size: 0x8, addend: 0x0, symName: '-[SDCBarcodeCountActionPopover setDelegate:]', symObjAddr: 0x23CC, symBinAddr: 0x33CD4, symSize: 0x14 }
  - { offsetInCU: 0x1173, offset: 0x2B9332, size: 0x8, addend: 0x0, symName: '-[SDCBarcodeCountActionPopover settings]', symObjAddr: 0x23E0, symBinAddr: 0x33CE8, symSize: 0x10 }
  - { offsetInCU: 0x11AA, offset: 0x2B9369, size: 0x8, addend: 0x0, symName: '-[SDCBarcodeCountActionPopover setSettings:]', symObjAddr: 0x23F0, symBinAddr: 0x33CF8, symSize: 0x14 }
  - { offsetInCU: 0x11EB, offset: 0x2B93AA, size: 0x8, addend: 0x0, symName: '-[SDCBarcodeCountActionPopover colorScheme]', symObjAddr: 0x2404, symBinAddr: 0x33D0C, symSize: 0x10 }
  - { offsetInCU: 0x1222, offset: 0x2B93E1, size: 0x8, addend: 0x0, symName: '-[SDCBarcodeCountActionPopover setColorScheme:]', symObjAddr: 0x2414, symBinAddr: 0x33D1C, symSize: 0x10 }
  - { offsetInCU: 0x125F, offset: 0x2B941E, size: 0x8, addend: 0x0, symName: '-[SDCBarcodeCountActionPopover orientation]', symObjAddr: 0x2424, symBinAddr: 0x33D2C, symSize: 0x10 }
  - { offsetInCU: 0x1296, offset: 0x2B9455, size: 0x8, addend: 0x0, symName: '-[SDCBarcodeCountActionPopover orientationPreferenceOrder]', symObjAddr: 0x2434, symBinAddr: 0x33D3C, symSize: 0x10 }
  - { offsetInCU: 0x12CD, offset: 0x2B948C, size: 0x8, addend: 0x0, symName: '-[SDCBarcodeCountActionPopover setOrientationPreferenceOrder:]', symObjAddr: 0x2444, symBinAddr: 0x33D4C, symSize: 0x14 }
  - { offsetInCU: 0x130E, offset: 0x2B94CD, size: 0x8, addend: 0x0, symName: '-[SDCBarcodeCountActionPopover stackView]', symObjAddr: 0x2458, symBinAddr: 0x33D60, symSize: 0x10 }
  - { offsetInCU: 0x1345, offset: 0x2B9504, size: 0x8, addend: 0x0, symName: '-[SDCBarcodeCountActionPopover setStackView:]', symObjAddr: 0x2468, symBinAddr: 0x33D70, symSize: 0x14 }
  - { offsetInCU: 0x1386, offset: 0x2B9545, size: 0x8, addend: 0x0, symName: '-[SDCBarcodeCountActionPopover anchorConstraints]', symObjAddr: 0x247C, symBinAddr: 0x33D84, symSize: 0x10 }
  - { offsetInCU: 0x13BD, offset: 0x2B957C, size: 0x8, addend: 0x0, symName: '-[SDCBarcodeCountActionPopover setAnchorConstraints:]', symObjAddr: 0x248C, symBinAddr: 0x33D94, symSize: 0x14 }
  - { offsetInCU: 0x13FE, offset: 0x2B95BD, size: 0x8, addend: 0x0, symName: '-[SDCBarcodeCountActionPopover portraitConstraints]', symObjAddr: 0x24A0, symBinAddr: 0x33DA8, symSize: 0x10 }
  - { offsetInCU: 0x1435, offset: 0x2B95F4, size: 0x8, addend: 0x0, symName: '-[SDCBarcodeCountActionPopover setPortraitConstraints:]', symObjAddr: 0x24B0, symBinAddr: 0x33DB8, symSize: 0x14 }
  - { offsetInCU: 0x1476, offset: 0x2B9635, size: 0x8, addend: 0x0, symName: '-[SDCBarcodeCountActionPopover landscapeConstraints]', symObjAddr: 0x24C4, symBinAddr: 0x33DCC, symSize: 0x10 }
  - { offsetInCU: 0x14AD, offset: 0x2B966C, size: 0x8, addend: 0x0, symName: '-[SDCBarcodeCountActionPopover setLandscapeConstraints:]', symObjAddr: 0x24D4, symBinAddr: 0x33DDC, symSize: 0x14 }
  - { offsetInCU: 0x14EE, offset: 0x2B96AD, size: 0x8, addend: 0x0, symName: '-[SDCBarcodeCountActionPopover .cxx_destruct]', symObjAddr: 0x24E8, symBinAddr: 0x33DF0, symSize: 0xB0 }
  - { offsetInCU: 0x27, offset: 0x2BABCF, size: 0x8, addend: 0x0, symName: '-[SDCBarcodeCountActionPopoverButtonStyle initWithEnabledImageName:disabledImageName:text:accessibilityHint:accessibilityLabel:]', symObjAddr: 0x0, symBinAddr: 0x33EA0, symSize: 0x180 }
  - { offsetInCU: 0x339, offset: 0x2BAEE1, size: 0x8, addend: 0x0, symName: '-[SDCBarcodeCountActionPopoverButtonStyle initWithEnabledImageName:disabledImageName:text:accessibilityHint:accessibilityLabel:]', symObjAddr: 0x0, symBinAddr: 0x33EA0, symSize: 0x180 }
  - { offsetInCU: 0x3C0, offset: 0x2BAF68, size: 0x8, addend: 0x0, symName: '-[SDCBarcodeCountActionPopoverButtonStyle enabledImageName]', symObjAddr: 0x180, symBinAddr: 0x34020, symSize: 0x8 }
  - { offsetInCU: 0x3F7, offset: 0x2BAF9F, size: 0x8, addend: 0x0, symName: '-[SDCBarcodeCountActionPopoverButtonStyle setEnabledImageName:]', symObjAddr: 0x188, symBinAddr: 0x34028, symSize: 0xC }
  - { offsetInCU: 0x438, offset: 0x2BAFE0, size: 0x8, addend: 0x0, symName: '-[SDCBarcodeCountActionPopoverButtonStyle disabledImageName]', symObjAddr: 0x194, symBinAddr: 0x34034, symSize: 0x8 }
  - { offsetInCU: 0x46F, offset: 0x2BB017, size: 0x8, addend: 0x0, symName: '-[SDCBarcodeCountActionPopoverButtonStyle setDisabledImageName:]', symObjAddr: 0x19C, symBinAddr: 0x3403C, symSize: 0xC }
  - { offsetInCU: 0x4B0, offset: 0x2BB058, size: 0x8, addend: 0x0, symName: '-[SDCBarcodeCountActionPopoverButtonStyle text]', symObjAddr: 0x1A8, symBinAddr: 0x34048, symSize: 0x8 }
  - { offsetInCU: 0x4E7, offset: 0x2BB08F, size: 0x8, addend: 0x0, symName: '-[SDCBarcodeCountActionPopoverButtonStyle setText:]', symObjAddr: 0x1B0, symBinAddr: 0x34050, symSize: 0xC }
  - { offsetInCU: 0x528, offset: 0x2BB0D0, size: 0x8, addend: 0x0, symName: '-[SDCBarcodeCountActionPopoverButtonStyle accessibilityHint]', symObjAddr: 0x1BC, symBinAddr: 0x3405C, symSize: 0x8 }
  - { offsetInCU: 0x55F, offset: 0x2BB107, size: 0x8, addend: 0x0, symName: '-[SDCBarcodeCountActionPopoverButtonStyle setAccessibilityHint:]', symObjAddr: 0x1C4, symBinAddr: 0x34064, symSize: 0xC }
  - { offsetInCU: 0x5A0, offset: 0x2BB148, size: 0x8, addend: 0x0, symName: '-[SDCBarcodeCountActionPopoverButtonStyle accessibilityLabel]', symObjAddr: 0x1D0, symBinAddr: 0x34070, symSize: 0x8 }
  - { offsetInCU: 0x5D7, offset: 0x2BB17F, size: 0x8, addend: 0x0, symName: '-[SDCBarcodeCountActionPopoverButtonStyle setAccessibilityLabel:]', symObjAddr: 0x1D8, symBinAddr: 0x34078, symSize: 0xC }
  - { offsetInCU: 0x618, offset: 0x2BB1C0, size: 0x8, addend: 0x0, symName: '-[SDCBarcodeCountActionPopoverButtonStyle .cxx_destruct]', symObjAddr: 0x1E4, symBinAddr: 0x34084, symSize: 0x54 }
  - { offsetInCU: 0x64B, offset: 0x2BB1F3, size: 0x8, addend: 0x0, symName: '-[SDCBarcodeCountActionPopoverButton initWithStyle:]', symObjAddr: 0x238, symBinAddr: 0x340D8, symSize: 0x160 }
  - { offsetInCU: 0x692, offset: 0x2BB23A, size: 0x8, addend: 0x0, symName: '-[SDCBarcodeCountActionPopoverButton setup]', symObjAddr: 0x398, symBinAddr: 0x34238, symSize: 0xD20 }
  - { offsetInCU: 0x6E5, offset: 0x2BB28D, size: 0x8, addend: 0x0, symName: '-[SDCBarcodeCountActionPopoverButton setHighlighted:]', symObjAddr: 0x10B8, symBinAddr: 0x34F58, symSize: 0xD8 }
  - { offsetInCU: 0x728, offset: 0x2BB2D0, size: 0x8, addend: 0x0, symName: '-[SDCBarcodeCountActionPopoverButton setEnabled:]', symObjAddr: 0x1190, symBinAddr: 0x35030, symSize: 0xDC }
  - { offsetInCU: 0x76B, offset: 0x2BB313, size: 0x8, addend: 0x0, symName: '-[SDCBarcodeCountActionPopoverButton didTap]', symObjAddr: 0x126C, symBinAddr: 0x3510C, symSize: 0x74 }
  - { offsetInCU: 0x7AA, offset: 0x2BB352, size: 0x8, addend: 0x0, symName: '-[SDCBarcodeCountActionPopoverButton onTap]', symObjAddr: 0x12E0, symBinAddr: 0x35180, symSize: 0x10 }
  - { offsetInCU: 0x7E1, offset: 0x2BB389, size: 0x8, addend: 0x0, symName: '-[SDCBarcodeCountActionPopoverButton setOnTap:]', symObjAddr: 0x12F0, symBinAddr: 0x35190, symSize: 0xC }
  - { offsetInCU: 0x820, offset: 0x2BB3C8, size: 0x8, addend: 0x0, symName: '-[SDCBarcodeCountActionPopoverButton image]', symObjAddr: 0x12FC, symBinAddr: 0x3519C, symSize: 0x10 }
  - { offsetInCU: 0x857, offset: 0x2BB3FF, size: 0x8, addend: 0x0, symName: '-[SDCBarcodeCountActionPopoverButton setImage:]', symObjAddr: 0x130C, symBinAddr: 0x351AC, symSize: 0x14 }
  - { offsetInCU: 0x898, offset: 0x2BB440, size: 0x8, addend: 0x0, symName: '-[SDCBarcodeCountActionPopoverButton label]', symObjAddr: 0x1320, symBinAddr: 0x351C0, symSize: 0x10 }
  - { offsetInCU: 0x8CF, offset: 0x2BB477, size: 0x8, addend: 0x0, symName: '-[SDCBarcodeCountActionPopoverButton setLabel:]', symObjAddr: 0x1330, symBinAddr: 0x351D0, symSize: 0x14 }
  - { offsetInCU: 0x910, offset: 0x2BB4B8, size: 0x8, addend: 0x0, symName: '-[SDCBarcodeCountActionPopoverButton style]', symObjAddr: 0x1344, symBinAddr: 0x351E4, symSize: 0x10 }
  - { offsetInCU: 0x947, offset: 0x2BB4EF, size: 0x8, addend: 0x0, symName: '-[SDCBarcodeCountActionPopoverButton setStyle:]', symObjAddr: 0x1354, symBinAddr: 0x351F4, symSize: 0x14 }
  - { offsetInCU: 0x988, offset: 0x2BB530, size: 0x8, addend: 0x0, symName: '-[SDCBarcodeCountActionPopoverButton .cxx_destruct]', symObjAddr: 0x1368, symBinAddr: 0x35208, symSize: 0x68 }
  - { offsetInCU: 0x27, offset: 0x2BB599, size: 0x8, addend: 0x0, symName: '-[SDCBarcodeCountBaseHighlightHandler init]', symObjAddr: 0x0, symBinAddr: 0x35270, symSize: 0xAC }
  - { offsetInCU: 0xA341, offset: 0x2C58B3, size: 0x8, addend: 0x0, symName: '-[SDCBarcodeCountBaseHighlightHandler init]', symObjAddr: 0x0, symBinAddr: 0x35270, symSize: 0xAC }
  - { offsetInCU: 0xA378, offset: 0x2C58EA, size: 0x8, addend: 0x0, symName: '-[SDCBarcodeCountBaseHighlightHandler barcodeLocalizationForQuadrilateral:]', symObjAddr: 0xAC, symBinAddr: 0x3531C, symSize: 0xD8 }
  - { offsetInCU: 0xA43D, offset: 0x2C59AF, size: 0x8, addend: 0x0, symName: '-[SDCBarcodeCountBaseHighlightHandler frameForHighlightViewWithQuadrilateral:]', symObjAddr: 0x184, symBinAddr: 0x353F4, symSize: 0xA4 }
  - { offsetInCU: 0xA4DE, offset: 0x2C5A50, size: 0x8, addend: 0x0, symName: '-[SDCBarcodeCountBaseHighlightHandler removeOverlayForBarcodeId:]', symObjAddr: 0x228, symBinAddr: 0x35498, symSize: 0xF8 }
  - { offsetInCU: 0xA531, offset: 0x2C5AA3, size: 0x8, addend: 0x0, symName: '-[SDCBarcodeCountBaseHighlightHandler highlightData]', symObjAddr: 0x320, symBinAddr: 0x35590, symSize: 0x8 }
  - { offsetInCU: 0xA568, offset: 0x2C5ADA, size: 0x8, addend: 0x0, symName: '-[SDCBarcodeCountBaseHighlightHandler setHighlightData:]', symObjAddr: 0x328, symBinAddr: 0x35598, symSize: 0xC }
  - { offsetInCU: 0xA5A9, offset: 0x2C5B1B, size: 0x8, addend: 0x0, symName: '-[SDCBarcodeCountBaseHighlightHandler captureView]', symObjAddr: 0x334, symBinAddr: 0x355A4, symSize: 0x18 }
  - { offsetInCU: 0xA5E0, offset: 0x2C5B52, size: 0x8, addend: 0x0, symName: '-[SDCBarcodeCountBaseHighlightHandler setCaptureView:]', symObjAddr: 0x34C, symBinAddr: 0x355BC, symSize: 0xC }
  - { offsetInCU: 0xA621, offset: 0x2C5B93, size: 0x8, addend: 0x0, symName: '-[SDCBarcodeCountBaseHighlightHandler .cxx_destruct]', symObjAddr: 0x358, symBinAddr: 0x355C8, symSize: 0x2C }
  - { offsetInCU: 0x1AAE4, offset: 0x2E0712, size: 0x8, addend: 0x0, symName: __ZNSt3__127__throw_bad_optional_accessB8ue170006Ev, symObjAddr: 0x596C, symBinAddr: 0x3ADF0, symSize: 0x34 }
  - { offsetInCU: 0x1EE4A, offset: 0x2E4A78, size: 0x8, addend: 0x0, symName: __ZN3sdc4core2toIU8__strongPU44objcproto33SDCBarcodeFilterHighlightSettings11objc_objectNSt3__110shared_ptrINS_28BarcodeFilterOverlaySettingsEEEEET_RKT0_, symObjAddr: 0x0, symBinAddr: 0x355F4, symSize: 0xEC }
  - { offsetInCU: 0x23CAD, offset: 0x2E98DB, size: 0x8, addend: 0x0, symName: __ZN6djinni18get_cpp_proxy_implI38SDCBarcodeFilterHighlightSettingsBrushN3sdc28BarcodeFilterOverlaySettingsEEEPT_RKNSt3__110shared_ptrIT0_EE, symObjAddr: 0x5C64, symBinAddr: 0x3AFEC, symSize: 0xE8 }
  - { offsetInCU: 0x23EF4, offset: 0x2E9B22, size: 0x8, addend: 0x0, symName: __ZN6djinni18get_cpp_proxy_implI27SDCBarcodeCountBasicOverlayN3sdc24BarcodeCountBasicOverlayEEEPT_RKNSt3__110shared_ptrIT0_EE, symObjAddr: 0x5A34, symBinAddr: 0x3AE24, symSize: 0xE8 }
  - { offsetInCU: 0x242DC, offset: 0x2E9F0A, size: 0x8, addend: 0x0, symName: __ZN6djinniL14get_objc_proxyIN3sdc4core36BarcodeCountCaptureListListenerProxyE47_SDCBarcodeCountBasicOverlayCaptureListListenerEENSt3__110shared_ptrIT_EEPT0_, symObjAddr: 0x362C, symBinAddr: 0x38B18, symSize: 0x13C }
  - { offsetInCU: 0x2481A, offset: 0x2EA448, size: 0x8, addend: 0x0, symName: __ZN6djinni18get_cpp_proxy_implI26SDCBarcodeCountCaptureListN3sdc23BarcodeCountCaptureListEEEPT_RKNSt3__110shared_ptrIT0_EE, symObjAddr: 0x7DD4, symBinAddr: 0x3CDBC, symSize: 0xE8 }
  - { offsetInCU: 0x24A2F, offset: 0x2EA65D, size: 0x8, addend: 0x0, symName: __ZN6djinni18get_cpp_proxy_implI33SDCBarcodeCountCaptureListSessionN3sdc30BarcodeCountCaptureListSessionEEEPT_RKNSt3__110shared_ptrIT0_EE, symObjAddr: 0x7F9C, symBinAddr: 0x3CF84, symSize: 0xE8 }
  - { offsetInCU: 0x27849, offset: 0x2ED477, size: 0x8, addend: 0x0, symName: __ZNSt3__110shared_ptrIN3sdc28BarcodeFilterOverlaySettingsEED1B8ue170006Ev, symObjAddr: 0xEC, symBinAddr: 0x356E0, symSize: 0x68 }
  - { offsetInCU: 0x278E8, offset: 0x2ED516, size: 0x8, addend: 0x0, symName: '-[_SDCBarcodeCountBasicOverlayListener initWithOverlay:]', symObjAddr: 0x154, symBinAddr: 0x35748, symSize: 0xAC }
  - { offsetInCU: 0x2792F, offset: 0x2ED55D, size: 0x8, addend: 0x0, symName: '-[_SDCBarcodeCountBasicOverlayListener barcodeCount:didUpdateSession:frameData:]', symObjAddr: 0x200, symBinAddr: 0x357F4, symSize: 0x1D8 }
  - { offsetInCU: 0x27A71, offset: 0x2ED69F, size: 0x8, addend: 0x0, symName: '___80-[_SDCBarcodeCountBasicOverlayListener barcodeCount:didUpdateSession:frameData:]_block_invoke', symObjAddr: 0x3D8, symBinAddr: 0x359CC, symSize: 0x58 }
  - { offsetInCU: 0x27B00, offset: 0x2ED72E, size: 0x8, addend: 0x0, symName: ___copy_helper_block_ea8_32s40s48s56s64s72s, symObjAddr: 0x430, symBinAddr: 0x35A24, symSize: 0x48 }
  - { offsetInCU: 0x27B29, offset: 0x2ED757, size: 0x8, addend: 0x0, symName: ___destroy_helper_block_ea8_32s40s48s56s64s72s, symObjAddr: 0x478, symBinAddr: 0x35A6C, symSize: 0x48 }
  - { offsetInCU: 0x27B48, offset: 0x2ED776, size: 0x8, addend: 0x0, symName: '-[_SDCBarcodeCountBasicOverlayListener barcodeCount:didScanInSession:frameData:]', symObjAddr: 0x4C0, symBinAddr: 0x35AB4, symSize: 0x4 }
  - { offsetInCU: 0x27B9B, offset: 0x2ED7C9, size: 0x8, addend: 0x0, symName: '-[_SDCBarcodeCountBasicOverlayListener overlay]', symObjAddr: 0x4C4, symBinAddr: 0x35AB8, symSize: 0x18 }
  - { offsetInCU: 0x27BD2, offset: 0x2ED800, size: 0x8, addend: 0x0, symName: '-[_SDCBarcodeCountBasicOverlayListener setOverlay:]', symObjAddr: 0x4DC, symBinAddr: 0x35AD0, symSize: 0xC }
  - { offsetInCU: 0x27C13, offset: 0x2ED841, size: 0x8, addend: 0x0, symName: '-[_SDCBarcodeCountBasicOverlayListener .cxx_destruct]', symObjAddr: 0x4E8, symBinAddr: 0x35ADC, symSize: 0x8 }
  - { offsetInCU: 0x27C46, offset: 0x2ED874, size: 0x8, addend: 0x0, symName: '-[_SDCBarcodeCountBasicOverlayCaptureListListener initWithOverlay:]', symObjAddr: 0x4F0, symBinAddr: 0x35AE4, symSize: 0xAC }
  - { offsetInCU: 0x27C8D, offset: 0x2ED8BB, size: 0x8, addend: 0x0, symName: '-[_SDCBarcodeCountBasicOverlayCaptureListListener captureList:didUpdateSession:]', symObjAddr: 0x59C, symBinAddr: 0x35B90, symSize: 0x1A0 }
  - { offsetInCU: 0x27D42, offset: 0x2ED970, size: 0x8, addend: 0x0, symName: '___80-[_SDCBarcodeCountBasicOverlayCaptureListListener captureList:didUpdateSession:]_block_invoke', symObjAddr: 0x73C, symBinAddr: 0x35D30, symSize: 0x58 }
  - { offsetInCU: 0x27DD1, offset: 0x2ED9FF, size: 0x8, addend: 0x0, symName: '-[_SDCBarcodeCountBasicOverlayCaptureListListener overlay]', symObjAddr: 0x794, symBinAddr: 0x35D88, symSize: 0x18 }
  - { offsetInCU: 0x27E08, offset: 0x2EDA36, size: 0x8, addend: 0x0, symName: '-[_SDCBarcodeCountBasicOverlayCaptureListListener setOverlay:]', symObjAddr: 0x7AC, symBinAddr: 0x35DA0, symSize: 0xC }
  - { offsetInCU: 0x27E49, offset: 0x2EDA77, size: 0x8, addend: 0x0, symName: '-[_SDCBarcodeCountBasicOverlayCaptureListListener .cxx_destruct]', symObjAddr: 0x7B8, symBinAddr: 0x35DAC, symSize: 0x8 }
  - { offsetInCU: 0x27F81, offset: 0x2EDBAF, size: 0x8, addend: 0x0, symName: '-[SDCBarcodeCountBasicOverlay initWithCpp:]', symObjAddr: 0x7C0, symBinAddr: 0x35DB4, symSize: 0x79C }
  - { offsetInCU: 0x281AE, offset: 0x2EDDDC, size: 0x8, addend: 0x0, symName: '+[SDCBarcodeCountBasicOverlay overlayWithBarcodeCount:]', symObjAddr: 0xF5C, symBinAddr: 0x36550, symSize: 0x20 }
  - { offsetInCU: 0x281F5, offset: 0x2EDE23, size: 0x8, addend: 0x0, symName: '+[SDCBarcodeCountBasicOverlay overlayWithBarcodeCount:forDataCaptureView:]', symObjAddr: 0xF7C, symBinAddr: 0x36570, symSize: 0x20 }
  - { offsetInCU: 0x282CB, offset: 0x2EDEF9, size: 0x8, addend: 0x0, symName: '+[SDCBarcodeCountBasicOverlay overlayWithBarcodeCount:forDataCaptureView:style:]', symObjAddr: 0xF9C, symBinAddr: 0x36590, symSize: 0xB4 }
  - { offsetInCU: 0x28447, offset: 0x2EE075, size: 0x8, addend: 0x0, symName: __ZNSt3__110shared_ptrIN3sdc23BarcodeCountViewHandlerEED1B8ue170006Ev, symObjAddr: 0x1050, symBinAddr: 0x36644, symSize: 0x68 }
  - { offsetInCU: 0x28B6A, offset: 0x2EE798, size: 0x8, addend: 0x0, symName: '+[SDCBarcodeCountBasicOverlay overlayWithBarcodeCount:forDataCaptureView:style:viewHandler:]', symObjAddr: 0x10B8, symBinAddr: 0x366AC, symSize: 0x384 }
  - { offsetInCU: 0x29828, offset: 0x2EF456, size: 0x8, addend: 0x0, symName: __ZNSt3__110shared_ptrIN3sdc27BarcodeCountGuidanceHandlerEED1B8ue170006Ev, symObjAddr: 0x14DC, symBinAddr: 0x36A30, symSize: 0x68 }
  - { offsetInCU: 0x29840, offset: 0x2EF46E, size: 0x8, addend: 0x0, symName: __ZNSt3__110shared_ptrIN3sdc27BarcodeCountGuidanceHandlerEED1B8ue170006Ev, symObjAddr: 0x14DC, symBinAddr: 0x36A30, symSize: 0x68 }
  - { offsetInCU: 0x298DF, offset: 0x2EF50D, size: 0x8, addend: 0x0, symName: __ZNSt3__110shared_ptrIN3sdc24BarcodeCountBasicOverlayEED1B8ue170006Ev, symObjAddr: 0x1544, symBinAddr: 0x36A98, symSize: 0x68 }
  - { offsetInCU: 0x2997E, offset: 0x2EF5AC, size: 0x8, addend: 0x0, symName: __ZNSt3__110shared_ptrIN3sdc30IosBarcodeCountGuidanceHandlerEED1B8ue170006Ev, symObjAddr: 0x15AC, symBinAddr: 0x36B00, symSize: 0x68 }
  - { offsetInCU: 0x29C2C, offset: 0x2EF85A, size: 0x8, addend: 0x0, symName: '-[SDCBarcodeCountBasicOverlay setDataCaptureView:]', symObjAddr: 0x1614, symBinAddr: 0x36B68, symSize: 0xB8 }
  - { offsetInCU: 0x29CAA, offset: 0x2EF8D8, size: 0x8, addend: 0x0, symName: '-[SDCBarcodeCountBasicOverlay barcodeCount]', symObjAddr: 0x16CC, symBinAddr: 0x36C20, symSize: 0xC8 }
  - { offsetInCU: 0x2A0EC, offset: 0x2EFD1A, size: 0x8, addend: 0x0, symName: '-[SDCBarcodeCountBasicOverlay setDelegate:]', symObjAddr: 0x17FC, symBinAddr: 0x36CE8, symSize: 0x250 }
  - { offsetInCU: 0x2A668, offset: 0x2F0296, size: 0x8, addend: 0x0, symName: __ZNSt3__110shared_ptrIN3sdc32BarcodeCountBasicOverlayListenerEED1B8ue170006Ev, symObjAddr: 0x1A4C, symBinAddr: 0x36F38, symSize: 0x68 }
  - { offsetInCU: 0x2A707, offset: 0x2F0335, size: 0x8, addend: 0x0, symName: __ZNSt3__110shared_ptrIN3sdc4core37BarcodeCountBasicOverlayListenerProxyEED1B8ue170006Ev, symObjAddr: 0x1AB4, symBinAddr: 0x36FA0, symSize: 0x68 }
  - { offsetInCU: 0x2A7F4, offset: 0x2F0422, size: 0x8, addend: 0x0, symName: '-[SDCBarcodeCountBasicOverlay setFilterSettings:]', symObjAddr: 0x1B1C, symBinAddr: 0x37008, symSize: 0x114 }
  - { offsetInCU: 0x2A9ED, offset: 0x2F061B, size: 0x8, addend: 0x0, symName: '-[SDCBarcodeCountBasicOverlay filterSettings]', symObjAddr: 0x1C30, symBinAddr: 0x3711C, symSize: 0x138 }
  - { offsetInCU: 0x2AD4E, offset: 0x2F097C, size: 0x8, addend: 0x0, symName: '-[SDCBarcodeCountBasicOverlay shouldShowScanAreaGuides]', symObjAddr: 0x1D68, symBinAddr: 0x37254, symSize: 0x14 }
  - { offsetInCU: 0x2ADA7, offset: 0x2F09D5, size: 0x8, addend: 0x0, symName: '-[SDCBarcodeCountBasicOverlay setShouldShowScanAreaGuides:]', symObjAddr: 0x1D7C, symBinAddr: 0x37268, symSize: 0x18 }
  - { offsetInCU: 0x2AE0D, offset: 0x2F0A3B, size: 0x8, addend: 0x0, symName: '-[SDCBarcodeCountBasicOverlay style]', symObjAddr: 0x1D94, symBinAddr: 0x37280, symSize: 0x64 }
  - { offsetInCU: 0x2AEA2, offset: 0x2F0AD0, size: 0x8, addend: 0x0, symName: '-[SDCBarcodeCountBasicOverlay recognizedBrush]', symObjAddr: 0x1DF8, symBinAddr: 0x372E4, symSize: 0xA4 }
  - { offsetInCU: 0x2B1C2, offset: 0x2F0DF0, size: 0x8, addend: 0x0, symName: '-[SDCBarcodeCountBasicOverlay setRecognizedBrush:]', symObjAddr: 0x1E9C, symBinAddr: 0x37388, symSize: 0xCC }
  - { offsetInCU: 0x2B498, offset: 0x2F10C6, size: 0x8, addend: 0x0, symName: '-[SDCBarcodeCountBasicOverlay unrecognizedBrush]', symObjAddr: 0x1F68, symBinAddr: 0x37454, symSize: 0xA4 }
  - { offsetInCU: 0x2B522, offset: 0x2F1150, size: 0x8, addend: 0x0, symName: '-[SDCBarcodeCountBasicOverlay setUnrecognizedBrush:]', symObjAddr: 0x200C, symBinAddr: 0x374F8, symSize: 0xCC }
  - { offsetInCU: 0x2B7F8, offset: 0x2F1426, size: 0x8, addend: 0x0, symName: '-[SDCBarcodeCountBasicOverlay notInListBrush]', symObjAddr: 0x20D8, symBinAddr: 0x375C4, symSize: 0xA4 }
  - { offsetInCU: 0x2B882, offset: 0x2F14B0, size: 0x8, addend: 0x0, symName: '-[SDCBarcodeCountBasicOverlay setNotInListBrush:]', symObjAddr: 0x217C, symBinAddr: 0x37668, symSize: 0xCC }
  - { offsetInCU: 0x2BB58, offset: 0x2F1786, size: 0x8, addend: 0x0, symName: '-[SDCBarcodeCountBasicOverlay acceptedBrush]', symObjAddr: 0x2248, symBinAddr: 0x37734, symSize: 0xA4 }
  - { offsetInCU: 0x2BBE2, offset: 0x2F1810, size: 0x8, addend: 0x0, symName: '-[SDCBarcodeCountBasicOverlay setAcceptedBrush:]', symObjAddr: 0x22EC, symBinAddr: 0x377D8, symSize: 0xCC }
  - { offsetInCU: 0x2BEB8, offset: 0x2F1AE6, size: 0x8, addend: 0x0, symName: '-[SDCBarcodeCountBasicOverlay rejectedBrush]', symObjAddr: 0x23B8, symBinAddr: 0x378A4, symSize: 0xA4 }
  - { offsetInCU: 0x2BF42, offset: 0x2F1B70, size: 0x8, addend: 0x0, symName: '-[SDCBarcodeCountBasicOverlay setRejectedBrush:]', symObjAddr: 0x245C, symBinAddr: 0x37948, symSize: 0xCC }
  - { offsetInCU: 0x2C398, offset: 0x2F1FC6, size: 0x8, addend: 0x0, symName: '+[SDCBarcodeCountBasicOverlay defaultRecognizedBrush]', symObjAddr: 0x2528, symBinAddr: 0x37A14, symSize: 0x7C }
  - { offsetInCU: 0x2C534, offset: 0x2F2162, size: 0x8, addend: 0x0, symName: '+[SDCBarcodeCountBasicOverlay defaultUnrecognizedBrush]', symObjAddr: 0x25A4, symBinAddr: 0x37A90, symSize: 0x7C }
  - { offsetInCU: 0x2C6D0, offset: 0x2F22FE, size: 0x8, addend: 0x0, symName: '+[SDCBarcodeCountBasicOverlay defaultNotInListBrush]', symObjAddr: 0x2620, symBinAddr: 0x37B0C, symSize: 0x7C }
  - { offsetInCU: 0x2C86C, offset: 0x2F249A, size: 0x8, addend: 0x0, symName: '+[SDCBarcodeCountBasicOverlay defaultAcceptedBrush]', symObjAddr: 0x269C, symBinAddr: 0x37B88, symSize: 0x7C }
  - { offsetInCU: 0x2CA08, offset: 0x2F2636, size: 0x8, addend: 0x0, symName: '+[SDCBarcodeCountBasicOverlay defaultRejectedBrush]', symObjAddr: 0x2718, symBinAddr: 0x37C04, symSize: 0x7C }
  - { offsetInCU: 0x2CBA4, offset: 0x2F27D2, size: 0x8, addend: 0x0, symName: '-[SDCBarcodeCountBasicOverlay setTextForUnrecognizedBarcodesDetectedHint:]', symObjAddr: 0x2794, symBinAddr: 0x37C80, symSize: 0xC8 }
  - { offsetInCU: 0x2CEAE, offset: 0x2F2ADC, size: 0x8, addend: 0x0, symName: '-[SDCBarcodeCountBasicOverlay textForUnrecognizedBarcodesDetectedHint]', symObjAddr: 0x285C, symBinAddr: 0x37D48, symSize: 0xA8 }
  - { offsetInCU: 0x2D177, offset: 0x2F2DA5, size: 0x8, addend: 0x0, symName: '-[SDCBarcodeCountBasicOverlay setTextForTapShutterToScanHint:]', symObjAddr: 0x2904, symBinAddr: 0x37DF0, symSize: 0xC8 }
  - { offsetInCU: 0x2D476, offset: 0x2F30A4, size: 0x8, addend: 0x0, symName: '-[SDCBarcodeCountBasicOverlay textForTapShutterToScanHint]', symObjAddr: 0x29CC, symBinAddr: 0x37EB8, symSize: 0xA8 }
  - { offsetInCU: 0x2D73F, offset: 0x2F336D, size: 0x8, addend: 0x0, symName: '-[SDCBarcodeCountBasicOverlay setTextForScanningHint:]', symObjAddr: 0x2A74, symBinAddr: 0x37F60, symSize: 0xC8 }
  - { offsetInCU: 0x2DA3E, offset: 0x2F366C, size: 0x8, addend: 0x0, symName: '-[SDCBarcodeCountBasicOverlay textForScanningHint]', symObjAddr: 0x2B3C, symBinAddr: 0x38028, symSize: 0xA8 }
  - { offsetInCU: 0x2DD07, offset: 0x2F3935, size: 0x8, addend: 0x0, symName: '-[SDCBarcodeCountBasicOverlay setTextForMoveCloserAndRescanHint:]', symObjAddr: 0x2BE4, symBinAddr: 0x380D0, symSize: 0xC8 }
  - { offsetInCU: 0x2E006, offset: 0x2F3C34, size: 0x8, addend: 0x0, symName: '-[SDCBarcodeCountBasicOverlay textForMoveCloserAndRescanHint]', symObjAddr: 0x2CAC, symBinAddr: 0x38198, symSize: 0xA8 }
  - { offsetInCU: 0x2E2CF, offset: 0x2F3EFD, size: 0x8, addend: 0x0, symName: '-[SDCBarcodeCountBasicOverlay setTextForMoveFurtherAndRescanHint:]', symObjAddr: 0x2D54, symBinAddr: 0x38240, symSize: 0xC8 }
  - { offsetInCU: 0x2E5CE, offset: 0x2F41FC, size: 0x8, addend: 0x0, symName: '-[SDCBarcodeCountBasicOverlay textForMoveFurtherAndRescanHint]', symObjAddr: 0x2E1C, symBinAddr: 0x38308, symSize: 0xA8 }
  - { offsetInCU: 0x2E897, offset: 0x2F44C5, size: 0x8, addend: 0x0, symName: '-[SDCBarcodeCountBasicOverlay setTextForBarcodesNotInListDetectedHint:]', symObjAddr: 0x2EC4, symBinAddr: 0x383B0, symSize: 0xC8 }
  - { offsetInCU: 0x2EB96, offset: 0x2F47C4, size: 0x8, addend: 0x0, symName: '-[SDCBarcodeCountBasicOverlay textForBarcodesNotInListDetectedHint]', symObjAddr: 0x2F8C, symBinAddr: 0x38478, symSize: 0xA8 }
  - { offsetInCU: 0x2EE5F, offset: 0x2F4A8D, size: 0x8, addend: 0x0, symName: '-[SDCBarcodeCountBasicOverlay setTextForTapToUncountHint:]', symObjAddr: 0x3034, symBinAddr: 0x38520, symSize: 0xC8 }
  - { offsetInCU: 0x2F15E, offset: 0x2F4D8C, size: 0x8, addend: 0x0, symName: '-[SDCBarcodeCountBasicOverlay textForTapToUncountHint]', symObjAddr: 0x30FC, symBinAddr: 0x385E8, symSize: 0xA8 }
  - { offsetInCU: 0x2F427, offset: 0x2F5055, size: 0x8, addend: 0x0, symName: '-[SDCBarcodeCountBasicOverlay shouldShowUserGuidanceView]', symObjAddr: 0x31A4, symBinAddr: 0x38690, symSize: 0x14 }
  - { offsetInCU: 0x2F480, offset: 0x2F50AE, size: 0x8, addend: 0x0, symName: '-[SDCBarcodeCountBasicOverlay setShouldShowUserGuidanceView:]', symObjAddr: 0x31B8, symBinAddr: 0x386A4, symSize: 0x18 }
  - { offsetInCU: 0x2F4E6, offset: 0x2F5114, size: 0x8, addend: 0x0, symName: '-[SDCBarcodeCountBasicOverlay setShouldShowHints:]', symObjAddr: 0x31D0, symBinAddr: 0x386BC, symSize: 0x18 }
  - { offsetInCU: 0x2F54C, offset: 0x2F517A, size: 0x8, addend: 0x0, symName: '-[SDCBarcodeCountBasicOverlay shouldShowHints]', symObjAddr: 0x31E8, symBinAddr: 0x386D4, symSize: 0x14 }
  - { offsetInCU: 0x2F5A5, offset: 0x2F51D3, size: 0x8, addend: 0x0, symName: '-[SDCBarcodeCountBasicOverlay shutterButtonPressed]', symObjAddr: 0x31FC, symBinAddr: 0x386E8, symSize: 0x30 }
  - { offsetInCU: 0x2F5FA, offset: 0x2F5228, size: 0x8, addend: 0x0, symName: '-[SDCBarcodeCountBasicOverlay listButtonPressed]', symObjAddr: 0x322C, symBinAddr: 0x38718, symSize: 0x4 }
  - { offsetInCU: 0x2F62C, offset: 0x2F525A, size: 0x8, addend: 0x0, symName: '-[SDCBarcodeCountBasicOverlay exitButtonPressed]', symObjAddr: 0x3230, symBinAddr: 0x3871C, symSize: 0x4 }
  - { offsetInCU: 0x2F65E, offset: 0x2F528C, size: 0x8, addend: 0x0, symName: '-[SDCBarcodeCountBasicOverlay stopModeAndRemoveHighlights]', symObjAddr: 0x3234, symBinAddr: 0x38720, symSize: 0x50 }
  - { offsetInCU: 0x2F692, offset: 0x2F52C0, size: 0x8, addend: 0x0, symName: '-[SDCBarcodeCountBasicOverlay clearHighlights]', symObjAddr: 0x3284, symBinAddr: 0x38770, symSize: 0x14 }
  - { offsetInCU: 0x2F7D5, offset: 0x2F5403, size: 0x8, addend: 0x0, symName: '-[SDCBarcodeCountBasicOverlay willMoveToSuperview:]', symObjAddr: 0x3298, symBinAddr: 0x38784, symSize: 0x394 }
  - { offsetInCU: 0x2FEC5, offset: 0x2F5AF3, size: 0x8, addend: 0x0, symName: __ZNSt3__110shared_ptrIN3sdc31BarcodeCountCaptureListListenerEED1B8ue170006Ev, symObjAddr: 0x3768, symBinAddr: 0x38C54, symSize: 0x68 }
  - { offsetInCU: 0x2FF64, offset: 0x2F5B92, size: 0x8, addend: 0x0, symName: __ZNSt3__110shared_ptrIN3sdc4core36BarcodeCountCaptureListListenerProxyEED1B8ue170006Ev, symObjAddr: 0x37D0, symBinAddr: 0x38CBC, symSize: 0x68 }
  - { offsetInCU: 0x30116, offset: 0x2F5D44, size: 0x8, addend: 0x0, symName: '-[SDCBarcodeCountBasicOverlay removeAllHighlights]', symObjAddr: 0x3838, symBinAddr: 0x38D24, symSize: 0x44 }
  - { offsetInCU: 0x3014A, offset: 0x2F5D78, size: 0x8, addend: 0x0, symName: '-[SDCBarcodeCountBasicOverlay setColorScheme:]', symObjAddr: 0x387C, symBinAddr: 0x38D68, symSize: 0xBC }
  - { offsetInCU: 0x301E2, offset: 0x2F5E10, size: 0x8, addend: 0x0, symName: '-[SDCBarcodeCountBasicOverlay colorScheme]', symObjAddr: 0x3938, symBinAddr: 0x38E24, symSize: 0x64 }
  - { offsetInCU: 0x3025C, offset: 0x2F5E8A, size: 0x8, addend: 0x0, symName: '-[SDCBarcodeCountBasicOverlay statusModeEnabled]', symObjAddr: 0x399C, symBinAddr: 0x38E88, symSize: 0x18 }
  - { offsetInCU: 0x302B3, offset: 0x2F5EE1, size: 0x8, addend: 0x0, symName: '-[SDCBarcodeCountBasicOverlay setStatusModeEnabled:]', symObjAddr: 0x39B4, symBinAddr: 0x38EA0, symSize: 0xD8 }
  - { offsetInCU: 0x30317, offset: 0x2F5F45, size: 0x8, addend: 0x0, symName: '-[SDCBarcodeCountBasicOverlay updatedStatusItems:]', symObjAddr: 0x3A8C, symBinAddr: 0x38F78, symSize: 0x7C }
  - { offsetInCU: 0x3035C, offset: 0x2F5F8A, size: 0x8, addend: 0x0, symName: '-[SDCBarcodeCountBasicOverlay setBrush:forRecognizedBarcode:]', symObjAddr: 0x3B08, symBinAddr: 0x38FF4, symSize: 0xA4 }
  - { offsetInCU: 0x303B2, offset: 0x2F5FE0, size: 0x8, addend: 0x0, symName: '-[SDCBarcodeCountBasicOverlay setBrush:forUnrecognizedBarcode:]', symObjAddr: 0x3BAC, symBinAddr: 0x39098, symSize: 0xA4 }
  - { offsetInCU: 0x30408, offset: 0x2F6036, size: 0x8, addend: 0x0, symName: '-[SDCBarcodeCountBasicOverlay setBrush:forRecognizedBarcodeNotInList:]', symObjAddr: 0x3C50, symBinAddr: 0x3913C, symSize: 0xA4 }
  - { offsetInCU: 0x3045E, offset: 0x2F608C, size: 0x8, addend: 0x0, symName: '-[SDCBarcodeCountBasicOverlay setBrush:forAcceptedBarcode:]', symObjAddr: 0x3CF4, symBinAddr: 0x391E0, symSize: 0xA4 }
  - { offsetInCU: 0x304B4, offset: 0x2F60E2, size: 0x8, addend: 0x0, symName: '-[SDCBarcodeCountBasicOverlay setBrush:forRejectedBarcode:]', symObjAddr: 0x3D98, symBinAddr: 0x39284, symSize: 0xA4 }
  - { offsetInCU: 0x3050A, offset: 0x2F6138, size: 0x8, addend: 0x0, symName: '-[SDCBarcodeCountBasicOverlay setTrackingFailureHintEnabled:]', symObjAddr: 0x3E3C, symBinAddr: 0x39328, symSize: 0x28 }
  - { offsetInCU: 0x3056E, offset: 0x2F619C, size: 0x8, addend: 0x0, symName: '-[SDCBarcodeCountBasicOverlay trackingFailureHintEnabled]', symObjAddr: 0x3E64, symBinAddr: 0x39350, symSize: 0x18 }
  - { offsetInCU: 0x305C5, offset: 0x2F61F3, size: 0x8, addend: 0x0, symName: '-[SDCBarcodeCountBasicOverlay setBarcodeNotInListActionSettings:]', symObjAddr: 0x3E7C, symBinAddr: 0x39368, symSize: 0x80 }
  - { offsetInCU: 0x30629, offset: 0x2F6257, size: 0x8, addend: 0x0, symName: '-[SDCBarcodeCountBasicOverlay showNotInListActionsPopoverForBarcode:status:]', symObjAddr: 0x3EFC, symBinAddr: 0x393E8, symSize: 0xB0 }
  - { offsetInCU: 0x3067B, offset: 0x2F62A9, size: 0x8, addend: 0x0, symName: '-[SDCBarcodeCountBasicOverlay hideNotInListActionsPopoverForBarcode:status:]', symObjAddr: 0x3FAC, symBinAddr: 0x39498, symSize: 0xC0 }
  - { offsetInCU: 0x306DE, offset: 0x2F630C, size: 0x8, addend: 0x0, symName: '-[SDCBarcodeCountBasicOverlay hideNotInListActionsPopover]', symObjAddr: 0x406C, symBinAddr: 0x39558, symSize: 0xCC }
  - { offsetInCU: 0x30794, offset: 0x2F63C2, size: 0x8, addend: 0x0, symName: '-[SDCBarcodeCountBasicOverlay didAcceptFocusedBarcode]', symObjAddr: 0x4138, symBinAddr: 0x39624, symSize: 0x174 }
  - { offsetInCU: 0x309C4, offset: 0x2F65F2, size: 0x8, addend: 0x0, symName: '-[SDCBarcodeCountBasicOverlay didRejectFocusedBarcode]', symObjAddr: 0x4314, symBinAddr: 0x39798, symSize: 0x174 }
  - { offsetInCU: 0x30B8F, offset: 0x2F67BD, size: 0x8, addend: 0x0, symName: '-[SDCBarcodeCountBasicOverlay didCancelNotInListActionPopover]', symObjAddr: 0x4488, symBinAddr: 0x3990C, symSize: 0xD8 }
  - { offsetInCU: 0x30BE2, offset: 0x2F6810, size: 0x8, addend: 0x0, symName: '-[SDCBarcodeCountBasicOverlay updateOverlaysWithAddedRecognizedBarcodes:updatedRecognizedBarcodes:removedRecognizedBarcodes:unrecognizedBarcodes:filteredTrackedBarcodes:]', symObjAddr: 0x4560, symBinAddr: 0x399E4, symSize: 0x15C }
  - { offsetInCU: 0x30C6B, offset: 0x2F6899, size: 0x8, addend: 0x0, symName: '-[SDCBarcodeCountBasicOverlay captureListSessionUpdatedWithCorrectBarcodes:wrongBarcodes:missingBarcodes:acceptedBarcodes:rejectedBarcodes:]', symObjAddr: 0x46BC, symBinAddr: 0x39B40, symSize: 0xC8 }
  - { offsetInCU: 0x30CEC, offset: 0x2F691A, size: 0x8, addend: 0x0, symName: '-[SDCBarcodeCountBasicOverlay overlayAtPoint:]', symObjAddr: 0x4784, symBinAddr: 0x39C08, symSize: 0x70 }
  - { offsetInCU: 0x30D31, offset: 0x2F695F, size: 0x8, addend: 0x0, symName: '-[SDCBarcodeCountBasicOverlay didTap:]', symObjAddr: 0x47F4, symBinAddr: 0x39C78, symSize: 0x64 }
  - { offsetInCU: 0x30D98, offset: 0x2F69C6, size: 0x8, addend: 0x0, symName: '-[SDCBarcodeCountBasicOverlay didTapOverlay:]', symObjAddr: 0x4858, symBinAddr: 0x39CDC, symSize: 0x35C }
  - { offsetInCU: 0x313FD, offset: 0x2F702B, size: 0x8, addend: 0x0, symName: '-[SDCBarcodeCountBasicOverlay didTapInFocusedView:]', symObjAddr: 0x4BB4, symBinAddr: 0x3A038, symSize: 0x4 }
  - { offsetInCU: 0x3143C, offset: 0x2F706A, size: 0x8, addend: 0x0, symName: '-[SDCBarcodeCountBasicOverlay viewStyle]', symObjAddr: 0x4BB8, symBinAddr: 0x3A03C, symSize: 0x4 }
  - { offsetInCU: 0x31472, offset: 0x2F70A0, size: 0x8, addend: 0x0, symName: '-[SDCBarcodeCountBasicOverlay currentColorScheme]', symObjAddr: 0x4BBC, symBinAddr: 0x3A040, symSize: 0x4 }
  - { offsetInCU: 0x314A8, offset: 0x2F70D6, size: 0x8, addend: 0x0, symName: '-[SDCBarcodeCountBasicOverlay containerViewForRegularHighlights]', symObjAddr: 0x4BC0, symBinAddr: 0x3A044, symSize: 0x4 }
  - { offsetInCU: 0x314DE, offset: 0x2F710C, size: 0x8, addend: 0x0, symName: '-[SDCBarcodeCountBasicOverlay containerViewForFocusedHighlights]', symObjAddr: 0x4BC4, symBinAddr: 0x3A048, symSize: 0x4 }
  - { offsetInCU: 0x31514, offset: 0x2F7142, size: 0x8, addend: 0x0, symName: '-[SDCBarcodeCountBasicOverlay didAddFocusedHighlight:]', symObjAddr: 0x4BC8, symBinAddr: 0x3A04C, symSize: 0x1B4 }
  - { offsetInCU: 0x3156A, offset: 0x2F7198, size: 0x8, addend: 0x0, symName: '-[SDCBarcodeCountBasicOverlay focusedBarcodeIsOffScreen:]', symObjAddr: 0x4D7C, symBinAddr: 0x3A200, symSize: 0x8 }
  - { offsetInCU: 0x315AB, offset: 0x2F71D9, size: 0x8, addend: 0x0, symName: '-[SDCBarcodeCountBasicOverlay focusedBarcodeWasRemoved]', symObjAddr: 0x4D84, symBinAddr: 0x3A208, symSize: 0x4 }
  - { offsetInCU: 0x315F3, offset: 0x2F7221, size: 0x8, addend: 0x0, symName: '-[SDCBarcodeCountBasicOverlay brushForCPPBrush:]', symObjAddr: 0x4D88, symBinAddr: 0x3A20C, symSize: 0xAC }
  - { offsetInCU: 0x317CA, offset: 0x2F73F8, size: 0x8, addend: 0x0, symName: '-[SDCBarcodeCountBasicOverlay brushForRecognizedBarcodeForBrushHandler:]', symObjAddr: 0x4E34, symBinAddr: 0x3A2B8, symSize: 0x1C }
  - { offsetInCU: 0x317D5, offset: 0x2F7403, size: 0x8, addend: 0x0, symName: '-[SDCBarcodeCountBasicOverlay brushForRecognizedBarcodeForBrushHandler:]', symObjAddr: 0x4E34, symBinAddr: 0x3A2B8, symSize: 0x1C }
  - { offsetInCU: 0x3181A, offset: 0x2F7448, size: 0x8, addend: 0x0, symName: '-[SDCBarcodeCountBasicOverlay brushForUnrecognizedBarcodeForBrushHandler:]', symObjAddr: 0x4E50, symBinAddr: 0x3A2D4, symSize: 0x1C }
  - { offsetInCU: 0x3185F, offset: 0x2F748D, size: 0x8, addend: 0x0, symName: '-[SDCBarcodeCountBasicOverlay brushForNotInListBarcodeForBrushHandler:]', symObjAddr: 0x4E6C, symBinAddr: 0x3A2F0, symSize: 0x1C }
  - { offsetInCU: 0x318A4, offset: 0x2F74D2, size: 0x8, addend: 0x0, symName: '-[SDCBarcodeCountBasicOverlay brushForAcceptedBarcodeForBrushHandler:]', symObjAddr: 0x4E88, symBinAddr: 0x3A30C, symSize: 0x1C }
  - { offsetInCU: 0x318E9, offset: 0x2F7517, size: 0x8, addend: 0x0, symName: '-[SDCBarcodeCountBasicOverlay brushForRejectedBarcodeForBrushHandler:]', symObjAddr: 0x4EA4, symBinAddr: 0x3A328, symSize: 0x1C }
  - { offsetInCU: 0x3192E, offset: 0x2F755C, size: 0x8, addend: 0x0, symName: '-[SDCBarcodeCountBasicOverlay isDelegateSetForBrushHandler:]', symObjAddr: 0x4EC0, symBinAddr: 0x3A344, symSize: 0x34 }
  - { offsetInCU: 0x31973, offset: 0x2F75A1, size: 0x8, addend: 0x0, symName: '-[SDCBarcodeCountBasicOverlay brushHandler:delegateBrushForRecognizedBarcode:]', symObjAddr: 0x4EF4, symBinAddr: 0x3A378, symSize: 0xD8 }
  - { offsetInCU: 0x31A15, offset: 0x2F7643, size: 0x8, addend: 0x0, symName: '-[SDCBarcodeCountBasicOverlay brushHandler:delegateBrushForUnrecognizedBarcode:]', symObjAddr: 0x4FCC, symBinAddr: 0x3A450, symSize: 0xD8 }
  - { offsetInCU: 0x31AB7, offset: 0x2F76E5, size: 0x8, addend: 0x0, symName: '-[SDCBarcodeCountBasicOverlay brushHandler:delegateBrushForNotInListBarcode:]', symObjAddr: 0x50A4, symBinAddr: 0x3A528, symSize: 0xD0 }
  - { offsetInCU: 0x31B3E, offset: 0x2F776C, size: 0x8, addend: 0x0, symName: '-[SDCBarcodeCountBasicOverlay brushHandler:delegateBrushForAcceptedBarcode:]', symObjAddr: 0x5174, symBinAddr: 0x3A5F8, symSize: 0xD0 }
  - { offsetInCU: 0x31BC5, offset: 0x2F77F3, size: 0x8, addend: 0x0, symName: '-[SDCBarcodeCountBasicOverlay brushHandler:delegateBrushForRejectedBarcode:]', symObjAddr: 0x5244, symBinAddr: 0x3A6C8, symSize: 0xD0 }
  - { offsetInCU: 0x31C4C, offset: 0x2F787A, size: 0x8, addend: 0x0, symName: '-[SDCBarcodeCountBasicOverlay brushForFilteredBarcodeForBrushHandler:]', symObjAddr: 0x5314, symBinAddr: 0x3A798, symSize: 0x58 }
  - { offsetInCU: 0x31C91, offset: 0x2F78BF, size: 0x8, addend: 0x0, symName: '-[SDCBarcodeCountBasicOverlay didTapAcceptButtonInPopover:]', symObjAddr: 0x536C, symBinAddr: 0x3A7F0, symSize: 0x4 }
  - { offsetInCU: 0x31CD0, offset: 0x2F78FE, size: 0x8, addend: 0x0, symName: '-[SDCBarcodeCountBasicOverlay didTapRejectButtonInPopover:]', symObjAddr: 0x5370, symBinAddr: 0x3A7F4, symSize: 0x4 }
  - { offsetInCU: 0x31D0F, offset: 0x2F793D, size: 0x8, addend: 0x0, symName: '-[SDCBarcodeCountBasicOverlay didTapCancelButtonInPopover:]', symObjAddr: 0x5374, symBinAddr: 0x3A7F8, symSize: 0x4 }
  - { offsetInCU: 0x31D69, offset: 0x2F7997, size: 0x8, addend: 0x0, symName: '-[SDCBarcodeCountBasicOverlay cppImpl]', symObjAddr: 0x5378, symBinAddr: 0x3A7FC, symSize: 0x14 }
  - { offsetInCU: 0x31E26, offset: 0x2F7A54, size: 0x8, addend: 0x0, symName: '-[SDCBarcodeCountBasicOverlay typeErasedCppImpl]', symObjAddr: 0x538C, symBinAddr: 0x3A810, symSize: 0x30 }
  - { offsetInCU: 0x31F11, offset: 0x2F7B3F, size: 0x8, addend: 0x0, symName: '-[SDCBarcodeCountBasicOverlay delegate]', symObjAddr: 0x53BC, symBinAddr: 0x3A840, symSize: 0x20 }
  - { offsetInCU: 0x31F48, offset: 0x2F7B76, size: 0x8, addend: 0x0, symName: '-[SDCBarcodeCountBasicOverlay popoverDelegate]', symObjAddr: 0x53DC, symBinAddr: 0x3A860, symSize: 0x20 }
  - { offsetInCU: 0x31F7F, offset: 0x2F7BAD, size: 0x8, addend: 0x0, symName: '-[SDCBarcodeCountBasicOverlay setPopoverDelegate:]', symObjAddr: 0x53FC, symBinAddr: 0x3A880, symSize: 0x14 }
  - { offsetInCU: 0x31FC0, offset: 0x2F7BEE, size: 0x8, addend: 0x0, symName: '-[SDCBarcodeCountBasicOverlay barcodeNotInListActionSettings]', symObjAddr: 0x5410, symBinAddr: 0x3A894, symSize: 0x10 }
  - { offsetInCU: 0x31FF7, offset: 0x2F7C25, size: 0x8, addend: 0x0, symName: '-[SDCBarcodeCountBasicOverlay dataCaptureView]', symObjAddr: 0x5420, symBinAddr: 0x3A8A4, symSize: 0x20 }
  - { offsetInCU: 0x3202E, offset: 0x2F7C5C, size: 0x8, addend: 0x0, symName: '-[SDCBarcodeCountBasicOverlay tapRecognizer]', symObjAddr: 0x5440, symBinAddr: 0x3A8C4, symSize: 0x10 }
  - { offsetInCU: 0x32065, offset: 0x2F7C93, size: 0x8, addend: 0x0, symName: '-[SDCBarcodeCountBasicOverlay setTapRecognizer:]', symObjAddr: 0x5450, symBinAddr: 0x3A8D4, symSize: 0x14 }
  - { offsetInCU: 0x320A6, offset: 0x2F7CD4, size: 0x8, addend: 0x0, symName: '-[SDCBarcodeCountBasicOverlay focusedViewTapRecognizer]', symObjAddr: 0x5464, symBinAddr: 0x3A8E8, symSize: 0x10 }
  - { offsetInCU: 0x320DD, offset: 0x2F7D0B, size: 0x8, addend: 0x0, symName: '-[SDCBarcodeCountBasicOverlay setFocusedViewTapRecognizer:]', symObjAddr: 0x5474, symBinAddr: 0x3A8F8, symSize: 0x14 }
  - { offsetInCU: 0x3211E, offset: 0x2F7D4C, size: 0x8, addend: 0x0, symName: '-[SDCBarcodeCountBasicOverlay brushHandler]', symObjAddr: 0x5488, symBinAddr: 0x3A90C, symSize: 0x10 }
  - { offsetInCU: 0x32155, offset: 0x2F7D83, size: 0x8, addend: 0x0, symName: '-[SDCBarcodeCountBasicOverlay setBrushHandler:]', symObjAddr: 0x5498, symBinAddr: 0x3A91C, symSize: 0x14 }
  - { offsetInCU: 0x32196, offset: 0x2F7DC4, size: 0x8, addend: 0x0, symName: '-[SDCBarcodeCountBasicOverlay defaultHighlightHandler]', symObjAddr: 0x54AC, symBinAddr: 0x3A930, symSize: 0x10 }
  - { offsetInCU: 0x321CD, offset: 0x2F7DFB, size: 0x8, addend: 0x0, symName: '-[SDCBarcodeCountBasicOverlay setDefaultHighlightHandler:]', symObjAddr: 0x54BC, symBinAddr: 0x3A940, symSize: 0x14 }
  - { offsetInCU: 0x3220E, offset: 0x2F7E3C, size: 0x8, addend: 0x0, symName: '-[SDCBarcodeCountBasicOverlay statusHighlightHandler]', symObjAddr: 0x54D0, symBinAddr: 0x3A954, symSize: 0x10 }
  - { offsetInCU: 0x32245, offset: 0x2F7E73, size: 0x8, addend: 0x0, symName: '-[SDCBarcodeCountBasicOverlay setStatusHighlightHandler:]', symObjAddr: 0x54E0, symBinAddr: 0x3A964, symSize: 0x14 }
  - { offsetInCU: 0x32286, offset: 0x2F7EB4, size: 0x8, addend: 0x0, symName: '-[SDCBarcodeCountBasicOverlay listener]', symObjAddr: 0x54F4, symBinAddr: 0x3A978, symSize: 0x10 }
  - { offsetInCU: 0x322BD, offset: 0x2F7EEB, size: 0x8, addend: 0x0, symName: '-[SDCBarcodeCountBasicOverlay setListener:]', symObjAddr: 0x5504, symBinAddr: 0x3A988, symSize: 0x14 }
  - { offsetInCU: 0x322FE, offset: 0x2F7F2C, size: 0x8, addend: 0x0, symName: '-[SDCBarcodeCountBasicOverlay captureListListener]', symObjAddr: 0x5518, symBinAddr: 0x3A99C, symSize: 0x10 }
  - { offsetInCU: 0x32335, offset: 0x2F7F63, size: 0x8, addend: 0x0, symName: '-[SDCBarcodeCountBasicOverlay setCaptureListListener:]', symObjAddr: 0x5528, symBinAddr: 0x3A9AC, symSize: 0x14 }
  - { offsetInCU: 0x32376, offset: 0x2F7FA4, size: 0x8, addend: 0x0, symName: '-[SDCBarcodeCountBasicOverlay userGuidanceView]', symObjAddr: 0x553C, symBinAddr: 0x3A9C0, symSize: 0x10 }
  - { offsetInCU: 0x323AD, offset: 0x2F7FDB, size: 0x8, addend: 0x0, symName: '-[SDCBarcodeCountBasicOverlay setUserGuidanceView:]', symObjAddr: 0x554C, symBinAddr: 0x3A9D0, symSize: 0x14 }
  - { offsetInCU: 0x323EE, offset: 0x2F801C, size: 0x8, addend: 0x0, symName: '-[SDCBarcodeCountBasicOverlay highlightContainerView]', symObjAddr: 0x5560, symBinAddr: 0x3A9E4, symSize: 0x10 }
  - { offsetInCU: 0x32425, offset: 0x2F8053, size: 0x8, addend: 0x0, symName: '-[SDCBarcodeCountBasicOverlay setHighlightContainerView:]', symObjAddr: 0x5570, symBinAddr: 0x3A9F4, symSize: 0x14 }
  - { offsetInCU: 0x32466, offset: 0x2F8094, size: 0x8, addend: 0x0, symName: '-[SDCBarcodeCountBasicOverlay focusedHighlightContainerView]', symObjAddr: 0x5584, symBinAddr: 0x3AA08, symSize: 0x10 }
  - { offsetInCU: 0x3249D, offset: 0x2F80CB, size: 0x8, addend: 0x0, symName: '-[SDCBarcodeCountBasicOverlay setFocusedHighlightContainerView:]', symObjAddr: 0x5594, symBinAddr: 0x3AA18, symSize: 0x14 }
  - { offsetInCU: 0x324DE, offset: 0x2F810C, size: 0x8, addend: 0x0, symName: '-[SDCBarcodeCountBasicOverlay actionPopover]', symObjAddr: 0x55A8, symBinAddr: 0x3AA2C, symSize: 0x10 }
  - { offsetInCU: 0x32515, offset: 0x2F8143, size: 0x8, addend: 0x0, symName: '-[SDCBarcodeCountBasicOverlay setActionPopover:]', symObjAddr: 0x55B8, symBinAddr: 0x3AA3C, symSize: 0x14 }
  - { offsetInCU: 0x32556, offset: 0x2F8184, size: 0x8, addend: 0x0, symName: '-[SDCBarcodeCountBasicOverlay highlightViewHandler]', symObjAddr: 0x55CC, symBinAddr: 0x3AA50, symSize: 0x10 }
  - { offsetInCU: 0x3258D, offset: 0x2F81BB, size: 0x8, addend: 0x0, symName: '-[SDCBarcodeCountBasicOverlay setHighlightViewHandler:]', symObjAddr: 0x55DC, symBinAddr: 0x3AA60, symSize: 0x14 }
  - { offsetInCU: 0x327F0, offset: 0x2F841E, size: 0x8, addend: 0x0, symName: '-[SDCBarcodeCountBasicOverlay .cxx_destruct]', symObjAddr: 0x55F0, symBinAddr: 0x3AA74, symSize: 0x2B8 }
  - { offsetInCU: 0x32E22, offset: 0x2F8A50, size: 0x8, addend: 0x0, symName: '-[SDCBarcodeCountBasicOverlay .cxx_construct]', symObjAddr: 0x58A8, symBinAddr: 0x3AD2C, symSize: 0xC4 }
  - { offsetInCU: 0x330CE, offset: 0x2F8CFC, size: 0x8, addend: 0x0, symName: __ZNSt3__16vectorINS_10shared_ptrIN3sdc4core37BarcodeCountBasicOverlayListenerProxyEEENS_9allocatorIS5_EEE7reserveEm, symObjAddr: 0x8164, symBinAddr: 0x3D14C, symSize: 0x110 }
  - { offsetInCU: 0x33576, offset: 0x2F91A4, size: 0x8, addend: 0x0, symName: __ZNKSt3__16vectorINS_10shared_ptrIN3sdc4core37BarcodeCountBasicOverlayListenerProxyEEENS_9allocatorIS5_EEE20__throw_length_errorB8ue170006Ev, symObjAddr: 0x8274, symBinAddr: 0x3D25C, symSize: 0x14 }
  - { offsetInCU: 0x33589, offset: 0x2F91B7, size: 0x8, addend: 0x0, symName: '-[SDCBarcodeCountBasicOverlay .cxx_construct].cold.1', symObjAddr: 0x8288, symBinAddr: 0x271D44, symSize: 0x88 }
  - { offsetInCU: 0x33A1C, offset: 0x2F964A, size: 0x8, addend: 0x0, symName: __ZZN6djinni18get_cpp_proxy_implI27SDCBarcodeCountBasicOverlayN3sdc24BarcodeCountBasicOverlayEEEPT_RKNSt3__110shared_ptrIT0_EEENUlRKNS7_IvEEE_8__invokeESE_, symObjAddr: 0x5B84, symBinAddr: 0x3AF0C, symSize: 0xE0 }
  - { offsetInCU: 0x33CCE, offset: 0x2F98FC, size: 0x8, addend: 0x0, symName: __ZZN6djinni18get_cpp_proxy_implI27SDCBarcodeCountBasicOverlayN3sdc24BarcodeCountBasicOverlayEEEPT_RKNSt3__110shared_ptrIT0_EEENUlRKNS7_IvEEE_8__invokeESE_.cold.1, symObjAddr: 0x8310, symBinAddr: 0x271DCC, symSize: 0x2C }
  - { offsetInCU: 0x33F24, offset: 0x2F9B52, size: 0x8, addend: 0x0, symName: __ZZN6djinni18get_cpp_proxy_implI38SDCBarcodeFilterHighlightSettingsBrushN3sdc28BarcodeFilterOverlaySettingsEEEPT_RKNSt3__110shared_ptrIT0_EEENUlRKNS7_IvEEE_8__invokeESE_, symObjAddr: 0x5D4C, symBinAddr: 0x3B0D4, symSize: 0xE0 }
  - { offsetInCU: 0x341D6, offset: 0x2F9E04, size: 0x8, addend: 0x0, symName: __ZZN6djinni18get_cpp_proxy_implI38SDCBarcodeFilterHighlightSettingsBrushN3sdc28BarcodeFilterOverlaySettingsEEEPT_RKNSt3__110shared_ptrIT0_EEENUlRKNS7_IvEEE_8__invokeESE_.cold.1, symObjAddr: 0x833C, symBinAddr: 0x271DF8, symSize: 0x2C }
  - { offsetInCU: 0x3429A, offset: 0x2F9EC8, size: 0x8, addend: 0x0, symName: __ZNSt3__120__shared_ptr_emplaceIN3sdc30IosBarcodeCountGuidanceHandlerENS_9allocatorIS2_EEED1Ev, symObjAddr: 0x5E2C, symBinAddr: 0x3B1B4, symSize: 0x10 }
  - { offsetInCU: 0x342BE, offset: 0x2F9EEC, size: 0x8, addend: 0x0, symName: __ZNSt3__120__shared_ptr_emplaceIN3sdc30IosBarcodeCountGuidanceHandlerENS_9allocatorIS2_EEED1Ev, symObjAddr: 0x5E2C, symBinAddr: 0x3B1B4, symSize: 0x10 }
  - { offsetInCU: 0x342F7, offset: 0x2F9F25, size: 0x8, addend: 0x0, symName: __ZNSt3__120__shared_ptr_emplaceIN3sdc30IosBarcodeCountGuidanceHandlerENS_9allocatorIS2_EEED0Ev, symObjAddr: 0x5E3C, symBinAddr: 0x3B1C4, symSize: 0x20 }
  - { offsetInCU: 0x343B3, offset: 0x2F9FE1, size: 0x8, addend: 0x0, symName: __ZNSt3__120__shared_ptr_emplaceIN3sdc30IosBarcodeCountGuidanceHandlerENS_9allocatorIS2_EEE16__on_zero_sharedEv, symObjAddr: 0x5E5C, symBinAddr: 0x3B1E4, symSize: 0x40 }
  - { offsetInCU: 0x344DA, offset: 0x2FA108, size: 0x8, addend: 0x0, symName: __ZNSt3__120__shared_ptr_emplaceIN3sdc30IosBarcodeCountGuidanceHandlerENS_9allocatorIS2_EEE21__on_zero_shared_weakEv, symObjAddr: 0x5E9C, symBinAddr: 0x3B224, symSize: 0x4 }
  - { offsetInCU: 0x3450F, offset: 0x2FA13D, size: 0x8, addend: 0x0, symName: __ZNSt3__120__shared_ptr_emplaceIN3sdc30IosBarcodeCountGuidanceHandlerENS_9allocatorIS2_EEE21__on_zero_shared_weakEv, symObjAddr: 0x5E9C, symBinAddr: 0x3B224, symSize: 0x4 }
  - { offsetInCU: 0x34534, offset: 0x2FA162, size: 0x8, addend: 0x0, symName: __ZNSt3__120__shared_ptr_emplaceIN3sdc30IosBarcodeCountGuidanceHandlerENS_9allocatorIS2_EEE21__on_zero_shared_weakEv, symObjAddr: 0x5E9C, symBinAddr: 0x3B224, symSize: 0x4 }
  - { offsetInCU: 0x34559, offset: 0x2FA187, size: 0x8, addend: 0x0, symName: __ZNSt3__120__shared_ptr_emplaceIN3sdc30IosBarcodeCountGuidanceHandlerENS_9allocatorIS2_EEE21__on_zero_shared_weakEv, symObjAddr: 0x5E9C, symBinAddr: 0x3B224, symSize: 0x4 }
  - { offsetInCU: 0x34588, offset: 0x2FA1B6, size: 0x8, addend: 0x0, symName: __ZNSt3__120__shared_ptr_emplaceIN3sdc30IosBarcodeCountGuidanceHandlerENS_9allocatorIS2_EEE21__on_zero_shared_weakEv, symObjAddr: 0x5E9C, symBinAddr: 0x3B224, symSize: 0x4 }
  - { offsetInCU: 0x345B1, offset: 0x2FA1DF, size: 0x8, addend: 0x0, symName: __ZNSt3__120__shared_ptr_emplaceIN3sdc30IosBarcodeCountGuidanceHandlerENS_9allocatorIS2_EEE21__on_zero_shared_weakEv, symObjAddr: 0x5E9C, symBinAddr: 0x3B224, symSize: 0x4 }
  - { offsetInCU: 0x34A28, offset: 0x2FA656, size: 0x8, addend: 0x0, symName: __ZZN6djinniL14get_objc_proxyIN3sdc4core37BarcodeCountBasicOverlayListenerProxyEU46objcproto35SDCBarcodeCountBasicOverlayDelegate11objc_objectEENSt3__110shared_ptrIT_EEPT0_ENUlRU8__strongKP11objc_objectE_8__invokeESE_, symObjAddr: 0x6068, symBinAddr: 0x3B228, symSize: 0x7C }
  - { offsetInCU: 0x34D98, offset: 0x2FA9C6, size: 0x8, addend: 0x0, symName: __ZN11proxy_cache13ListenerProxyIU8__strongPU46objcproto35SDCBarcodeCountBasicOverlayDelegate11objc_objectN3sdc32BarcodeCountBasicOverlayListenerEEC2ES2_, symObjAddr: 0x6188, symBinAddr: 0x3B348, symSize: 0xC4 }
  - { offsetInCU: 0x34FA2, offset: 0x2FABD0, size: 0x8, addend: 0x0, symName: __ZNSt3__120__shared_ptr_emplaceIN3sdc4core37BarcodeCountBasicOverlayListenerProxyENS_9allocatorIS3_EEED1Ev, symObjAddr: 0x60E4, symBinAddr: 0x3B2A4, symSize: 0x10 }
  - { offsetInCU: 0x34FC6, offset: 0x2FABF4, size: 0x8, addend: 0x0, symName: __ZNSt3__120__shared_ptr_emplaceIN3sdc4core37BarcodeCountBasicOverlayListenerProxyENS_9allocatorIS3_EEED1Ev, symObjAddr: 0x60E4, symBinAddr: 0x3B2A4, symSize: 0x10 }
  - { offsetInCU: 0x34FFF, offset: 0x2FAC2D, size: 0x8, addend: 0x0, symName: __ZNSt3__120__shared_ptr_emplaceIN3sdc4core37BarcodeCountBasicOverlayListenerProxyENS_9allocatorIS3_EEED0Ev, symObjAddr: 0x60F4, symBinAddr: 0x3B2B4, symSize: 0x20 }
  - { offsetInCU: 0x350D7, offset: 0x2FAD05, size: 0x8, addend: 0x0, symName: __ZNSt3__120__shared_ptr_emplaceIN3sdc4core37BarcodeCountBasicOverlayListenerProxyENS_9allocatorIS3_EEE16__on_zero_sharedEv, symObjAddr: 0x6114, symBinAddr: 0x3B2D4, symSize: 0x70 }
  - { offsetInCU: 0x35207, offset: 0x2FAE35, size: 0x8, addend: 0x0, symName: __ZN6djinni10ProxyCacheINS_20ObjcProxyCacheTraitsEE6HandleIU6__weakPU46objcproto35SDCBarcodeCountBasicOverlayDelegate11objc_objectU8__strongS5_ED2Ev, symObjAddr: 0x7498, symBinAddr: 0x3C650, symSize: 0xF8 }
  - { offsetInCU: 0x3532E, offset: 0x2FAF5C, size: 0x8, addend: 0x0, symName: __ZNSt3__120__shared_ptr_emplaceIN3sdc4core37BarcodeCountBasicOverlayListenerProxyENS_9allocatorIS3_EEE21__on_zero_shared_weakEv, symObjAddr: 0x6184, symBinAddr: 0x3B344, symSize: 0x4 }
  - { offsetInCU: 0x35363, offset: 0x2FAF91, size: 0x8, addend: 0x0, symName: __ZNSt3__120__shared_ptr_emplaceIN3sdc4core37BarcodeCountBasicOverlayListenerProxyENS_9allocatorIS3_EEE21__on_zero_shared_weakEv, symObjAddr: 0x6184, symBinAddr: 0x3B344, symSize: 0x4 }
  - { offsetInCU: 0x35388, offset: 0x2FAFB6, size: 0x8, addend: 0x0, symName: __ZNSt3__120__shared_ptr_emplaceIN3sdc4core37BarcodeCountBasicOverlayListenerProxyENS_9allocatorIS3_EEE21__on_zero_shared_weakEv, symObjAddr: 0x6184, symBinAddr: 0x3B344, symSize: 0x4 }
  - { offsetInCU: 0x353AD, offset: 0x2FAFDB, size: 0x8, addend: 0x0, symName: __ZNSt3__120__shared_ptr_emplaceIN3sdc4core37BarcodeCountBasicOverlayListenerProxyENS_9allocatorIS3_EEE21__on_zero_shared_weakEv, symObjAddr: 0x6184, symBinAddr: 0x3B344, symSize: 0x4 }
  - { offsetInCU: 0x353DD, offset: 0x2FB00B, size: 0x8, addend: 0x0, symName: __ZNSt3__120__shared_ptr_emplaceIN3sdc4core37BarcodeCountBasicOverlayListenerProxyENS_9allocatorIS3_EEE21__on_zero_shared_weakEv, symObjAddr: 0x6184, symBinAddr: 0x3B344, symSize: 0x4 }
  - { offsetInCU: 0x35407, offset: 0x2FB035, size: 0x8, addend: 0x0, symName: __ZNSt3__120__shared_ptr_emplaceIN3sdc4core37BarcodeCountBasicOverlayListenerProxyENS_9allocatorIS3_EEE21__on_zero_shared_weakEv, symObjAddr: 0x6184, symBinAddr: 0x3B344, symSize: 0x4 }
  - { offsetInCU: 0x35558, offset: 0x2FB186, size: 0x8, addend: 0x0, symName: __ZN3sdc4core37BarcodeCountBasicOverlayListenerProxyD1Ev, symObjAddr: 0x624C, symBinAddr: 0x3B40C, symSize: 0x78 }
  - { offsetInCU: 0x3566B, offset: 0x2FB299, size: 0x8, addend: 0x0, symName: __ZN3sdc4core37BarcodeCountBasicOverlayListenerProxyD0Ev, symObjAddr: 0x62C4, symBinAddr: 0x3B484, symSize: 0x78 }
  - { offsetInCU: 0x357FC, offset: 0x2FB42A, size: 0x8, addend: 0x0, symName: __ZN3sdc4core37BarcodeCountBasicOverlayListenerProxy22brushForTrackedBarcodeERKNSt3__110shared_ptrINS_24BarcodeCountBasicOverlayEEERKNS3_INS0_14TrackedBarcodeEEE, symObjAddr: 0x633C, symBinAddr: 0x3B4FC, symSize: 0x1D4 }
  - { offsetInCU: 0x35CC6, offset: 0x2FB8F4, size: 0x8, addend: 0x0, symName: __ZN3sdc4core37BarcodeCountBasicOverlayListenerProxy24brushForUntrackedBarcodeERKNSt3__110shared_ptrINS_24BarcodeCountBasicOverlayEEERKNS3_INS0_14TrackedBarcodeEEE, symObjAddr: 0x6510, symBinAddr: 0x3B6D0, symSize: 0x1D4 }
  - { offsetInCU: 0x36190, offset: 0x2FBDBE, size: 0x8, addend: 0x0, symName: __ZN3sdc4core37BarcodeCountBasicOverlayListenerProxy31brushForTrackedBarcodeNotInListERKNSt3__110shared_ptrINS_24BarcodeCountBasicOverlayEEERKNS3_INS0_14TrackedBarcodeEEE, symObjAddr: 0x66E4, symBinAddr: 0x3B8A4, symSize: 0x1D4 }
  - { offsetInCU: 0x3665C, offset: 0x2FC28A, size: 0x8, addend: 0x0, symName: __ZN3sdc4core37BarcodeCountBasicOverlayListenerProxy23brushForAcceptedBarcodeERKNSt3__110shared_ptrINS_24BarcodeCountBasicOverlayEEERKNS3_INS0_14TrackedBarcodeEEE, symObjAddr: 0x68B8, symBinAddr: 0x3BA78, symSize: 0x1D4 }
  - { offsetInCU: 0x36B28, offset: 0x2FC756, size: 0x8, addend: 0x0, symName: __ZN3sdc4core37BarcodeCountBasicOverlayListenerProxy23brushForRejectedBarcodeERKNSt3__110shared_ptrINS_24BarcodeCountBasicOverlayEEERKNS3_INS0_14TrackedBarcodeEEE, symObjAddr: 0x6A8C, symBinAddr: 0x3BC4C, symSize: 0x1D4 }
  - { offsetInCU: 0x36FF4, offset: 0x2FCC22, size: 0x8, addend: 0x0, symName: __ZN3sdc4core37BarcodeCountBasicOverlayListenerProxy22onTrackedBarcodeTappedERKNSt3__110shared_ptrINS_24BarcodeCountBasicOverlayEEERKNS3_INS0_14TrackedBarcodeEEE, symObjAddr: 0x6C60, symBinAddr: 0x3BE20, symSize: 0x158 }
  - { offsetInCU: 0x3718B, offset: 0x2FCDB9, size: 0x8, addend: 0x0, symName: __ZN3sdc4core37BarcodeCountBasicOverlayListenerProxy24onUnTrackedBarcodeTappedERKNSt3__110shared_ptrINS_24BarcodeCountBasicOverlayEEERKNS3_INS0_14TrackedBarcodeEEE, symObjAddr: 0x6DB8, symBinAddr: 0x3BF78, symSize: 0x158 }
  - { offsetInCU: 0x37322, offset: 0x2FCF50, size: 0x8, addend: 0x0, symName: __ZN3sdc4core37BarcodeCountBasicOverlayListenerProxy23onFilteredBarcodeTappedERKNSt3__110shared_ptrINS_24BarcodeCountBasicOverlayEEERKNS3_INS0_14TrackedBarcodeEEE, symObjAddr: 0x6F10, symBinAddr: 0x3C0D0, symSize: 0x158 }
  - { offsetInCU: 0x374B9, offset: 0x2FD0E7, size: 0x8, addend: 0x0, symName: __ZN3sdc4core37BarcodeCountBasicOverlayListenerProxy31onTrackedBarcodeNotInListTappedERKNSt3__110shared_ptrINS_24BarcodeCountBasicOverlayEEERKNS3_INS0_14TrackedBarcodeEEE, symObjAddr: 0x7068, symBinAddr: 0x3C228, symSize: 0x158 }
  - { offsetInCU: 0x37650, offset: 0x2FD27E, size: 0x8, addend: 0x0, symName: __ZN3sdc4core37BarcodeCountBasicOverlayListenerProxy30onAcceptedTrackedBarcodeTappedERKNSt3__110shared_ptrINS_24BarcodeCountBasicOverlayEEERKNS3_INS0_14TrackedBarcodeEEE, symObjAddr: 0x71C0, symBinAddr: 0x3C380, symSize: 0x158 }
  - { offsetInCU: 0x377E7, offset: 0x2FD415, size: 0x8, addend: 0x0, symName: __ZN3sdc4core37BarcodeCountBasicOverlayListenerProxy30onRejectedTrackedBarcodeTappedERKNSt3__110shared_ptrINS_24BarcodeCountBasicOverlayEEERKNS3_INS0_14TrackedBarcodeEEE, symObjAddr: 0x7318, symBinAddr: 0x3C4D8, symSize: 0x158 }
  - { offsetInCU: 0x3797E, offset: 0x2FD5AC, size: 0x8, addend: 0x0, symName: __ZN11proxy_cache13ListenerProxyIU8__strongPU46objcproto35SDCBarcodeCountBasicOverlayDelegate11objc_objectN3sdc32BarcodeCountBasicOverlayListenerEED1Ev, symObjAddr: 0x7470, symBinAddr: 0x271D34, symSize: 0x4 }
  - { offsetInCU: 0x379A9, offset: 0x2FD5D7, size: 0x8, addend: 0x0, symName: __ZN11proxy_cache13ListenerProxyIU8__strongPU46objcproto35SDCBarcodeCountBasicOverlayDelegate11objc_objectN3sdc32BarcodeCountBasicOverlayListenerEED0Ev, symObjAddr: 0x7474, symBinAddr: 0x271D38, symSize: 0x4 }
  - { offsetInCU: 0x379D4, offset: 0x2FD602, size: 0x8, addend: 0x0, symName: __ZN3sdc32BarcodeCountBasicOverlayListener23brushForAcceptedBarcodeERKNSt3__110shared_ptrINS_24BarcodeCountBasicOverlayEEERKNS2_INS_4core14TrackedBarcodeEEE, symObjAddr: 0x7478, symBinAddr: 0x3C630, symSize: 0xC }
  - { offsetInCU: 0x37A18, offset: 0x2FD646, size: 0x8, addend: 0x0, symName: __ZN3sdc32BarcodeCountBasicOverlayListener23brushForAcceptedBarcodeERKNSt3__110shared_ptrINS_24BarcodeCountBasicOverlayEEERKNS2_INS_4core14TrackedBarcodeEEE, symObjAddr: 0x7478, symBinAddr: 0x3C630, symSize: 0xC }
  - { offsetInCU: 0x37A35, offset: 0x2FD663, size: 0x8, addend: 0x0, symName: __ZN3sdc32BarcodeCountBasicOverlayListener23brushForAcceptedBarcodeERKNSt3__110shared_ptrINS_24BarcodeCountBasicOverlayEEERKNS2_INS_4core14TrackedBarcodeEEE, symObjAddr: 0x7478, symBinAddr: 0x3C630, symSize: 0xC }
  - { offsetInCU: 0x37A53, offset: 0x2FD681, size: 0x8, addend: 0x0, symName: __ZN3sdc32BarcodeCountBasicOverlayListener23brushForAcceptedBarcodeERKNSt3__110shared_ptrINS_24BarcodeCountBasicOverlayEEERKNS2_INS_4core14TrackedBarcodeEEE, symObjAddr: 0x7478, symBinAddr: 0x3C630, symSize: 0xC }
  - { offsetInCU: 0x37A71, offset: 0x2FD69F, size: 0x8, addend: 0x0, symName: __ZN3sdc32BarcodeCountBasicOverlayListener23brushForAcceptedBarcodeERKNSt3__110shared_ptrINS_24BarcodeCountBasicOverlayEEERKNS2_INS_4core14TrackedBarcodeEEE, symObjAddr: 0x7478, symBinAddr: 0x3C630, symSize: 0xC }
  - { offsetInCU: 0x37A8F, offset: 0x2FD6BD, size: 0x8, addend: 0x0, symName: __ZN3sdc32BarcodeCountBasicOverlayListener23brushForAcceptedBarcodeERKNSt3__110shared_ptrINS_24BarcodeCountBasicOverlayEEERKNS2_INS_4core14TrackedBarcodeEEE, symObjAddr: 0x7478, symBinAddr: 0x3C630, symSize: 0xC }
  - { offsetInCU: 0x37AAD, offset: 0x2FD6DB, size: 0x8, addend: 0x0, symName: __ZN3sdc32BarcodeCountBasicOverlayListener23brushForAcceptedBarcodeERKNSt3__110shared_ptrINS_24BarcodeCountBasicOverlayEEERKNS2_INS_4core14TrackedBarcodeEEE, symObjAddr: 0x7478, symBinAddr: 0x3C630, symSize: 0xC }
  - { offsetInCU: 0x37ACB, offset: 0x2FD6F9, size: 0x8, addend: 0x0, symName: __ZN3sdc32BarcodeCountBasicOverlayListener23brushForAcceptedBarcodeERKNSt3__110shared_ptrINS_24BarcodeCountBasicOverlayEEERKNS2_INS_4core14TrackedBarcodeEEE, symObjAddr: 0x7478, symBinAddr: 0x3C630, symSize: 0xC }
  - { offsetInCU: 0x37AE9, offset: 0x2FD717, size: 0x8, addend: 0x0, symName: __ZN3sdc32BarcodeCountBasicOverlayListener23brushForAcceptedBarcodeERKNSt3__110shared_ptrINS_24BarcodeCountBasicOverlayEEERKNS2_INS_4core14TrackedBarcodeEEE, symObjAddr: 0x7478, symBinAddr: 0x3C630, symSize: 0xC }
  - { offsetInCU: 0x37B0C, offset: 0x2FD73A, size: 0x8, addend: 0x0, symName: __ZN3sdc32BarcodeCountBasicOverlayListener23brushForRejectedBarcodeERKNSt3__110shared_ptrINS_24BarcodeCountBasicOverlayEEERKNS2_INS_4core14TrackedBarcodeEEE, symObjAddr: 0x7484, symBinAddr: 0x3C63C, symSize: 0xC }
  - { offsetInCU: 0x37B50, offset: 0x2FD77E, size: 0x8, addend: 0x0, symName: __ZN3sdc32BarcodeCountBasicOverlayListener23brushForRejectedBarcodeERKNSt3__110shared_ptrINS_24BarcodeCountBasicOverlayEEERKNS2_INS_4core14TrackedBarcodeEEE, symObjAddr: 0x7484, symBinAddr: 0x3C63C, symSize: 0xC }
  - { offsetInCU: 0x37B6D, offset: 0x2FD79B, size: 0x8, addend: 0x0, symName: __ZN3sdc32BarcodeCountBasicOverlayListener23brushForRejectedBarcodeERKNSt3__110shared_ptrINS_24BarcodeCountBasicOverlayEEERKNS2_INS_4core14TrackedBarcodeEEE, symObjAddr: 0x7484, symBinAddr: 0x3C63C, symSize: 0xC }
  - { offsetInCU: 0x37B8B, offset: 0x2FD7B9, size: 0x8, addend: 0x0, symName: __ZN3sdc32BarcodeCountBasicOverlayListener23brushForRejectedBarcodeERKNSt3__110shared_ptrINS_24BarcodeCountBasicOverlayEEERKNS2_INS_4core14TrackedBarcodeEEE, symObjAddr: 0x7484, symBinAddr: 0x3C63C, symSize: 0xC }
  - { offsetInCU: 0x37BA9, offset: 0x2FD7D7, size: 0x8, addend: 0x0, symName: __ZN3sdc32BarcodeCountBasicOverlayListener23brushForRejectedBarcodeERKNSt3__110shared_ptrINS_24BarcodeCountBasicOverlayEEERKNS2_INS_4core14TrackedBarcodeEEE, symObjAddr: 0x7484, symBinAddr: 0x3C63C, symSize: 0xC }
  - { offsetInCU: 0x37BC7, offset: 0x2FD7F5, size: 0x8, addend: 0x0, symName: __ZN3sdc32BarcodeCountBasicOverlayListener23brushForRejectedBarcodeERKNSt3__110shared_ptrINS_24BarcodeCountBasicOverlayEEERKNS2_INS_4core14TrackedBarcodeEEE, symObjAddr: 0x7484, symBinAddr: 0x3C63C, symSize: 0xC }
  - { offsetInCU: 0x37BE5, offset: 0x2FD813, size: 0x8, addend: 0x0, symName: __ZN3sdc32BarcodeCountBasicOverlayListener23brushForRejectedBarcodeERKNSt3__110shared_ptrINS_24BarcodeCountBasicOverlayEEERKNS2_INS_4core14TrackedBarcodeEEE, symObjAddr: 0x7484, symBinAddr: 0x3C63C, symSize: 0xC }
  - { offsetInCU: 0x37C03, offset: 0x2FD831, size: 0x8, addend: 0x0, symName: __ZN3sdc32BarcodeCountBasicOverlayListener23brushForRejectedBarcodeERKNSt3__110shared_ptrINS_24BarcodeCountBasicOverlayEEERKNS2_INS_4core14TrackedBarcodeEEE, symObjAddr: 0x7484, symBinAddr: 0x3C63C, symSize: 0xC }
  - { offsetInCU: 0x37C21, offset: 0x2FD84F, size: 0x8, addend: 0x0, symName: __ZN3sdc32BarcodeCountBasicOverlayListener23brushForRejectedBarcodeERKNSt3__110shared_ptrINS_24BarcodeCountBasicOverlayEEERKNS2_INS_4core14TrackedBarcodeEEE, symObjAddr: 0x7484, symBinAddr: 0x3C63C, symSize: 0xC }
  - { offsetInCU: 0x37C44, offset: 0x2FD872, size: 0x8, addend: 0x0, symName: __ZN3sdc32BarcodeCountBasicOverlayListener30onAcceptedTrackedBarcodeTappedERKNSt3__110shared_ptrINS_24BarcodeCountBasicOverlayEEERKNS2_INS_4core14TrackedBarcodeEEE, symObjAddr: 0x7490, symBinAddr: 0x3C648, symSize: 0x4 }
  - { offsetInCU: 0x37C85, offset: 0x2FD8B3, size: 0x8, addend: 0x0, symName: __ZN3sdc32BarcodeCountBasicOverlayListener30onRejectedTrackedBarcodeTappedERKNSt3__110shared_ptrINS_24BarcodeCountBasicOverlayEEERKNS2_INS_4core14TrackedBarcodeEEE, symObjAddr: 0x7494, symBinAddr: 0x3C64C, symSize: 0x4 }
  - { offsetInCU: 0x38135, offset: 0x2FDD63, size: 0x8, addend: 0x0, symName: __ZZN6djinniL14get_objc_proxyIN3sdc4core36BarcodeCountCaptureListListenerProxyE47_SDCBarcodeCountBasicOverlayCaptureListListenerEENSt3__110shared_ptrIT_EEPT0_ENUlRU8__strongKP11objc_objectE_8__invokeESE_, symObjAddr: 0x7758, symBinAddr: 0x3C748, symSize: 0x7C }
  - { offsetInCU: 0x384A5, offset: 0x2FE0D3, size: 0x8, addend: 0x0, symName: __ZN11proxy_cache13ListenerProxyIU8__strongPU45objcproto34SDCBarcodeCountCaptureListListener11objc_objectN3sdc31BarcodeCountCaptureListListenerEEC2ES2_, symObjAddr: 0x7878, symBinAddr: 0x3C868, symSize: 0xC4 }
  - { offsetInCU: 0x386AF, offset: 0x2FE2DD, size: 0x8, addend: 0x0, symName: __ZNSt3__120__shared_ptr_emplaceIN3sdc4core36BarcodeCountCaptureListListenerProxyENS_9allocatorIS3_EEED1Ev, symObjAddr: 0x77D4, symBinAddr: 0x3C7C4, symSize: 0x10 }
  - { offsetInCU: 0x386D3, offset: 0x2FE301, size: 0x8, addend: 0x0, symName: __ZNSt3__120__shared_ptr_emplaceIN3sdc4core36BarcodeCountCaptureListListenerProxyENS_9allocatorIS3_EEED1Ev, symObjAddr: 0x77D4, symBinAddr: 0x3C7C4, symSize: 0x10 }
  - { offsetInCU: 0x3870C, offset: 0x2FE33A, size: 0x8, addend: 0x0, symName: __ZNSt3__120__shared_ptr_emplaceIN3sdc4core36BarcodeCountCaptureListListenerProxyENS_9allocatorIS3_EEED0Ev, symObjAddr: 0x77E4, symBinAddr: 0x3C7D4, symSize: 0x20 }
  - { offsetInCU: 0x387E4, offset: 0x2FE412, size: 0x8, addend: 0x0, symName: __ZNSt3__120__shared_ptr_emplaceIN3sdc4core36BarcodeCountCaptureListListenerProxyENS_9allocatorIS3_EEE16__on_zero_sharedEv, symObjAddr: 0x7804, symBinAddr: 0x3C7F4, symSize: 0x70 }
  - { offsetInCU: 0x38914, offset: 0x2FE542, size: 0x8, addend: 0x0, symName: __ZN6djinni10ProxyCacheINS_20ObjcProxyCacheTraitsEE6HandleIU6__weakPU45objcproto34SDCBarcodeCountCaptureListListener11objc_objectU8__strongS5_ED2Ev, symObjAddr: 0x7CDC, symBinAddr: 0x3CCC4, symSize: 0xF8 }
  - { offsetInCU: 0x38A3B, offset: 0x2FE669, size: 0x8, addend: 0x0, symName: __ZNSt3__120__shared_ptr_emplaceIN3sdc4core36BarcodeCountCaptureListListenerProxyENS_9allocatorIS3_EEE21__on_zero_shared_weakEv, symObjAddr: 0x7874, symBinAddr: 0x3C864, symSize: 0x4 }
  - { offsetInCU: 0x38A70, offset: 0x2FE69E, size: 0x8, addend: 0x0, symName: __ZNSt3__120__shared_ptr_emplaceIN3sdc4core36BarcodeCountCaptureListListenerProxyENS_9allocatorIS3_EEE21__on_zero_shared_weakEv, symObjAddr: 0x7874, symBinAddr: 0x3C864, symSize: 0x4 }
  - { offsetInCU: 0x38A95, offset: 0x2FE6C3, size: 0x8, addend: 0x0, symName: __ZNSt3__120__shared_ptr_emplaceIN3sdc4core36BarcodeCountCaptureListListenerProxyENS_9allocatorIS3_EEE21__on_zero_shared_weakEv, symObjAddr: 0x7874, symBinAddr: 0x3C864, symSize: 0x4 }
  - { offsetInCU: 0x38ABA, offset: 0x2FE6E8, size: 0x8, addend: 0x0, symName: __ZNSt3__120__shared_ptr_emplaceIN3sdc4core36BarcodeCountCaptureListListenerProxyENS_9allocatorIS3_EEE21__on_zero_shared_weakEv, symObjAddr: 0x7874, symBinAddr: 0x3C864, symSize: 0x4 }
  - { offsetInCU: 0x38AEA, offset: 0x2FE718, size: 0x8, addend: 0x0, symName: __ZNSt3__120__shared_ptr_emplaceIN3sdc4core36BarcodeCountCaptureListListenerProxyENS_9allocatorIS3_EEE21__on_zero_shared_weakEv, symObjAddr: 0x7874, symBinAddr: 0x3C864, symSize: 0x4 }
  - { offsetInCU: 0x38B14, offset: 0x2FE742, size: 0x8, addend: 0x0, symName: __ZNSt3__120__shared_ptr_emplaceIN3sdc4core36BarcodeCountCaptureListListenerProxyENS_9allocatorIS3_EEE21__on_zero_shared_weakEv, symObjAddr: 0x7874, symBinAddr: 0x3C864, symSize: 0x4 }
  - { offsetInCU: 0x38BA6, offset: 0x2FE7D4, size: 0x8, addend: 0x0, symName: __ZN3sdc4core36BarcodeCountCaptureListListenerProxyD1Ev, symObjAddr: 0x793C, symBinAddr: 0x3C92C, symSize: 0x78 }
  - { offsetInCU: 0x38CB9, offset: 0x2FE8E7, size: 0x8, addend: 0x0, symName: __ZN3sdc4core36BarcodeCountCaptureListListenerProxyD0Ev, symObjAddr: 0x79B4, symBinAddr: 0x3C9A4, symSize: 0x78 }
  - { offsetInCU: 0x38E89, offset: 0x2FEAB7, size: 0x8, addend: 0x0, symName: __ZN3sdc4core36BarcodeCountCaptureListListenerProxy27onCaptureListSessionUpdatedERKNSt3__110shared_ptrINS_23BarcodeCountCaptureListEEERKNS3_INS_30BarcodeCountCaptureListSessionEEE, symObjAddr: 0x7A2C, symBinAddr: 0x3CA1C, symSize: 0xB8 }
  - { offsetInCU: 0x38FA8, offset: 0x2FEBD6, size: 0x8, addend: 0x0, symName: __ZN3sdc4core36BarcodeCountCaptureListListenerProxy22onCaptureListCompletedERKNSt3__110shared_ptrINS_23BarcodeCountCaptureListEEERKNS3_INS_30BarcodeCountCaptureListSessionEEE, symObjAddr: 0x7AE4, symBinAddr: 0x3CAD4, symSize: 0xC8 }
  - { offsetInCU: 0x390C7, offset: 0x2FECF5, size: 0x8, addend: 0x0, symName: __ZN3sdc4core36BarcodeCountCaptureListListenerProxy20onObservationStoppedERKNSt3__110shared_ptrINS_23BarcodeCountCaptureListEEE, symObjAddr: 0x7BAC, symBinAddr: 0x3CB9C, symSize: 0x94 }
  - { offsetInCU: 0x39192, offset: 0x2FEDC0, size: 0x8, addend: 0x0, symName: __ZN3sdc4core36BarcodeCountCaptureListListenerProxy20onObservationStartedERKNSt3__110shared_ptrINS_23BarcodeCountCaptureListEEE, symObjAddr: 0x7C40, symBinAddr: 0x3CC30, symSize: 0x94 }
  - { offsetInCU: 0x3925D, offset: 0x2FEE8B, size: 0x8, addend: 0x0, symName: __ZN11proxy_cache13ListenerProxyIU8__strongPU45objcproto34SDCBarcodeCountCaptureListListener11objc_objectN3sdc31BarcodeCountCaptureListListenerEED1Ev, symObjAddr: 0x7CD4, symBinAddr: 0x271D3C, symSize: 0x4 }
  - { offsetInCU: 0x39288, offset: 0x2FEEB6, size: 0x8, addend: 0x0, symName: __ZN11proxy_cache13ListenerProxyIU8__strongPU45objcproto34SDCBarcodeCountCaptureListListener11objc_objectN3sdc31BarcodeCountCaptureListListenerEED0Ev, symObjAddr: 0x7CD8, symBinAddr: 0x271D40, symSize: 0x4 }
  - { offsetInCU: 0x3949B, offset: 0x2FF0C9, size: 0x8, addend: 0x0, symName: __ZZN6djinni18get_cpp_proxy_implI26SDCBarcodeCountCaptureListN3sdc23BarcodeCountCaptureListEEEPT_RKNSt3__110shared_ptrIT0_EEENUlRKNS7_IvEEE_8__invokeESE_, symObjAddr: 0x7EBC, symBinAddr: 0x3CEA4, symSize: 0xE0 }
  - { offsetInCU: 0x3974D, offset: 0x2FF37B, size: 0x8, addend: 0x0, symName: __ZZN6djinni18get_cpp_proxy_implI26SDCBarcodeCountCaptureListN3sdc23BarcodeCountCaptureListEEEPT_RKNSt3__110shared_ptrIT0_EEENUlRKNS7_IvEEE_8__invokeESE_.cold.1, symObjAddr: 0x83C0, symBinAddr: 0x271E24, symSize: 0x2C }
  - { offsetInCU: 0x399DC, offset: 0x2FF60A, size: 0x8, addend: 0x0, symName: __ZZN6djinni18get_cpp_proxy_implI33SDCBarcodeCountCaptureListSessionN3sdc30BarcodeCountCaptureListSessionEEEPT_RKNSt3__110shared_ptrIT0_EEENUlRKNS7_IvEEE_8__invokeESE_, symObjAddr: 0x8084, symBinAddr: 0x3D06C, symSize: 0xE0 }
  - { offsetInCU: 0x39C8E, offset: 0x2FF8BC, size: 0x8, addend: 0x0, symName: __ZZN6djinni18get_cpp_proxy_implI33SDCBarcodeCountCaptureListSessionN3sdc30BarcodeCountCaptureListSessionEEEPT_RKNSt3__110shared_ptrIT0_EEENUlRKNS7_IvEEE_8__invokeESE_.cold.1, symObjAddr: 0x83EC, symBinAddr: 0x271E50, symSize: 0x2C }
  - { offsetInCU: 0x39FB9, offset: 0x2FFBE7, size: 0x8, addend: 0x0, symName: __ZNKSt3__16vectorINS_10shared_ptrIN3sdc4core37BarcodeCountBasicOverlayListenerProxyEEENS_9allocatorIS5_EEE20__throw_length_errorB8ue170006Ev, symObjAddr: 0x8274, symBinAddr: 0x3D25C, symSize: 0x14 }
  - { offsetInCU: 0x39FE3, offset: 0x2FFC11, size: 0x8, addend: 0x0, symName: '-[SDCBarcodeCountBasicOverlay .cxx_construct].cold.1', symObjAddr: 0x8288, symBinAddr: 0x271D44, symSize: 0x88 }
  - { offsetInCU: 0x39FEE, offset: 0x2FFC1C, size: 0x8, addend: 0x0, symName: _OUTLINED_FUNCTION_0, symObjAddr: 0x8418, symBinAddr: 0x3D270, symSize: 0x10 }
  - { offsetInCU: 0x3A006, offset: 0x2FFC34, size: 0x8, addend: 0x0, symName: _OUTLINED_FUNCTION_1, symObjAddr: 0x8428, symBinAddr: 0x3D280, symSize: 0x10 }
  - { offsetInCU: 0x3A01E, offset: 0x2FFC4C, size: 0x8, addend: 0x0, symName: _OUTLINED_FUNCTION_2, symObjAddr: 0x8438, symBinAddr: 0x3D290, symSize: 0x8 }
  - { offsetInCU: 0x3A036, offset: 0x2FFC64, size: 0x8, addend: 0x0, symName: _OUTLINED_FUNCTION_3, symObjAddr: 0x8440, symBinAddr: 0x3D298, symSize: 0x8 }
  - { offsetInCU: 0x3A04E, offset: 0x2FFC7C, size: 0x8, addend: 0x0, symName: _OUTLINED_FUNCTION_4, symObjAddr: 0x8448, symBinAddr: 0x3D2A0, symSize: 0xC }
  - { offsetInCU: 0x27, offset: 0x2FFE5B, size: 0x8, addend: 0x0, symName: '-[SDCBarcodeCountBrushHandler initWithDelegate:]', symObjAddr: 0x0, symBinAddr: 0x3D2AC, symSize: 0x188 }
  - { offsetInCU: 0x4FC7, offset: 0x304DFB, size: 0x8, addend: 0x0, symName: '-[SDCBarcodeCountBrushHandler initWithDelegate:]', symObjAddr: 0x0, symBinAddr: 0x3D2AC, symSize: 0x188 }
  - { offsetInCU: 0x53D6, offset: 0x30520A, size: 0x8, addend: 0x0, symName: '-[SDCBarcodeCountBrushHandler delegateBrushForBarcode:overlayType:]', symObjAddr: 0x228, symBinAddr: 0x3D434, symSize: 0x134 }
  - { offsetInCU: 0x55FA, offset: 0x30542E, size: 0x8, addend: 0x0, symName: '-[SDCBarcodeCountBrushHandler delegateBrushForBarcode:overlayType:]', symObjAddr: 0x228, symBinAddr: 0x3D434, symSize: 0x134 }
  - { offsetInCU: 0x5661, offset: 0x305495, size: 0x8, addend: 0x0, symName: '-[SDCBarcodeCountBrushHandler propertyBrushForBarcode:overlayType:]', symObjAddr: 0x35C, symBinAddr: 0x3D568, symSize: 0xF8 }
  - { offsetInCU: 0x56C4, offset: 0x3054F8, size: 0x8, addend: 0x0, symName: '-[SDCBarcodeCountBrushHandler isBrushSetForBarcode:ofType:]', symObjAddr: 0x454, symBinAddr: 0x3D660, symSize: 0x278 }
  - { offsetInCU: 0x571B, offset: 0x30554F, size: 0x8, addend: 0x0, symName: '-[SDCBarcodeCountBrushHandler overrideBrushForBarcode:ofType:]', symObjAddr: 0x6CC, symBinAddr: 0x3D8D8, symSize: 0x2D8 }
  - { offsetInCU: 0x5783, offset: 0x3055B7, size: 0x8, addend: 0x0, symName: '-[SDCBarcodeCountBrushHandler setBrush:forBarcode:ofType:]', symObjAddr: 0x9A4, symBinAddr: 0x3DBB0, symSize: 0x2F4 }
  - { offsetInCU: 0x57F5, offset: 0x305629, size: 0x8, addend: 0x0, symName: '-[SDCBarcodeCountBrushHandler brushForBarcode:ofType:]', symObjAddr: 0xC98, symBinAddr: 0x3DEA4, symSize: 0x100 }
  - { offsetInCU: 0x584C, offset: 0x305680, size: 0x8, addend: 0x0, symName: '-[SDCBarcodeCountBrushHandler brushForFilteredBarcode]', symObjAddr: 0xD98, symBinAddr: 0x3DFA4, symSize: 0x60 }
  - { offsetInCU: 0x5884, offset: 0x3056B8, size: 0x8, addend: 0x0, symName: '-[SDCBarcodeCountBrushHandler removedBrushsesForBarcodeIdentifiers:]', symObjAddr: 0xDF8, symBinAddr: 0x3E004, symSize: 0x1F8 }
  - { offsetInCU: 0x58DE, offset: 0x305712, size: 0x8, addend: 0x0, symName: '-[SDCBarcodeCountBrushHandler listener]', symObjAddr: 0xFF0, symBinAddr: 0x3E1FC, symSize: 0x18 }
  - { offsetInCU: 0x5915, offset: 0x305749, size: 0x8, addend: 0x0, symName: '-[SDCBarcodeCountBrushHandler setListener:]', symObjAddr: 0x1008, symBinAddr: 0x3E214, symSize: 0xC }
  - { offsetInCU: 0x5956, offset: 0x30578A, size: 0x8, addend: 0x0, symName: '-[SDCBarcodeCountBrushHandler delegate]', symObjAddr: 0x1014, symBinAddr: 0x3E220, symSize: 0x18 }
  - { offsetInCU: 0x598D, offset: 0x3057C1, size: 0x8, addend: 0x0, symName: '-[SDCBarcodeCountBrushHandler setDelegate:]', symObjAddr: 0x102C, symBinAddr: 0x3E238, symSize: 0xC }
  - { offsetInCU: 0x59CE, offset: 0x305802, size: 0x8, addend: 0x0, symName: '-[SDCBarcodeCountBrushHandler recognizedBarcodeBrushes]', symObjAddr: 0x1038, symBinAddr: 0x3E244, symSize: 0x8 }
  - { offsetInCU: 0x5A05, offset: 0x305839, size: 0x8, addend: 0x0, symName: '-[SDCBarcodeCountBrushHandler setRecognizedBarcodeBrushes:]', symObjAddr: 0x1040, symBinAddr: 0x3E24C, symSize: 0xC }
  - { offsetInCU: 0x5A46, offset: 0x30587A, size: 0x8, addend: 0x0, symName: '-[SDCBarcodeCountBrushHandler unrecognizedBarcodeBrushes]', symObjAddr: 0x104C, symBinAddr: 0x3E258, symSize: 0x8 }
  - { offsetInCU: 0x5A7D, offset: 0x3058B1, size: 0x8, addend: 0x0, symName: '-[SDCBarcodeCountBrushHandler setUnrecognizedBarcodeBrushes:]', symObjAddr: 0x1054, symBinAddr: 0x3E260, symSize: 0xC }
  - { offsetInCU: 0x5ABE, offset: 0x3058F2, size: 0x8, addend: 0x0, symName: '-[SDCBarcodeCountBrushHandler notInListBarcodeBrushes]', symObjAddr: 0x1060, symBinAddr: 0x3E26C, symSize: 0x8 }
  - { offsetInCU: 0x5AF5, offset: 0x305929, size: 0x8, addend: 0x0, symName: '-[SDCBarcodeCountBrushHandler setNotInListBarcodeBrushes:]', symObjAddr: 0x1068, symBinAddr: 0x3E274, symSize: 0xC }
  - { offsetInCU: 0x5B36, offset: 0x30596A, size: 0x8, addend: 0x0, symName: '-[SDCBarcodeCountBrushHandler acceptedBarcodeBrushes]', symObjAddr: 0x1074, symBinAddr: 0x3E280, symSize: 0x8 }
  - { offsetInCU: 0x5B6D, offset: 0x3059A1, size: 0x8, addend: 0x0, symName: '-[SDCBarcodeCountBrushHandler setAcceptedBarcodeBrushes:]', symObjAddr: 0x107C, symBinAddr: 0x3E288, symSize: 0xC }
  - { offsetInCU: 0x5BAE, offset: 0x3059E2, size: 0x8, addend: 0x0, symName: '-[SDCBarcodeCountBrushHandler rejectedBarcodeBrushes]', symObjAddr: 0x1088, symBinAddr: 0x3E294, symSize: 0x8 }
  - { offsetInCU: 0x5BE5, offset: 0x305A19, size: 0x8, addend: 0x0, symName: '-[SDCBarcodeCountBrushHandler setRejectedBarcodeBrushes:]', symObjAddr: 0x1090, symBinAddr: 0x3E29C, symSize: 0xC }
  - { offsetInCU: 0x5C26, offset: 0x305A5A, size: 0x8, addend: 0x0, symName: '-[SDCBarcodeCountBrushHandler .cxx_destruct]', symObjAddr: 0x109C, symBinAddr: 0x3E2A8, symSize: 0x64 }
  - { offsetInCU: 0x27, offset: 0x305B42, size: 0x8, addend: 0x0, symName: '-[SDCBarcodeCountButtonContainerView initWithFrame:]', symObjAddr: 0x0, symBinAddr: 0x3E30C, symSize: 0x260 }
  - { offsetInCU: 0x2CF1, offset: 0x30880C, size: 0x8, addend: 0x0, symName: '-[SDCBarcodeCountButtonContainerView initWithFrame:]', symObjAddr: 0x0, symBinAddr: 0x3E30C, symSize: 0x260 }
  - { offsetInCU: 0x2D34, offset: 0x30884F, size: 0x8, addend: 0x0, symName: '-[SDCBarcodeCountButtonContainerView setExitButtonAccessibilityLabel:]', symObjAddr: 0x260, symBinAddr: 0x3E56C, symSize: 0x9C }
  - { offsetInCU: 0x2D77, offset: 0x308892, size: 0x8, addend: 0x0, symName: '-[SDCBarcodeCountButtonContainerView setListButtonAccessibilityLabel:]', symObjAddr: 0x2FC, symBinAddr: 0x3E608, symSize: 0x9C }
  - { offsetInCU: 0x2DBA, offset: 0x3088D5, size: 0x8, addend: 0x0, symName: '-[SDCBarcodeCountButtonContainerView setShutterButtonAccessibilityLabel:]', symObjAddr: 0x398, symBinAddr: 0x3E6A4, symSize: 0x9C }
  - { offsetInCU: 0x2DFD, offset: 0x308918, size: 0x8, addend: 0x0, symName: '-[SDCBarcodeCountButtonContainerView setExitButtonAccessibilityHint:]', symObjAddr: 0x434, symBinAddr: 0x3E740, symSize: 0x9C }
  - { offsetInCU: 0x2E40, offset: 0x30895B, size: 0x8, addend: 0x0, symName: '-[SDCBarcodeCountButtonContainerView setListButtonAccessibilityHint:]', symObjAddr: 0x4D0, symBinAddr: 0x3E7DC, symSize: 0x9C }
  - { offsetInCU: 0x2E83, offset: 0x30899E, size: 0x8, addend: 0x0, symName: '-[SDCBarcodeCountButtonContainerView setShutterButtonAccessibilityHint:]', symObjAddr: 0x56C, symBinAddr: 0x3E878, symSize: 0x9C }
  - { offsetInCU: 0x2EC6, offset: 0x3089E1, size: 0x8, addend: 0x0, symName: '-[SDCBarcodeCountButtonContainerView setExitButtonLabelText:]', symObjAddr: 0x608, symBinAddr: 0x3E914, symSize: 0x94 }
  - { offsetInCU: 0x2F09, offset: 0x308A24, size: 0x8, addend: 0x0, symName: '-[SDCBarcodeCountButtonContainerView setShouldShowExitButton:]', symObjAddr: 0x69C, symBinAddr: 0x3E9A8, symSize: 0x20 }
  - { offsetInCU: 0x2F4A, offset: 0x308A65, size: 0x8, addend: 0x0, symName: '-[SDCBarcodeCountButtonContainerView setShouldShowListButton:]', symObjAddr: 0x6BC, symBinAddr: 0x3E9C8, symSize: 0x20 }
  - { offsetInCU: 0x2F8B, offset: 0x308AA6, size: 0x8, addend: 0x0, symName: '-[SDCBarcodeCountButtonContainerView setShouldShowShutterButton:]', symObjAddr: 0x6DC, symBinAddr: 0x3E9E8, symSize: 0x20 }
  - { offsetInCU: 0x2FCC, offset: 0x308AE7, size: 0x8, addend: 0x0, symName: '-[SDCBarcodeCountButtonContainerView updateButton:visibilityFlag:]', symObjAddr: 0x6FC, symBinAddr: 0x3EA08, symSize: 0x70 }
  - { offsetInCU: 0x301F, offset: 0x308B3A, size: 0x8, addend: 0x0, symName: '-[SDCBarcodeCountButtonContainerView showButton:]', symObjAddr: 0x76C, symBinAddr: 0x3EA78, symSize: 0x4A8 }
  - { offsetInCU: 0x3092, offset: 0x308BAD, size: 0x8, addend: 0x0, symName: '-[SDCBarcodeCountButtonContainerView hideButton:]', symObjAddr: 0xC14, symBinAddr: 0x3EF20, symSize: 0x16C }
  - { offsetInCU: 0x30D5, offset: 0x308BF0, size: 0x8, addend: 0x0, symName: '-[SDCBarcodeCountButtonContainerView removeConstraintsInvolvingView:]', symObjAddr: 0xD80, symBinAddr: 0x3F08C, symSize: 0x268 }
  - { offsetInCU: 0x3166, offset: 0x308C81, size: 0x8, addend: 0x0, symName: '___69-[SDCBarcodeCountButtonContainerView removeConstraintsInvolvingView:]_block_invoke', symObjAddr: 0xFE8, symBinAddr: 0x3F2F4, symSize: 0xAC }
  - { offsetInCU: 0x31CD, offset: 0x308CE8, size: 0x8, addend: 0x0, symName: ___copy_helper_block_ea8_32s, symObjAddr: 0x1094, symBinAddr: 0x3F3A0, symSize: 0x8 }
  - { offsetInCU: 0x31F4, offset: 0x308D0F, size: 0x8, addend: 0x0, symName: ___destroy_helper_block_ea8_32s, symObjAddr: 0x109C, symBinAddr: 0x3F3A8, symSize: 0x8 }
  - { offsetInCU: 0x3213, offset: 0x308D2E, size: 0x8, addend: 0x0, symName: '-[SDCBarcodeCountButtonContainerView updateExitButton]', symObjAddr: 0x10A4, symBinAddr: 0x3F3B0, symSize: 0x2C }
  - { offsetInCU: 0x3246, offset: 0x308D61, size: 0x8, addend: 0x0, symName: '-[SDCBarcodeCountButtonContainerView updateListButton]', symObjAddr: 0x10D0, symBinAddr: 0x3F3DC, symSize: 0x2C }
  - { offsetInCU: 0x3279, offset: 0x308D94, size: 0x8, addend: 0x0, symName: '-[SDCBarcodeCountButtonContainerView updateShutterButton]', symObjAddr: 0x10FC, symBinAddr: 0x3F408, symSize: 0x2C }
  - { offsetInCU: 0x32AC, offset: 0x308DC7, size: 0x8, addend: 0x0, symName: '-[SDCBarcodeCountButtonContainerView addButton:inPosition:size:]', symObjAddr: 0x1128, symBinAddr: 0x3F434, symSize: 0xAE8 }
  - { offsetInCU: 0x3337, offset: 0x308E52, size: 0x8, addend: 0x0, symName: '-[SDCBarcodeCountButtonContainerView shutterButtonPressed]', symObjAddr: 0x1C10, symBinAddr: 0x3FF1C, symSize: 0x58 }
  - { offsetInCU: 0x337C, offset: 0x308E97, size: 0x8, addend: 0x0, symName: '-[SDCBarcodeCountButtonContainerView listButtonPressed]', symObjAddr: 0x1C68, symBinAddr: 0x3FF74, symSize: 0x58 }
  - { offsetInCU: 0x33C1, offset: 0x308EDC, size: 0x8, addend: 0x0, symName: '-[SDCBarcodeCountButtonContainerView exitButtonPressed]', symObjAddr: 0x1CC0, symBinAddr: 0x3FFCC, symSize: 0x58 }
  - { offsetInCU: 0x3406, offset: 0x308F21, size: 0x8, addend: 0x0, symName: '-[SDCBarcodeCountButtonContainerView layoutSubviews]', symObjAddr: 0x1D18, symBinAddr: 0x40024, symSize: 0x160 }
  - { offsetInCU: 0x3447, offset: 0x308F62, size: 0x8, addend: 0x0, symName: '-[SDCBarcodeCountButtonContainerView didMoveToSuperview]', symObjAddr: 0x1E78, symBinAddr: 0x40184, symSize: 0x84 }
  - { offsetInCU: 0x347B, offset: 0x308F96, size: 0x8, addend: 0x0, symName: '-[SDCBarcodeCountButtonContainerView delegate]', symObjAddr: 0x1EFC, symBinAddr: 0x40208, symSize: 0x20 }
  - { offsetInCU: 0x34B2, offset: 0x308FCD, size: 0x8, addend: 0x0, symName: '-[SDCBarcodeCountButtonContainerView setDelegate:]', symObjAddr: 0x1F1C, symBinAddr: 0x40228, symSize: 0x14 }
  - { offsetInCU: 0x34F3, offset: 0x30900E, size: 0x8, addend: 0x0, symName: '-[SDCBarcodeCountButtonContainerView shouldShowListButton]', symObjAddr: 0x1F30, symBinAddr: 0x4023C, symSize: 0x10 }
  - { offsetInCU: 0x352A, offset: 0x309045, size: 0x8, addend: 0x0, symName: '-[SDCBarcodeCountButtonContainerView shouldShowExitButton]', symObjAddr: 0x1F40, symBinAddr: 0x4024C, symSize: 0x10 }
  - { offsetInCU: 0x3561, offset: 0x30907C, size: 0x8, addend: 0x0, symName: '-[SDCBarcodeCountButtonContainerView shouldShowShutterButton]', symObjAddr: 0x1F50, symBinAddr: 0x4025C, symSize: 0x10 }
  - { offsetInCU: 0x3598, offset: 0x3090B3, size: 0x8, addend: 0x0, symName: '-[SDCBarcodeCountButtonContainerView listButtonAccessibilityLabel]', symObjAddr: 0x1F60, symBinAddr: 0x4026C, symSize: 0x10 }
  - { offsetInCU: 0x35CF, offset: 0x3090EA, size: 0x8, addend: 0x0, symName: '-[SDCBarcodeCountButtonContainerView exitButtonAccessibilityLabel]', symObjAddr: 0x1F70, symBinAddr: 0x4027C, symSize: 0x10 }
  - { offsetInCU: 0x3606, offset: 0x309121, size: 0x8, addend: 0x0, symName: '-[SDCBarcodeCountButtonContainerView shutterButtonAccessibilityLabel]', symObjAddr: 0x1F80, symBinAddr: 0x4028C, symSize: 0x10 }
  - { offsetInCU: 0x363D, offset: 0x309158, size: 0x8, addend: 0x0, symName: '-[SDCBarcodeCountButtonContainerView listButtonAccessibilityHint]', symObjAddr: 0x1F90, symBinAddr: 0x4029C, symSize: 0x10 }
  - { offsetInCU: 0x3674, offset: 0x30918F, size: 0x8, addend: 0x0, symName: '-[SDCBarcodeCountButtonContainerView exitButtonAccessibilityHint]', symObjAddr: 0x1FA0, symBinAddr: 0x402AC, symSize: 0x10 }
  - { offsetInCU: 0x36AB, offset: 0x3091C6, size: 0x8, addend: 0x0, symName: '-[SDCBarcodeCountButtonContainerView shutterButtonAccessibilityHint]', symObjAddr: 0x1FB0, symBinAddr: 0x402BC, symSize: 0x10 }
  - { offsetInCU: 0x36E2, offset: 0x3091FD, size: 0x8, addend: 0x0, symName: '-[SDCBarcodeCountButtonContainerView exitButton]', symObjAddr: 0x1FC0, symBinAddr: 0x402CC, symSize: 0x10 }
  - { offsetInCU: 0x3719, offset: 0x309234, size: 0x8, addend: 0x0, symName: '-[SDCBarcodeCountButtonContainerView setExitButton:]', symObjAddr: 0x1FD0, symBinAddr: 0x402DC, symSize: 0x14 }
  - { offsetInCU: 0x375A, offset: 0x309275, size: 0x8, addend: 0x0, symName: '-[SDCBarcodeCountButtonContainerView listButton]', symObjAddr: 0x1FE4, symBinAddr: 0x402F0, symSize: 0x10 }
  - { offsetInCU: 0x3791, offset: 0x3092AC, size: 0x8, addend: 0x0, symName: '-[SDCBarcodeCountButtonContainerView setListButton:]', symObjAddr: 0x1FF4, symBinAddr: 0x40300, symSize: 0x14 }
  - { offsetInCU: 0x37D2, offset: 0x3092ED, size: 0x8, addend: 0x0, symName: '-[SDCBarcodeCountButtonContainerView shutterButton]', symObjAddr: 0x2008, symBinAddr: 0x40314, symSize: 0x10 }
  - { offsetInCU: 0x3809, offset: 0x309324, size: 0x8, addend: 0x0, symName: '-[SDCBarcodeCountButtonContainerView setShutterButton:]', symObjAddr: 0x2018, symBinAddr: 0x40324, symSize: 0x14 }
  - { offsetInCU: 0x384A, offset: 0x309365, size: 0x8, addend: 0x0, symName: '-[SDCBarcodeCountButtonContainerView exitButtonLabelText]', symObjAddr: 0x202C, symBinAddr: 0x40338, symSize: 0x10 }
  - { offsetInCU: 0x3881, offset: 0x30939C, size: 0x8, addend: 0x0, symName: '-[SDCBarcodeCountButtonContainerView horizontalConstraints]', symObjAddr: 0x203C, symBinAddr: 0x40348, symSize: 0x10 }
  - { offsetInCU: 0x38B8, offset: 0x3093D3, size: 0x8, addend: 0x0, symName: '-[SDCBarcodeCountButtonContainerView setHorizontalConstraints:]', symObjAddr: 0x204C, symBinAddr: 0x40358, symSize: 0x14 }
  - { offsetInCU: 0x38F9, offset: 0x309414, size: 0x8, addend: 0x0, symName: '-[SDCBarcodeCountButtonContainerView verticalConstraints]', symObjAddr: 0x2060, symBinAddr: 0x4036C, symSize: 0x10 }
  - { offsetInCU: 0x3930, offset: 0x30944B, size: 0x8, addend: 0x0, symName: '-[SDCBarcodeCountButtonContainerView setVerticalConstraints:]', symObjAddr: 0x2070, symBinAddr: 0x4037C, symSize: 0x14 }
  - { offsetInCU: 0x3971, offset: 0x30948C, size: 0x8, addend: 0x0, symName: '-[SDCBarcodeCountButtonContainerView .cxx_destruct]', symObjAddr: 0x2084, symBinAddr: 0x40390, symSize: 0x118 }
  - { offsetInCU: 0x1642, offset: 0x30AE12, size: 0x8, addend: 0x0, symName: __ZN3sdc4core15cppSetWithNSSetINSt3__110shared_ptrINS_13TargetBarcodeEEEU8__strongU13block_pointerFS5_P16SDCTargetBarcodeEEENS2_13unordered_setIT_NS2_4hashISC_EENS2_8equal_toISC_EENS2_9allocatorISC_EEEEP5NSSetOT0_, symObjAddr: 0x2EC, symBinAddr: 0x40794, symSize: 0x1DC }
  - { offsetInCU: 0x19A44, offset: 0x323214, size: 0x8, addend: 0x0, symName: __ZN6djinni13set_cpp_proxyIU8__strongP26SDCBarcodeCountCaptureListNSt3__110shared_ptrIN3sdc23BarcodeCountCaptureListEEEEEvRKT0_T_b, symObjAddr: 0x8EC, symBinAddr: 0x40CC4, symSize: 0x104 }
  - { offsetInCU: 0x19C6F, offset: 0x32343F, size: 0x8, addend: 0x0, symName: __ZN6djinni12set_objc_ptrINSt3__110shared_ptrIN3sdc4core36BarcodeCountCaptureListListenerProxyEEEU45objcproto34SDCBarcodeCountCaptureListListener11objc_objectEEvRKT_PT0_, symObjAddr: 0x1460, symBinAddr: 0x4179C, symSize: 0x110 }
  - { offsetInCU: 0x1C418, offset: 0x325BE8, size: 0x8, addend: 0x0, symName: '-[SDCBarcodeCountCaptureList initWithListener:targetBarcodes:]', symObjAddr: 0x0, symBinAddr: 0x404A8, symSize: 0x2EC }
  - { offsetInCU: 0x1CD68, offset: 0x326538, size: 0x8, addend: 0x0, symName: __ZN11proxy_cache18ListenerProxyCacheIU8__strongPU45objcproto34SDCBarcodeCountCaptureListListener11objc_objectN3sdc4core36BarcodeCountCaptureListListenerProxyEE11getOrCreateES2_, symObjAddr: 0x52C, symBinAddr: 0x409D4, symSize: 0x2F0 }
  - { offsetInCU: 0x1D900, offset: 0x3270D0, size: 0x8, addend: 0x0, symName: __ZNSt3__113unordered_setINS_10shared_ptrIN3sdc13TargetBarcodeEEENS_4hashIS4_EENS_8equal_toIS4_EENS_9allocatorIS4_EEED1B8ue170006Ev, symObjAddr: 0xA58, symBinAddr: 0x40DC8, symSize: 0x90 }
  - { offsetInCU: 0x1DF24, offset: 0x3276F4, size: 0x8, addend: 0x0, symName: __ZNSt3__112__hash_tableINS_10shared_ptrIN3sdc13TargetBarcodeEEENS_4hashIS4_EENS_8equal_toIS4_EENS_9allocatorIS4_EEE25__emplace_unique_key_argsIS4_JS4_EEENS_4pairINS_15__hash_iteratorIPNS_11__hash_nodeIS4_PvEEEEbEERKT_DpOT0_, symObjAddr: 0xE78, symBinAddr: 0x411DC, symSize: 0x398 }
  - { offsetInCU: 0x1E6F3, offset: 0x327EC3, size: 0x8, addend: 0x0, symName: __ZNSt3__110shared_ptrIN3sdc13TargetBarcodeEED1B8ue170006Ev, symObjAddr: 0xE10, symBinAddr: 0x41174, symSize: 0x68 }
  - { offsetInCU: 0x1E7E0, offset: 0x327FB0, size: 0x8, addend: 0x0, symName: '___62-[SDCBarcodeCountCaptureList initWithListener:targetBarcodes:]_block_invoke', symObjAddr: 0x4C8, symBinAddr: 0x40970, symSize: 0x64 }
  - { offsetInCU: 0x1F0BD, offset: 0x32888D, size: 0x8, addend: 0x0, symName: __ZNSt3__16vectorINS_10shared_ptrIN3sdc4core36BarcodeCountCaptureListListenerProxyEEENS_9allocatorIS5_EEE21__push_back_slow_pathIRKS5_EEvOT_, symObjAddr: 0x1FE4, symBinAddr: 0x41928, symSize: 0x180 }
  - { offsetInCU: 0x1F6DD, offset: 0x328EAD, size: 0x8, addend: 0x0, symName: __ZNKSt3__16vectorINS_10shared_ptrIN3sdc4core36BarcodeCountCaptureListListenerProxyEEENS_9allocatorIS5_EEE20__throw_length_errorB8ue170006Ev, symObjAddr: 0x2164, symBinAddr: 0x41AA8, symSize: 0x14 }
  - { offsetInCU: 0x1F835, offset: 0x329005, size: 0x8, addend: 0x0, symName: '-[SDCBarcodeCountCaptureList initWithCpp:]', symObjAddr: 0xAE8, symBinAddr: 0x40E58, symSize: 0xD0 }
  - { offsetInCU: 0x1FA66, offset: 0x329236, size: 0x8, addend: 0x0, symName: '-[SDCBarcodeCountCaptureList typeErasedCppImpl]', symObjAddr: 0xBB8, symBinAddr: 0x40F28, symSize: 0x24 }
  - { offsetInCU: 0x1FA9D, offset: 0x32926D, size: 0x8, addend: 0x0, symName: '-[SDCBarcodeCountCaptureList typeErasedCppImpl]', symObjAddr: 0xBB8, symBinAddr: 0x40F28, symSize: 0x24 }
  - { offsetInCU: 0x1FAC6, offset: 0x329296, size: 0x8, addend: 0x0, symName: '-[SDCBarcodeCountCaptureList typeErasedCppImpl]', symObjAddr: 0xBB8, symBinAddr: 0x40F28, symSize: 0x24 }
  - { offsetInCU: 0x1FB6A, offset: 0x32933A, size: 0x8, addend: 0x0, symName: '-[SDCBarcodeCountCaptureList cppImpl]', symObjAddr: 0xBDC, symBinAddr: 0x40F4C, symSize: 0x8 }
  - { offsetInCU: 0x1FBA3, offset: 0x329373, size: 0x8, addend: 0x0, symName: '-[SDCBarcodeCountCaptureList cppImpl]', symObjAddr: 0xBDC, symBinAddr: 0x40F4C, symSize: 0x8 }
  - { offsetInCU: 0x1FDDE, offset: 0x3295AE, size: 0x8, addend: 0x0, symName: '-[SDCBarcodeCountCaptureList .cxx_destruct]', symObjAddr: 0xBE4, symBinAddr: 0x40F54, symSize: 0x170 }
  - { offsetInCU: 0x20410, offset: 0x329BE0, size: 0x8, addend: 0x0, symName: '-[SDCBarcodeCountCaptureList .cxx_construct]', symObjAddr: 0xD54, symBinAddr: 0x410C4, symSize: 0xB0 }
  - { offsetInCU: 0x2068E, offset: 0x329E5E, size: 0x8, addend: 0x0, symName: __ZNSt3__16vectorINS_10shared_ptrIN3sdc4core36BarcodeCountCaptureListListenerProxyEEENS_9allocatorIS5_EEE7reserveEm, symObjAddr: 0x21EC, symBinAddr: 0x41ABC, symSize: 0x110 }
  - { offsetInCU: 0x20B34, offset: 0x32A304, size: 0x8, addend: 0x0, symName: '-[SDCBarcodeCountCaptureList .cxx_construct].cold.1', symObjAddr: 0x22FC, symBinAddr: 0x271E7C, symSize: 0x88 }
  - { offsetInCU: 0x20B48, offset: 0x32A318, size: 0x8, addend: 0x0, symName: '-[SDCBarcodeCountCaptureList .cxx_construct].cold.1', symObjAddr: 0x22FC, symBinAddr: 0x271E7C, symSize: 0x88 }
  - { offsetInCU: 0x21394, offset: 0x32AB64, size: 0x8, addend: 0x0, symName: __ZNSt3__112__hash_tableINS_10shared_ptrIN3sdc13TargetBarcodeEEENS_4hashIS4_EENS_8equal_toIS4_EENS_9allocatorIS4_EEE11__do_rehashILb1EEEvm, symObjAddr: 0x12B4, symBinAddr: 0x415F0, symSize: 0x1AC }
  - { offsetInCU: 0x2183C, offset: 0x32B00C, size: 0x8, addend: 0x0, symName: __ZN6djinni12set_objc_ptrINSt3__110shared_ptrIN3sdc4core36BarcodeCountCaptureListListenerProxyEEEU45objcproto34SDCBarcodeCountCaptureListListener11objc_objectEEvRKT_PT0_, symObjAddr: 0x1460, symBinAddr: 0x4179C, symSize: 0x110 }
  - { offsetInCU: 0x21852, offset: 0x32B022, size: 0x8, addend: 0x0, symName: __ZNSt3__110unique_ptrINS_11__hash_nodeINS_10shared_ptrIN3sdc13TargetBarcodeEEEPvEENS_22__hash_node_destructorINS_9allocatorIS7_EEEEED1B8ue170006Ev, symObjAddr: 0x1210, symBinAddr: 0x41574, symSize: 0x7C }
  - { offsetInCU: 0x21DA9, offset: 0x32B579, size: 0x8, addend: 0x0, symName: __ZZN6djinniL14get_objc_proxyIN3sdc4core36BarcodeCountCaptureListListenerProxyEU45objcproto34SDCBarcodeCountCaptureListListener11objc_objectEENSt3__110shared_ptrIT_EEPT0_ENUlRU8__strongKP11objc_objectE_8__invokeESE_, symObjAddr: 0x15D8, symBinAddr: 0x418AC, symSize: 0x7C }
  - { offsetInCU: 0x22505, offset: 0x32BCD5, size: 0x8, addend: 0x0, symName: __ZNKSt3__16vectorINS_10shared_ptrIN3sdc4core36BarcodeCountCaptureListListenerProxyEEENS_9allocatorIS5_EEE20__throw_length_errorB8ue170006Ev, symObjAddr: 0x2164, symBinAddr: 0x41AA8, symSize: 0x14 }
  - { offsetInCU: 0x225A0, offset: 0x32BD70, size: 0x8, addend: 0x0, symName: _OUTLINED_FUNCTION_1, symObjAddr: 0x2404, symBinAddr: 0x41BCC, symSize: 0x10 }
  - { offsetInCU: 0x1642, offset: 0x32D518, size: 0x8, addend: 0x0, symName: __ZN3sdc4core20nsarrayWithCppVectorINSt3__110shared_ptrINS0_14TrackedBarcodeEEEU8__strongU13block_pointerFP17SDCTrackedBarcodeRKS5_EEEP7NSArrayRKNS2_6vectorIT_NS2_9allocatorISG_EEEEOT0_, symObjAddr: 0x1F4, symBinAddr: 0x41DD0, symSize: 0xC8 }
  - { offsetInCU: 0x180A, offset: 0x32D6E0, size: 0x8, addend: 0x0, symName: __ZN3sdc4core20nsarrayWithCppVectorINSt3__110shared_ptrINS_13TargetBarcodeEEEU8__strongU13block_pointerFP16SDCTargetBarcodeRKS5_EEEP7NSArrayRKNS2_6vectorIT_NS2_9allocatorISG_EEEEOT0_, symObjAddr: 0x5AC, symBinAddr: 0x42188, symSize: 0xC8 }
  - { offsetInCU: 0x19D2, offset: 0x32D8A8, size: 0x8, addend: 0x0, symName: __ZN3sdc4core31nsdictionaryWithCppUnorderedMapIiNSt3__110shared_ptrINS0_14TrackedBarcodeEEEU8__strongU13block_pointerFP8NSNumberiEU8__strongU13block_pointerFP17SDCTrackedBarcodeRKS5_EEEP12NSDictionaryRKNS2_13unordered_mapIT_T0_NS2_4hashISL_EENS2_8equal_toISL_EENS2_9allocatorINS2_4pairIKSL_SM_EEEEEEOT1_OT2_, symObjAddr: 0x86C, symBinAddr: 0x42448, symSize: 0x100 }
  - { offsetInCU: 0x152C4, offset: 0x34119A, size: 0x8, addend: 0x0, symName: __ZN6djinni18get_cpp_proxy_implI16SDCTargetBarcodeN3sdc13TargetBarcodeEEEPT_RKNSt3__110shared_ptrIT0_EE, symObjAddr: 0x133C, symBinAddr: 0x42B80, symSize: 0xE8 }
  - { offsetInCU: 0x17636, offset: 0x34350C, size: 0x8, addend: 0x0, symName: '-[SDCBarcodeCountCaptureListSession initWithCpp:]', symObjAddr: 0x0, symBinAddr: 0x41BDC, symSize: 0xD0 }
  - { offsetInCU: 0x17A30, offset: 0x343906, size: 0x8, addend: 0x0, symName: '-[SDCBarcodeCountCaptureListSession correctBarcodes]', symObjAddr: 0xD0, symBinAddr: 0x41CAC, symSize: 0x124 }
  - { offsetInCU: 0x17D44, offset: 0x343C1A, size: 0x8, addend: 0x0, symName: __ZNSt3__16vectorINS_10shared_ptrIN3sdc4core14TrackedBarcodeEEENS_9allocatorIS5_EEEC2ERKS8_, symObjAddr: 0xEF0, symBinAddr: 0x429D8, symSize: 0xC0 }
  - { offsetInCU: 0x180EF, offset: 0x343FC5, size: 0x8, addend: 0x0, symName: __ZNSt3__16vectorINS_10shared_ptrIN3sdc4core14TrackedBarcodeEEENS_9allocatorIS5_EEED1B8ue170006Ev, symObjAddr: 0x2C4, symBinAddr: 0x41EA0, symSize: 0x98 }
  - { offsetInCU: 0x18403, offset: 0x3442D9, size: 0x8, addend: 0x0, symName: '___52-[SDCBarcodeCountCaptureListSession correctBarcodes]_block_invoke', symObjAddr: 0x2BC, symBinAddr: 0x41E98, symSize: 0x8 }
  - { offsetInCU: 0x18473, offset: 0x344349, size: 0x8, addend: 0x0, symName: '-[SDCBarcodeCountCaptureListSession wrongBarcodes]', symObjAddr: 0x35C, symBinAddr: 0x41F38, symSize: 0x124 }
  - { offsetInCU: 0x18787, offset: 0x34465D, size: 0x8, addend: 0x0, symName: '___50-[SDCBarcodeCountCaptureListSession wrongBarcodes]_block_invoke', symObjAddr: 0x480, symBinAddr: 0x4205C, symSize: 0x8 }
  - { offsetInCU: 0x189A0, offset: 0x344876, size: 0x8, addend: 0x0, symName: '-[SDCBarcodeCountCaptureListSession missingBarcodes]', symObjAddr: 0x488, symBinAddr: 0x42064, symSize: 0x124 }
  - { offsetInCU: 0x18CB4, offset: 0x344B8A, size: 0x8, addend: 0x0, symName: __ZNSt3__16vectorINS_10shared_ptrIN3sdc13TargetBarcodeEEENS_9allocatorIS4_EEEC2ERKS7_, symObjAddr: 0x1268, symBinAddr: 0x42AAC, symSize: 0xC0 }
  - { offsetInCU: 0x1905F, offset: 0x344F35, size: 0x8, addend: 0x0, symName: __ZNSt3__16vectorINS_10shared_ptrIN3sdc13TargetBarcodeEEENS_9allocatorIS4_EEED1B8ue170006Ev, symObjAddr: 0x67C, symBinAddr: 0x42258, symSize: 0x98 }
  - { offsetInCU: 0x19347, offset: 0x34521D, size: 0x8, addend: 0x0, symName: '___52-[SDCBarcodeCountCaptureListSession missingBarcodes]_block_invoke', symObjAddr: 0x674, symBinAddr: 0x42250, symSize: 0x8 }
  - { offsetInCU: 0x19637, offset: 0x34550D, size: 0x8, addend: 0x0, symName: '-[SDCBarcodeCountCaptureListSession acceptedBarcodes]', symObjAddr: 0x714, symBinAddr: 0x422F0, symSize: 0x158 }
  - { offsetInCU: 0x19AEB, offset: 0x3459C1, size: 0x8, addend: 0x0, symName: __ZNSt3__113unordered_mapIiNS_10shared_ptrIN3sdc4core14TrackedBarcodeEEENS_4hashIiEENS_8equal_toIiEENS_9allocatorINS_4pairIKiS5_EEEEED1B8ue170006Ev, symObjAddr: 0x984, symBinAddr: 0x42560, symSize: 0x90 }
  - { offsetInCU: 0x19F1E, offset: 0x345DF4, size: 0x8, addend: 0x0, symName: '___53-[SDCBarcodeCountCaptureListSession acceptedBarcodes]_block_invoke', symObjAddr: 0x96C, symBinAddr: 0x42548, symSize: 0x10 }
  - { offsetInCU: 0x19F59, offset: 0x345E2F, size: 0x8, addend: 0x0, symName: '___53-[SDCBarcodeCountCaptureListSession acceptedBarcodes]_block_invoke_2', symObjAddr: 0x97C, symBinAddr: 0x42558, symSize: 0x8 }
  - { offsetInCU: 0x19FC9, offset: 0x345E9F, size: 0x8, addend: 0x0, symName: '-[SDCBarcodeCountCaptureListSession rejectedBarcodes]', symObjAddr: 0xA14, symBinAddr: 0x425F0, symSize: 0x158 }
  - { offsetInCU: 0x1A47D, offset: 0x346353, size: 0x8, addend: 0x0, symName: '___53-[SDCBarcodeCountCaptureListSession rejectedBarcodes]_block_invoke', symObjAddr: 0xB6C, symBinAddr: 0x42748, symSize: 0x10 }
  - { offsetInCU: 0x1A4B8, offset: 0x34638E, size: 0x8, addend: 0x0, symName: '___53-[SDCBarcodeCountCaptureListSession rejectedBarcodes]_block_invoke_2', symObjAddr: 0xB7C, symBinAddr: 0x42758, symSize: 0x8 }
  - { offsetInCU: 0x1A543, offset: 0x346419, size: 0x8, addend: 0x0, symName: '-[SDCBarcodeCountCaptureListSession cppImpl]', symObjAddr: 0xB84, symBinAddr: 0x42760, symSize: 0x8 }
  - { offsetInCU: 0x1A57C, offset: 0x346452, size: 0x8, addend: 0x0, symName: '-[SDCBarcodeCountCaptureListSession cppImpl]', symObjAddr: 0xB84, symBinAddr: 0x42760, symSize: 0x8 }
  - { offsetInCU: 0x1A5F1, offset: 0x3464C7, size: 0x8, addend: 0x0, symName: '-[SDCBarcodeCountCaptureListSession additionalBarcodes]', symObjAddr: 0xB8C, symBinAddr: 0x42768, symSize: 0xA0 }
  - { offsetInCU: 0x1A69C, offset: 0x346572, size: 0x8, addend: 0x0, symName: '___55-[SDCBarcodeCountCaptureListSession additionalBarcodes]_block_invoke', symObjAddr: 0xC2C, symBinAddr: 0x42808, symSize: 0x8 }
  - { offsetInCU: 0x1A905, offset: 0x3467DB, size: 0x8, addend: 0x0, symName: '-[SDCBarcodeCountCaptureListSession JSONString]', symObjAddr: 0xD1C, symBinAddr: 0x42810, symSize: 0x9C }
  - { offsetInCU: 0x1AC72, offset: 0x346B48, size: 0x8, addend: 0x0, symName: '-[SDCBarcodeCountCaptureListSession .cxx_destruct]', symObjAddr: 0xDB8, symBinAddr: 0x428AC, symSize: 0xE4 }
  - { offsetInCU: 0x1AF88, offset: 0x346E5E, size: 0x8, addend: 0x0, symName: '-[SDCBarcodeCountCaptureListSession .cxx_construct]', symObjAddr: 0xE9C, symBinAddr: 0x42990, symSize: 0x48 }
  - { offsetInCU: 0x1B384, offset: 0x34725A, size: 0x8, addend: 0x0, symName: __ZNKSt3__16vectorINS_10shared_ptrIN3sdc4core14TrackedBarcodeEEENS_9allocatorIS5_EEE20__throw_length_errorB8ue170006Ev, symObjAddr: 0xFB0, symBinAddr: 0x42A98, symSize: 0x14 }
  - { offsetInCU: 0x1B3B9, offset: 0x34728F, size: 0x8, addend: 0x0, symName: __ZNSt3__16vectorINS_10shared_ptrIN3sdc4core14TrackedBarcodeEEENS_9allocatorIS5_EEEC2ERKS8_.cold.1, symObjAddr: 0x17B0, symBinAddr: 0x271F04, symSize: 0x60 }
  - { offsetInCU: 0x1B961, offset: 0x347837, size: 0x8, addend: 0x0, symName: __ZNKSt3__16vectorINS_10shared_ptrIN3sdc13TargetBarcodeEEENS_9allocatorIS4_EEE20__throw_length_errorB8ue170006Ev, symObjAddr: 0x1328, symBinAddr: 0x42B6C, symSize: 0x14 }
  - { offsetInCU: 0x1B98B, offset: 0x347861, size: 0x8, addend: 0x0, symName: __ZN6djinni18get_cpp_proxy_implI16SDCTargetBarcodeN3sdc13TargetBarcodeEEEPT_RKNSt3__110shared_ptrIT0_EE, symObjAddr: 0x133C, symBinAddr: 0x42B80, symSize: 0xE8 }
  - { offsetInCU: 0x1B996, offset: 0x34786C, size: 0x8, addend: 0x0, symName: __ZNSt3__16vectorINS_10shared_ptrIN3sdc13TargetBarcodeEEENS_9allocatorIS4_EEEC2ERKS7_.cold.1, symObjAddr: 0x1840, symBinAddr: 0x271F64, symSize: 0x60 }
  - { offsetInCU: 0x1BD57, offset: 0x347C2D, size: 0x8, addend: 0x0, symName: __ZZN6djinni18get_cpp_proxy_implI16SDCTargetBarcodeN3sdc13TargetBarcodeEEEPT_RKNSt3__110shared_ptrIT0_EEENUlRKNS7_IvEEE_8__invokeESE_, symObjAddr: 0x1424, symBinAddr: 0x42C68, symSize: 0xE0 }
  - { offsetInCU: 0x1C009, offset: 0x347EDF, size: 0x8, addend: 0x0, symName: __ZZN6djinni18get_cpp_proxy_implI16SDCTargetBarcodeN3sdc13TargetBarcodeEEEPT_RKNSt3__110shared_ptrIT0_EEENUlRKNS7_IvEEE_8__invokeESE_.cold.1, symObjAddr: 0x18A0, symBinAddr: 0x271FC4, symSize: 0x30 }
  - { offsetInCU: 0x1C1F5, offset: 0x3480CB, size: 0x8, addend: 0x0, symName: _OUTLINED_FUNCTION_0, symObjAddr: 0x1900, symBinAddr: 0x42D48, symSize: 0x10 }
  - { offsetInCU: 0x1C20D, offset: 0x3480E3, size: 0x8, addend: 0x0, symName: _OUTLINED_FUNCTION_1, symObjAddr: 0x1910, symBinAddr: 0x42D58, symSize: 0x10 }
  - { offsetInCU: 0x1C225, offset: 0x3480FB, size: 0x8, addend: 0x0, symName: _OUTLINED_FUNCTION_2, symObjAddr: 0x1920, symBinAddr: 0x42D68, symSize: 0x10 }
  - { offsetInCU: 0x1C23D, offset: 0x348113, size: 0x8, addend: 0x0, symName: _OUTLINED_FUNCTION_3, symObjAddr: 0x1930, symBinAddr: 0x42D78, symSize: 0x10 }
  - { offsetInCU: 0x1C255, offset: 0x34812B, size: 0x8, addend: 0x0, symName: _OUTLINED_FUNCTION_4, symObjAddr: 0x1940, symBinAddr: 0x42D88, symSize: 0x18 }
  - { offsetInCU: 0x1C26D, offset: 0x348143, size: 0x8, addend: 0x0, symName: _OUTLINED_FUNCTION_5, symObjAddr: 0x1958, symBinAddr: 0x42DA0, symSize: 0x8 }
  - { offsetInCU: 0x1C285, offset: 0x34815B, size: 0x8, addend: 0x0, symName: _OUTLINED_FUNCTION_6, symObjAddr: 0x1960, symBinAddr: 0x42DA8, symSize: 0x8 }
  - { offsetInCU: 0x27, offset: 0x348518, size: 0x8, addend: 0x0, symName: '+[SDCBarcodeCountClearHighlightsButton imageNamed:]', symObjAddr: 0x0, symBinAddr: 0x42DB0, symSize: 0xB4 }
  - { offsetInCU: 0x1B3, offset: 0x3486A4, size: 0x8, addend: 0x0, symName: '+[SDCBarcodeCountClearHighlightsButton imageNamed:]', symObjAddr: 0x0, symBinAddr: 0x42DB0, symSize: 0xB4 }
  - { offsetInCU: 0x200, offset: 0x3486F1, size: 0x8, addend: 0x0, symName: '-[SDCBarcodeCountClearHighlightsButton imageWithColor:]', symObjAddr: 0xB4, symBinAddr: 0x42E64, symSize: 0xC0 }
  - { offsetInCU: 0x33D, offset: 0x34882E, size: 0x8, addend: 0x0, symName: '-[SDCBarcodeCountClearHighlightsButton initWithFrame:]', symObjAddr: 0x174, symBinAddr: 0x42F24, symSize: 0x374 }
  - { offsetInCU: 0x3C5, offset: 0x3488B6, size: 0x8, addend: 0x0, symName: '-[SDCBarcodeCountClearHighlightsButton layoutSubviews]', symObjAddr: 0x4E8, symBinAddr: 0x43298, symSize: 0xBC }
  - { offsetInCU: 0x27, offset: 0x348929, size: 0x8, addend: 0x0, symName: '-[SDCBarcodeCountDefaultHighlightHandler initWithDelegate:brushHandler:]', symObjAddr: 0x0, symBinAddr: 0x43354, symSize: 0x198 }
  - { offsetInCU: 0xA7CC, offset: 0x3530CE, size: 0x8, addend: 0x0, symName: '-[SDCBarcodeCountDefaultHighlightHandler initWithDelegate:brushHandler:]', symObjAddr: 0x0, symBinAddr: 0x43354, symSize: 0x198 }
  - { offsetInCU: 0xA823, offset: 0x353125, size: 0x8, addend: 0x0, symName: '-[SDCBarcodeCountDefaultHighlightHandler dotViewForBarcode:overlayType:frame:]', symObjAddr: 0x198, symBinAddr: 0x434EC, symSize: 0x104 }
  - { offsetInCU: 0xA896, offset: 0x353198, size: 0x8, addend: 0x0, symName: '-[SDCBarcodeCountDefaultHighlightHandler filterViewForBarcode:]', symObjAddr: 0x29C, symBinAddr: 0x435F0, symSize: 0x154 }
  - { offsetInCU: 0xA909, offset: 0x35320B, size: 0x8, addend: 0x0, symName: '-[SDCBarcodeCountDefaultHighlightHandler viewForBarcode:overlayType:]', symObjAddr: 0x3F0, symBinAddr: 0x43744, symSize: 0x1BC }
  - { offsetInCU: 0xA9A0, offset: 0x3532A2, size: 0x8, addend: 0x0, symName: '-[SDCBarcodeCountDefaultHighlightHandler addOverlayForBarcode:overlayType:]', symObjAddr: 0x5AC, symBinAddr: 0x43900, symSize: 0x1B0 }
  - { offsetInCU: 0xAA61, offset: 0x353363, size: 0x8, addend: 0x0, symName: '-[SDCBarcodeCountDefaultHighlightHandler setFocusedBarcode:]', symObjAddr: 0x75C, symBinAddr: 0x43AB0, symSize: 0xE4 }
  - { offsetInCU: 0xAAA4, offset: 0x3533A6, size: 0x8, addend: 0x0, symName: '-[SDCBarcodeCountDefaultHighlightHandler focusedBarcodeIdentifier]', symObjAddr: 0x840, symBinAddr: 0x43B94, symSize: 0x84 }
  - { offsetInCU: 0xAADB, offset: 0x3533DD, size: 0x8, addend: 0x0, symName: '-[SDCBarcodeCountDefaultHighlightHandler updateOverlayForBarcode:]', symObjAddr: 0x8C4, symBinAddr: 0x43C18, symSize: 0x360 }
  - { offsetInCU: 0xAB95, offset: 0x353497, size: 0x8, addend: 0x0, symName: '-[SDCBarcodeCountDefaultHighlightHandler sessionUpdatedWithBarcodes:ofType:]', symObjAddr: 0xC24, symBinAddr: 0x43F78, symSize: 0x2EC }
  - { offsetInCU: 0xAC26, offset: 0x353528, size: 0x8, addend: 0x0, symName: '-[SDCBarcodeCountDefaultHighlightHandler highlightAtPoint:]', symObjAddr: 0xF10, symBinAddr: 0x44264, symSize: 0x170 }
  - { offsetInCU: 0xAC97, offset: 0x353599, size: 0x8, addend: 0x0, symName: ___Block_byref_object_copy_, symObjAddr: 0x1080, symBinAddr: 0x443D4, symSize: 0x10 }
  - { offsetInCU: 0xACBC, offset: 0x3535BE, size: 0x8, addend: 0x0, symName: ___Block_byref_object_dispose_, symObjAddr: 0x1090, symBinAddr: 0x443E4, symSize: 0x8 }
  - { offsetInCU: 0xACDB, offset: 0x3535DD, size: 0x8, addend: 0x0, symName: '___59-[SDCBarcodeCountDefaultHighlightHandler highlightAtPoint:]_block_invoke', symObjAddr: 0x1098, symBinAddr: 0x443EC, symSize: 0x104 }
  - { offsetInCU: 0xADEB, offset: 0x3536ED, size: 0x8, addend: 0x0, symName: ___copy_helper_block_ea8_32r40r, symObjAddr: 0x119C, symBinAddr: 0x444F0, symSize: 0x3C }
  - { offsetInCU: 0xAE14, offset: 0x353716, size: 0x8, addend: 0x0, symName: ___destroy_helper_block_ea8_32r40r, symObjAddr: 0x11D8, symBinAddr: 0x4452C, symSize: 0x30 }
  - { offsetInCU: 0xAE33, offset: 0x353735, size: 0x8, addend: 0x0, symName: '-[SDCBarcodeCountDefaultHighlightHandler removeAllHighlights]', symObjAddr: 0x1208, symBinAddr: 0x4455C, symSize: 0x74 }
  - { offsetInCU: 0xAE66, offset: 0x353768, size: 0x8, addend: 0x0, symName: '___61-[SDCBarcodeCountDefaultHighlightHandler removeAllHighlights]_block_invoke', symObjAddr: 0x127C, symBinAddr: 0x445D0, symSize: 0x48 }
  - { offsetInCU: 0xAE9D, offset: 0x35379F, size: 0x8, addend: 0x0, symName: '-[SDCBarcodeCountDefaultHighlightHandler colorSchemeUpdated]', symObjAddr: 0x12C4, symBinAddr: 0x44618, symSize: 0xB0 }
  - { offsetInCU: 0xAED0, offset: 0x3537D2, size: 0x8, addend: 0x0, symName: '___60-[SDCBarcodeCountDefaultHighlightHandler colorSchemeUpdated]_block_invoke', symObjAddr: 0x1374, symBinAddr: 0x446C8, symSize: 0x1F4 }
  - { offsetInCU: 0xB05C, offset: 0x35395E, size: 0x8, addend: 0x0, symName: '-[SDCBarcodeCountDefaultHighlightHandler updateWithAddedRecognizedBarcodes:updatedRecognizedBarcodes:removedRecognizedBarcodes:unrecognizedBarcodes:filteredTrackedBarcodes:]', symObjAddr: 0x1578, symBinAddr: 0x448BC, symSize: 0x4E4 }
  - { offsetInCU: 0xB4E7, offset: 0x353DE9, size: 0x8, addend: 0x0, symName: '-[SDCBarcodeCountDefaultHighlightHandler updateWithWrongBarcodes:acceptedBarcodes:rejectedBarcodes:]', symObjAddr: 0x1AFC, symBinAddr: 0x44DA0, symSize: 0x6F4 }
  - { offsetInCU: 0xB70B, offset: 0x35400D, size: 0x8, addend: 0x0, symName: '-[SDCBarcodeCountDefaultHighlightHandler updateWithWrongBarcodes:acceptedBarcodes:rejectedBarcodes:]', symObjAddr: 0x1AFC, symBinAddr: 0x44DA0, symSize: 0x6F4 }
  - { offsetInCU: 0xB96C, offset: 0x35426E, size: 0x8, addend: 0x0, symName: '-[SDCBarcodeCountDefaultHighlightHandler setDataCaptureView:]', symObjAddr: 0x21F0, symBinAddr: 0x45494, symSize: 0x4 }
  - { offsetInCU: 0xB9AD, offset: 0x3542AF, size: 0x8, addend: 0x0, symName: '-[SDCBarcodeCountDefaultHighlightHandler brushHandler:didUpdateBrushForBarcode:]', symObjAddr: 0x21F4, symBinAddr: 0x45498, symSize: 0x1D0 }
  - { offsetInCU: 0xBA2C, offset: 0x35432E, size: 0x8, addend: 0x0, symName: '-[SDCBarcodeCountDefaultHighlightHandler focusedBarcode]', symObjAddr: 0x23C4, symBinAddr: 0x45668, symSize: 0x10 }
  - { offsetInCU: 0xBA63, offset: 0x354365, size: 0x8, addend: 0x0, symName: '-[SDCBarcodeCountDefaultHighlightHandler wrongScans]', symObjAddr: 0x23D4, symBinAddr: 0x45678, symSize: 0x10 }
  - { offsetInCU: 0xBA9A, offset: 0x35439C, size: 0x8, addend: 0x0, symName: '-[SDCBarcodeCountDefaultHighlightHandler setWrongScans:]', symObjAddr: 0x23E4, symBinAddr: 0x45688, symSize: 0x14 }
  - { offsetInCU: 0xBADB, offset: 0x3543DD, size: 0x8, addend: 0x0, symName: '-[SDCBarcodeCountDefaultHighlightHandler acceptedBarcodes]', symObjAddr: 0x23F8, symBinAddr: 0x4569C, symSize: 0x10 }
  - { offsetInCU: 0xBB12, offset: 0x354414, size: 0x8, addend: 0x0, symName: '-[SDCBarcodeCountDefaultHighlightHandler setAcceptedBarcodes:]', symObjAddr: 0x2408, symBinAddr: 0x456AC, symSize: 0x14 }
  - { offsetInCU: 0xBB53, offset: 0x354455, size: 0x8, addend: 0x0, symName: '-[SDCBarcodeCountDefaultHighlightHandler rejectedBarcodes]', symObjAddr: 0x241C, symBinAddr: 0x456C0, symSize: 0x10 }
  - { offsetInCU: 0xBB8A, offset: 0x35448C, size: 0x8, addend: 0x0, symName: '-[SDCBarcodeCountDefaultHighlightHandler setRejectedBarcodes:]', symObjAddr: 0x242C, symBinAddr: 0x456D0, symSize: 0x14 }
  - { offsetInCU: 0xBBCB, offset: 0x3544CD, size: 0x8, addend: 0x0, symName: '-[SDCBarcodeCountDefaultHighlightHandler delegate]', symObjAddr: 0x2440, symBinAddr: 0x456E4, symSize: 0x20 }
  - { offsetInCU: 0xBC02, offset: 0x354504, size: 0x8, addend: 0x0, symName: '-[SDCBarcodeCountDefaultHighlightHandler setDelegate:]', symObjAddr: 0x2460, symBinAddr: 0x45704, symSize: 0x14 }
  - { offsetInCU: 0xBC43, offset: 0x354545, size: 0x8, addend: 0x0, symName: '-[SDCBarcodeCountDefaultHighlightHandler brushHandler]', symObjAddr: 0x2474, symBinAddr: 0x45718, symSize: 0x20 }
  - { offsetInCU: 0xBC7A, offset: 0x35457C, size: 0x8, addend: 0x0, symName: '-[SDCBarcodeCountDefaultHighlightHandler setBrushHandler:]', symObjAddr: 0x2494, symBinAddr: 0x45738, symSize: 0x14 }
  - { offsetInCU: 0xBCBB, offset: 0x3545BD, size: 0x8, addend: 0x0, symName: '-[SDCBarcodeCountDefaultHighlightHandler .cxx_destruct]', symObjAddr: 0x24A8, symBinAddr: 0x4574C, symSize: 0x88 }
  - { offsetInCU: 0x13DFA, offset: 0x3686BC, size: 0x8, addend: 0x0, symName: __ZNSt3__115allocate_sharedB8ue170006IN3sdc24BarcodeCountDeserializerENS_9allocatorIS2_EEJRKNS_10shared_ptrINS1_34BarcodeCountDeserializerHelperImplEEEEvEENS5_IT_EERKT0_DpOT1_, symObjAddr: 0x4380, symBinAddr: 0x48E10, symSize: 0x108 }
  - { offsetInCU: 0x19DC1, offset: 0x36E683, size: 0x8, addend: 0x0, symName: __ZN6djinni13set_cpp_proxyIU8__strongP27SDCBarcodeCountDeserializerNSt3__110shared_ptrIN3sdc24BarcodeCountDeserializerEEEEEvRKT0_T_b, symObjAddr: 0x258, symBinAddr: 0x45A2C, symSize: 0x104 }
  - { offsetInCU: 0x19FEC, offset: 0x36E8AE, size: 0x8, addend: 0x0, symName: __ZN6djinni12set_objc_ptrINSt3__110shared_ptrIN3sdc4core37BarcodeCountDeserializerListenerProxyEEEU46objcproto35SDCBarcodeCountDeserializerDelegate11objc_objectEEvRKT_PT0_, symObjAddr: 0x477C, symBinAddr: 0x4903C, symSize: 0x110 }
  - { offsetInCU: 0x1A6F5, offset: 0x36EFB7, size: 0x8, addend: 0x0, symName: __ZN6djinni18get_cpp_proxy_implI27SDCBarcodeCountDeserializerN3sdc24BarcodeCountDeserializerEEEPT_RKNSt3__110shared_ptrIT0_EE, symObjAddr: 0x5228, symBinAddr: 0x49AE0, symSize: 0xE8 }
  - { offsetInCU: 0x1D051, offset: 0x371913, size: 0x8, addend: 0x0, symName: '+[SDCBarcodeCountDeserializer barcodeCountDeserializer]', symObjAddr: 0x0, symBinAddr: 0x457D4, symSize: 0x1C }
  - { offsetInCU: 0x1D3E2, offset: 0x371CA4, size: 0x8, addend: 0x0, symName: '-[SDCBarcodeCountDeserializer init]', symObjAddr: 0x1C, symBinAddr: 0x457F0, symSize: 0x1D4 }
  - { offsetInCU: 0x1D947, offset: 0x372209, size: 0x8, addend: 0x0, symName: __ZNSt3__110shared_ptrIN3sdc24BarcodeCountDeserializerEED1B8ue170006Ev, symObjAddr: 0x1F0, symBinAddr: 0x459C4, symSize: 0x68 }
  - { offsetInCU: 0x1D9E6, offset: 0x3722A8, size: 0x8, addend: 0x0, symName: __ZNSt3__110shared_ptrIN3sdc34BarcodeCountDeserializerHelperImplEED1B8ue170006Ev, symObjAddr: 0x35C, symBinAddr: 0x45B30, symSize: 0x68 }
  - { offsetInCU: 0x1DC53, offset: 0x372515, size: 0x8, addend: 0x0, symName: '-[SDCBarcodeCountDeserializer initWithCpp:]', symObjAddr: 0x3C4, symBinAddr: 0x45B98, symSize: 0xD0 }
  - { offsetInCU: 0x1DE9F, offset: 0x372761, size: 0x8, addend: 0x0, symName: '-[SDCBarcodeCountDeserializer cppImpl]', symObjAddr: 0x494, symBinAddr: 0x45C68, symSize: 0x8 }
  - { offsetInCU: 0x1DED9, offset: 0x37279B, size: 0x8, addend: 0x0, symName: '-[SDCBarcodeCountDeserializer cppImpl]', symObjAddr: 0x494, symBinAddr: 0x45C68, symSize: 0x8 }
  - { offsetInCU: 0x1DEF6, offset: 0x3727B8, size: 0x8, addend: 0x0, symName: '-[SDCBarcodeCountDeserializer typeErasedCppImpl]', symObjAddr: 0x49C, symBinAddr: 0x45C70, symSize: 0x24 }
  - { offsetInCU: 0x1DF2E, offset: 0x3727F0, size: 0x8, addend: 0x0, symName: '-[SDCBarcodeCountDeserializer typeErasedCppImpl]', symObjAddr: 0x49C, symBinAddr: 0x45C70, symSize: 0x24 }
  - { offsetInCU: 0x1DF57, offset: 0x372819, size: 0x8, addend: 0x0, symName: '-[SDCBarcodeCountDeserializer typeErasedCppImpl]', symObjAddr: 0x49C, symBinAddr: 0x45C70, symSize: 0x24 }
  - { offsetInCU: 0x1E281, offset: 0x372B43, size: 0x8, addend: 0x0, symName: '-[SDCBarcodeCountDeserializer warnings]', symObjAddr: 0x4C0, symBinAddr: 0x45C94, symSize: 0x10C }
  - { offsetInCU: 0x1E7D8, offset: 0x37309A, size: 0x8, addend: 0x0, symName: '___39-[SDCBarcodeCountDeserializer warnings]_block_invoke', symObjAddr: 0x5CC, symBinAddr: 0x45DA0, symSize: 0x8 }
  - { offsetInCU: 0x1E9BE, offset: 0x373280, size: 0x8, addend: 0x0, symName: '-[SDCBarcodeCountDeserializer setDelegate:]', symObjAddr: 0x648, symBinAddr: 0x45DA8, symSize: 0x184 }
  - { offsetInCU: 0x1ED99, offset: 0x37365B, size: 0x8, addend: 0x0, symName: __ZN11proxy_cache18ListenerProxyCacheIU8__strongPU46objcproto35SDCBarcodeCountDeserializerDelegate11objc_objectN3sdc4core37BarcodeCountDeserializerListenerProxyEE11getOrCreateES2_, symObjAddr: 0x7CC, symBinAddr: 0x45F2C, symSize: 0x2F0 }
  - { offsetInCU: 0x1FE86, offset: 0x374748, size: 0x8, addend: 0x0, symName: __ZN11proxy_cache13ListenerProxyIU8__strongPU46objcproto35SDCBarcodeCountDeserializerDelegate11objc_objectN3sdc32BarcodeCountDeserializerListenerEEC2ES2_, symObjAddr: 0x49AC, symBinAddr: 0x4926C, symSize: 0xC4 }
  - { offsetInCU: 0x20073, offset: 0x374935, size: 0x8, addend: 0x0, symName: __ZNSt3__16vectorINS_10shared_ptrIN3sdc4core37BarcodeCountDeserializerListenerProxyEEENS_9allocatorIS5_EEE21__push_back_slow_pathIRKS5_EEvOT_, symObjAddr: 0x53F0, symBinAddr: 0x49CA8, symSize: 0x180 }
  - { offsetInCU: 0x20694, offset: 0x374F56, size: 0x8, addend: 0x0, symName: __ZNKSt3__16vectorINS_10shared_ptrIN3sdc4core37BarcodeCountDeserializerListenerProxyEEENS_9allocatorIS5_EEE20__throw_length_errorB8ue170006Ev, symObjAddr: 0x5570, symBinAddr: 0x49E28, symSize: 0x14 }
  - { offsetInCU: 0x206A9, offset: 0x374F6B, size: 0x8, addend: 0x0, symName: __ZNSt3__110shared_ptrIN3sdc4core37BarcodeCountDeserializerListenerProxyEED1B8ue170006Ev, symObjAddr: 0xABC, symBinAddr: 0x4621C, symSize: 0x68 }
  - { offsetInCU: 0x2093A, offset: 0x3751FC, size: 0x8, addend: 0x0, symName: '-[SDCBarcodeCountDeserializer settingsFromJSONString:error:]', symObjAddr: 0xB24, symBinAddr: 0x46284, symSize: 0x3A8 }
  - { offsetInCU: 0x21859, offset: 0x37611B, size: 0x8, addend: 0x0, symName: __ZN3bar6resultINSt3__110shared_ptrIN3sdc20BarcodeCountSettingsEEENS1_12basic_stringIcNS1_11char_traitsIcEENS1_9allocatorIcEEEEE14value_or_throwEv, symObjAddr: 0x1064, symBinAddr: 0x4662C, symSize: 0x108 }
  - { offsetInCU: 0x21C2A, offset: 0x3764EC, size: 0x8, addend: 0x0, symName: __ZN3bar6resultINSt3__110shared_ptrIN3sdc20BarcodeCountSettingsEEENS1_12basic_stringIcNS1_11char_traitsIcEENS1_9allocatorIcEEEEED1Ev, symObjAddr: 0x116C, symBinAddr: 0x46734, symSize: 0x90 }
  - { offsetInCU: 0x22320, offset: 0x376BE2, size: 0x8, addend: 0x0, symName: __ZNK3bar6resultIvNSt3__112basic_stringIcNS1_11char_traitsIcEENS1_9allocatorIcEEEEE5errorEv, symObjAddr: 0x4084, symBinAddr: 0x48CE0, symSize: 0x130 }
  - { offsetInCU: 0x2269B, offset: 0x376F5D, size: 0x8, addend: 0x0, symName: __ZNK3bar6resultINSt3__110shared_ptrIN3sdc20BarcodeCountSettingsEEENS1_12basic_stringIcNS1_11char_traitsIcEENS1_9allocatorIcEEEEE5errorEv, symObjAddr: 0x56B0, symBinAddr: 0x49E3C, symSize: 0x12C }
  - { offsetInCU: 0x22C39, offset: 0x3774FB, size: 0x8, addend: 0x0, symName: '-[SDCBarcodeCountDeserializer updateSettings:fromJSONString:error:]', symObjAddr: 0x12D8, symBinAddr: 0x467C4, symSize: 0x440 }
  - { offsetInCU: 0x23C98, offset: 0x37855A, size: 0x8, addend: 0x0, symName: '-[SDCBarcodeCountDeserializer modeFromJSONString:context:error:]', symObjAddr: 0x1718, symBinAddr: 0x46C04, symSize: 0x4E4 }
  - { offsetInCU: 0x24C21, offset: 0x3794E3, size: 0x8, addend: 0x0, symName: __ZN3bar6resultINSt3__110shared_ptrIN3sdc12BarcodeCountEEENS1_12basic_stringIcNS1_11char_traitsIcEENS1_9allocatorIcEEEEE14value_or_throwEv, symObjAddr: 0x1BFC, symBinAddr: 0x470E8, symSize: 0x108 }
  - { offsetInCU: 0x25057, offset: 0x379919, size: 0x8, addend: 0x0, symName: __ZN3bar6resultINSt3__110shared_ptrIN3sdc12BarcodeCountEEENS1_12basic_stringIcNS1_11char_traitsIcEENS1_9allocatorIcEEEEED1Ev, symObjAddr: 0x1D04, symBinAddr: 0x471F0, symSize: 0x90 }
  - { offsetInCU: 0x25302, offset: 0x379BC4, size: 0x8, addend: 0x0, symName: __ZNK3bar6resultINSt3__110shared_ptrIN3sdc12BarcodeCountEEENS1_12basic_stringIcNS1_11char_traitsIcEENS1_9allocatorIcEEEEE5errorEv, symObjAddr: 0x57DC, symBinAddr: 0x49F68, symSize: 0x12C }
  - { offsetInCU: 0x258A0, offset: 0x37A162, size: 0x8, addend: 0x0, symName: '-[SDCBarcodeCountDeserializer updateMode:fromJSONString:context:error:]', symObjAddr: 0x1ECC, symBinAddr: 0x47280, symSize: 0x1E0 }
  - { offsetInCU: 0x25927, offset: 0x37A1E9, size: 0x8, addend: 0x0, symName: '-[SDCBarcodeCountDeserializer updateMode:fromJSONString:error:]', symObjAddr: 0x20AC, symBinAddr: 0x47460, symSize: 0x440 }
  - { offsetInCU: 0x268BA, offset: 0x37B17C, size: 0x8, addend: 0x0, symName: '-[SDCBarcodeCountDeserializer overlayFromJSONString:barcodeCount:error:]', symObjAddr: 0x24EC, symBinAddr: 0x478A0, symSize: 0x444 }
  - { offsetInCU: 0x27772, offset: 0x37C034, size: 0x8, addend: 0x0, symName: __ZN3bar6resultINSt3__110shared_ptrIN3sdc24BarcodeCountBasicOverlayEEENS1_12basic_stringIcNS1_11char_traitsIcEENS1_9allocatorIcEEEEE14value_or_throwEv, symObjAddr: 0x2930, symBinAddr: 0x47CE4, symSize: 0x108 }
  - { offsetInCU: 0x27B43, offset: 0x37C405, size: 0x8, addend: 0x0, symName: __ZN3bar6resultINSt3__110shared_ptrIN3sdc24BarcodeCountBasicOverlayEEENS1_12basic_stringIcNS1_11char_traitsIcEENS1_9allocatorIcEEEEED1Ev, symObjAddr: 0x2A38, symBinAddr: 0x47DEC, symSize: 0x90 }
  - { offsetInCU: 0x27D89, offset: 0x37C64B, size: 0x8, addend: 0x0, symName: __ZNK3bar6resultINSt3__110shared_ptrIN3sdc24BarcodeCountBasicOverlayEEENS1_12basic_stringIcNS1_11char_traitsIcEENS1_9allocatorIcEEEEE5errorEv, symObjAddr: 0x5908, symBinAddr: 0x4A094, symSize: 0x12C }
  - { offsetInCU: 0x28327, offset: 0x37CBE9, size: 0x8, addend: 0x0, symName: '-[SDCBarcodeCountDeserializer updateOverlay:fromJSONString:error:]', symObjAddr: 0x2B30, symBinAddr: 0x47E7C, symSize: 0x440 }
  - { offsetInCU: 0x291D5, offset: 0x37DA97, size: 0x8, addend: 0x0, symName: '-[SDCBarcodeCountDeserializer delegate]', symObjAddr: 0x2F70, symBinAddr: 0x482BC, symSize: 0x18 }
  - { offsetInCU: 0x29424, offset: 0x37DCE6, size: 0x8, addend: 0x0, symName: '-[SDCBarcodeCountDeserializer .cxx_destruct]', symObjAddr: 0x2F88, symBinAddr: 0x482D4, symSize: 0x178 }
  - { offsetInCU: 0x29A56, offset: 0x37E318, size: 0x8, addend: 0x0, symName: '-[SDCBarcodeCountDeserializer .cxx_construct]', symObjAddr: 0x3100, symBinAddr: 0x4844C, symSize: 0xB0 }
  - { offsetInCU: 0x29CD4, offset: 0x37E596, size: 0x8, addend: 0x0, symName: __ZNSt3__16vectorINS_10shared_ptrIN3sdc4core37BarcodeCountDeserializerListenerProxyEEENS_9allocatorIS5_EEE7reserveEm, symObjAddr: 0x5A34, symBinAddr: 0x4A1C0, symSize: 0x110 }
  - { offsetInCU: 0x2A17C, offset: 0x37EA3E, size: 0x8, addend: 0x0, symName: '-[SDCBarcodeCountDeserializer .cxx_construct].cold.1', symObjAddr: 0x5B44, symBinAddr: 0x271FFC, symSize: 0x88 }
  - { offsetInCU: 0x2A18F, offset: 0x37EA51, size: 0x8, addend: 0x0, symName: '-[SDCBarcodeCountDeserializer .cxx_construct].cold.1', symObjAddr: 0x5B44, symBinAddr: 0x271FFC, symSize: 0x88 }
  - { offsetInCU: 0x2A541, offset: 0x37EE03, size: 0x8, addend: 0x0, symName: __ZNSt3__120__shared_ptr_emplaceIN3sdc34BarcodeCountDeserializerHelperImplENS_9allocatorIS2_EEED1Ev, symObjAddr: 0x3798, symBinAddr: 0x484FC, symSize: 0x10 }
  - { offsetInCU: 0x2A565, offset: 0x37EE27, size: 0x8, addend: 0x0, symName: __ZNSt3__120__shared_ptr_emplaceIN3sdc34BarcodeCountDeserializerHelperImplENS_9allocatorIS2_EEED1Ev, symObjAddr: 0x3798, symBinAddr: 0x484FC, symSize: 0x10 }
  - { offsetInCU: 0x2A59E, offset: 0x37EE60, size: 0x8, addend: 0x0, symName: __ZNSt3__120__shared_ptr_emplaceIN3sdc34BarcodeCountDeserializerHelperImplENS_9allocatorIS2_EEED0Ev, symObjAddr: 0x37A8, symBinAddr: 0x4850C, symSize: 0x20 }
  - { offsetInCU: 0x2A608, offset: 0x37EECA, size: 0x8, addend: 0x0, symName: __ZNSt3__120__shared_ptr_emplaceIN3sdc34BarcodeCountDeserializerHelperImplENS_9allocatorIS2_EEE16__on_zero_sharedEv, symObjAddr: 0x37C8, symBinAddr: 0x4852C, symSize: 0x4 }
  - { offsetInCU: 0x2A68A, offset: 0x37EF4C, size: 0x8, addend: 0x0, symName: __ZNSt3__120__shared_ptr_emplaceIN3sdc34BarcodeCountDeserializerHelperImplENS_9allocatorIS2_EEE21__on_zero_shared_weakEv, symObjAddr: 0x37CC, symBinAddr: 0x48530, symSize: 0x4 }
  - { offsetInCU: 0x2A6BF, offset: 0x37EF81, size: 0x8, addend: 0x0, symName: __ZNSt3__120__shared_ptr_emplaceIN3sdc34BarcodeCountDeserializerHelperImplENS_9allocatorIS2_EEE21__on_zero_shared_weakEv, symObjAddr: 0x37CC, symBinAddr: 0x48530, symSize: 0x4 }
  - { offsetInCU: 0x2A6E4, offset: 0x37EFA6, size: 0x8, addend: 0x0, symName: __ZNSt3__120__shared_ptr_emplaceIN3sdc34BarcodeCountDeserializerHelperImplENS_9allocatorIS2_EEE21__on_zero_shared_weakEv, symObjAddr: 0x37CC, symBinAddr: 0x48530, symSize: 0x4 }
  - { offsetInCU: 0x2A709, offset: 0x37EFCB, size: 0x8, addend: 0x0, symName: __ZNSt3__120__shared_ptr_emplaceIN3sdc34BarcodeCountDeserializerHelperImplENS_9allocatorIS2_EEE21__on_zero_shared_weakEv, symObjAddr: 0x37CC, symBinAddr: 0x48530, symSize: 0x4 }
  - { offsetInCU: 0x2A738, offset: 0x37EFFA, size: 0x8, addend: 0x0, symName: __ZNSt3__120__shared_ptr_emplaceIN3sdc34BarcodeCountDeserializerHelperImplENS_9allocatorIS2_EEE21__on_zero_shared_weakEv, symObjAddr: 0x37CC, symBinAddr: 0x48530, symSize: 0x4 }
  - { offsetInCU: 0x2A761, offset: 0x37F023, size: 0x8, addend: 0x0, symName: __ZNSt3__120__shared_ptr_emplaceIN3sdc34BarcodeCountDeserializerHelperImplENS_9allocatorIS2_EEE21__on_zero_shared_weakEv, symObjAddr: 0x37CC, symBinAddr: 0x48530, symSize: 0x4 }
  - { offsetInCU: 0x2A78D, offset: 0x37F04F, size: 0x8, addend: 0x0, symName: __ZN3sdc34BarcodeCountDeserializerHelperImplD1Ev, symObjAddr: 0x37D0, symBinAddr: 0x48534, symSize: 0x4 }
  - { offsetInCU: 0x2A7B8, offset: 0x37F07A, size: 0x8, addend: 0x0, symName: __ZN3sdc34BarcodeCountDeserializerHelperImplD0Ev, symObjAddr: 0x37D4, symBinAddr: 0x48538, symSize: 0x4 }
  - { offsetInCU: 0x2A855, offset: 0x37F117, size: 0x8, addend: 0x0, symName: __ZN3sdc34BarcodeCountDeserializerHelperImpl14createSettingsEv, symObjAddr: 0x37D8, symBinAddr: 0x4853C, symSize: 0x108 }
  - { offsetInCU: 0x2AA08, offset: 0x37F2CA, size: 0x8, addend: 0x0, symName: __ZNSt3__110shared_ptrIN3sdc4core21ObjectTrackerSettingsEED1B8ue170006Ev, symObjAddr: 0x3E10, symBinAddr: 0x48B74, symSize: 0x68 }
  - { offsetInCU: 0x2AB0C, offset: 0x37F3CE, size: 0x8, addend: 0x0, symName: __ZN3sdc34BarcodeCountDeserializerHelperImpl10createModeERKNSt3__110shared_ptrINS_4core18DataCaptureContextEEE, symObjAddr: 0x38E0, symBinAddr: 0x48644, symSize: 0x170 }
  - { offsetInCU: 0x2ADFC, offset: 0x37F6BE, size: 0x8, addend: 0x0, symName: __ZN3sdc34BarcodeCountDeserializerHelperImpl22updateSettingsFromJsonERKNSt3__110shared_ptrINS_20BarcodeCountSettingsEEERKNS2_INS_4core9JsonValueEEE, symObjAddr: 0x3A50, symBinAddr: 0x487B4, symSize: 0xF8 }
  - { offsetInCU: 0x2B2F7, offset: 0x37FBB9, size: 0x8, addend: 0x0, symName: __ZNK3bar6resultIvNSt3__112basic_stringIcNS1_11char_traitsIcEENS1_9allocatorIcEEEEE14throw_if_no_okEv, symObjAddr: 0x3EE0, symBinAddr: 0x48BDC, symSize: 0x104 }
  - { offsetInCU: 0x2B6F4, offset: 0x37FFB6, size: 0x8, addend: 0x0, symName: __ZN3sdc34BarcodeCountDeserializerHelperImpl13applySettingsERKNSt3__110shared_ptrINS_12BarcodeCountEEERKNS2_INS_20BarcodeCountSettingsEEE, symObjAddr: 0x3B48, symBinAddr: 0x488AC, symSize: 0x9C }
  - { offsetInCU: 0x2B865, offset: 0x380127, size: 0x8, addend: 0x0, symName: __ZN3sdc34BarcodeCountDeserializerHelperImpl18updateModeFromJsonERKNSt3__110shared_ptrINS_12BarcodeCountEEERKNS2_INS_4core9JsonValueEEE, symObjAddr: 0x3BE4, symBinAddr: 0x48948, symSize: 0x4 }
  - { offsetInCU: 0x2BDD7, offset: 0x380699, size: 0x8, addend: 0x0, symName: __ZN3sdc34BarcodeCountDeserializerHelperImpl18createBasicOverlayERKNSt3__110shared_ptrINS_12BarcodeCountEEENS_29BarcodeCountBasicOverlayStyleE, symObjAddr: 0x3BE8, symBinAddr: 0x4894C, symSize: 0x220 }
  - { offsetInCU: 0x2C5FA, offset: 0x380EBC, size: 0x8, addend: 0x0, symName: __ZN3sdc34BarcodeCountDeserializerHelperImpl26updateBasicOverlayFromJsonERKNSt3__110shared_ptrINS_24BarcodeCountBasicOverlayEEERKNS2_INS_4core9JsonValueEEE, symObjAddr: 0x3E08, symBinAddr: 0x48B6C, symSize: 0x4 }
  - { offsetInCU: 0x2C63B, offset: 0x380EFD, size: 0x8, addend: 0x0, symName: __ZN3sdc34BarcodeCountDeserializerHelperImpl29changeBasicOverlayAddedToViewERKNSt3__110shared_ptrINS_24BarcodeCountBasicOverlayEEERKNS2_INS_4core15DataCaptureViewEEEb, symObjAddr: 0x3E0C, symBinAddr: 0x48B70, symSize: 0x4 }
  - { offsetInCU: 0x2C6AA, offset: 0x380F6C, size: 0x8, addend: 0x0, symName: __ZNK3bar6resultIvNSt3__112basic_stringIcNS1_11char_traitsIcEENS1_9allocatorIcEEEEE5errorEv, symObjAddr: 0x4084, symBinAddr: 0x48CE0, symSize: 0x130 }
  - { offsetInCU: 0x2D35F, offset: 0x381C21, size: 0x8, addend: 0x0, symName: __ZNSt3__120__shared_ptr_emplaceIN3sdc24BarcodeCountDeserializerENS_9allocatorIS2_EEEC1B8ue170006IJRKNS_10shared_ptrINS1_34BarcodeCountDeserializerHelperImplEEEEEES4_DpOT_, symObjAddr: 0x4488, symBinAddr: 0x48F18, symSize: 0xE4 }
  - { offsetInCU: 0x2D6A6, offset: 0x381F68, size: 0x8, addend: 0x0, symName: __ZNSt3__120__shared_ptr_emplaceIN3sdc24BarcodeCountDeserializerENS_9allocatorIS2_EEEC1B8ue170006IJRKNS_10shared_ptrINS1_34BarcodeCountDeserializerHelperImplEEEEEES4_DpOT_.cold.1, symObjAddr: 0x5C50, symBinAddr: 0x272084, symSize: 0x2C }
  - { offsetInCU: 0x2D76C, offset: 0x38202E, size: 0x8, addend: 0x0, symName: __ZNSt3__120__shared_ptr_emplaceIN3sdc24BarcodeCountDeserializerENS_9allocatorIS2_EEED1Ev, symObjAddr: 0x456C, symBinAddr: 0x48FFC, symSize: 0x10 }
  - { offsetInCU: 0x2D790, offset: 0x382052, size: 0x8, addend: 0x0, symName: __ZNSt3__120__shared_ptr_emplaceIN3sdc24BarcodeCountDeserializerENS_9allocatorIS2_EEED1Ev, symObjAddr: 0x456C, symBinAddr: 0x48FFC, symSize: 0x10 }
  - { offsetInCU: 0x2D7C9, offset: 0x38208B, size: 0x8, addend: 0x0, symName: __ZNSt3__120__shared_ptr_emplaceIN3sdc24BarcodeCountDeserializerENS_9allocatorIS2_EEED0Ev, symObjAddr: 0x457C, symBinAddr: 0x4900C, symSize: 0x20 }
  - { offsetInCU: 0x2D833, offset: 0x3820F5, size: 0x8, addend: 0x0, symName: __ZNSt3__120__shared_ptr_emplaceIN3sdc24BarcodeCountDeserializerENS_9allocatorIS2_EEE16__on_zero_sharedEv, symObjAddr: 0x459C, symBinAddr: 0x4902C, symSize: 0xC }
  - { offsetInCU: 0x2D866, offset: 0x382128, size: 0x8, addend: 0x0, symName: __ZNSt3__120__shared_ptr_emplaceIN3sdc24BarcodeCountDeserializerENS_9allocatorIS2_EEE21__on_zero_shared_weakEv, symObjAddr: 0x45A8, symBinAddr: 0x49038, symSize: 0x4 }
  - { offsetInCU: 0x2D89B, offset: 0x38215D, size: 0x8, addend: 0x0, symName: __ZNSt3__120__shared_ptr_emplaceIN3sdc24BarcodeCountDeserializerENS_9allocatorIS2_EEE21__on_zero_shared_weakEv, symObjAddr: 0x45A8, symBinAddr: 0x49038, symSize: 0x4 }
  - { offsetInCU: 0x2D8C0, offset: 0x382182, size: 0x8, addend: 0x0, symName: __ZNSt3__120__shared_ptr_emplaceIN3sdc24BarcodeCountDeserializerENS_9allocatorIS2_EEE21__on_zero_shared_weakEv, symObjAddr: 0x45A8, symBinAddr: 0x49038, symSize: 0x4 }
  - { offsetInCU: 0x2D8E5, offset: 0x3821A7, size: 0x8, addend: 0x0, symName: __ZNSt3__120__shared_ptr_emplaceIN3sdc24BarcodeCountDeserializerENS_9allocatorIS2_EEE21__on_zero_shared_weakEv, symObjAddr: 0x45A8, symBinAddr: 0x49038, symSize: 0x4 }
  - { offsetInCU: 0x2D916, offset: 0x3821D8, size: 0x8, addend: 0x0, symName: __ZNSt3__120__shared_ptr_emplaceIN3sdc24BarcodeCountDeserializerENS_9allocatorIS2_EEE21__on_zero_shared_weakEv, symObjAddr: 0x45A8, symBinAddr: 0x49038, symSize: 0x4 }
  - { offsetInCU: 0x2D941, offset: 0x382203, size: 0x8, addend: 0x0, symName: __ZNSt3__120__shared_ptr_emplaceIN3sdc24BarcodeCountDeserializerENS_9allocatorIS2_EEE21__on_zero_shared_weakEv, symObjAddr: 0x45A8, symBinAddr: 0x49038, symSize: 0x4 }
  - { offsetInCU: 0x2DBE8, offset: 0x3824AA, size: 0x8, addend: 0x0, symName: __ZZN6djinniL14get_objc_proxyIN3sdc4core37BarcodeCountDeserializerListenerProxyEU46objcproto35SDCBarcodeCountDeserializerDelegate11objc_objectEENSt3__110shared_ptrIT_EEPT0_ENUlRU8__strongKP11objc_objectE_8__invokeESE_, symObjAddr: 0x488C, symBinAddr: 0x4914C, symSize: 0x7C }
  - { offsetInCU: 0x2DF75, offset: 0x382837, size: 0x8, addend: 0x0, symName: __ZNSt3__120__shared_ptr_emplaceIN3sdc4core37BarcodeCountDeserializerListenerProxyENS_9allocatorIS3_EEED1Ev, symObjAddr: 0x4908, symBinAddr: 0x491C8, symSize: 0x10 }
  - { offsetInCU: 0x2DF99, offset: 0x38285B, size: 0x8, addend: 0x0, symName: __ZNSt3__120__shared_ptr_emplaceIN3sdc4core37BarcodeCountDeserializerListenerProxyENS_9allocatorIS3_EEED1Ev, symObjAddr: 0x4908, symBinAddr: 0x491C8, symSize: 0x10 }
  - { offsetInCU: 0x2DFD2, offset: 0x382894, size: 0x8, addend: 0x0, symName: __ZNSt3__120__shared_ptr_emplaceIN3sdc4core37BarcodeCountDeserializerListenerProxyENS_9allocatorIS3_EEED0Ev, symObjAddr: 0x4918, symBinAddr: 0x491D8, symSize: 0x20 }
  - { offsetInCU: 0x2E0AA, offset: 0x38296C, size: 0x8, addend: 0x0, symName: __ZNSt3__120__shared_ptr_emplaceIN3sdc4core37BarcodeCountDeserializerListenerProxyENS_9allocatorIS3_EEE16__on_zero_sharedEv, symObjAddr: 0x4938, symBinAddr: 0x491F8, symSize: 0x70 }
  - { offsetInCU: 0x2E1DA, offset: 0x382A9C, size: 0x8, addend: 0x0, symName: __ZN6djinni10ProxyCacheINS_20ObjcProxyCacheTraitsEE6HandleIU6__weakPU46objcproto35SDCBarcodeCountDeserializerDelegate11objc_objectU8__strongS5_ED2Ev, symObjAddr: 0x5130, symBinAddr: 0x499E8, symSize: 0xF8 }
  - { offsetInCU: 0x2E301, offset: 0x382BC3, size: 0x8, addend: 0x0, symName: __ZNSt3__120__shared_ptr_emplaceIN3sdc4core37BarcodeCountDeserializerListenerProxyENS_9allocatorIS3_EEE21__on_zero_shared_weakEv, symObjAddr: 0x49A8, symBinAddr: 0x49268, symSize: 0x4 }
  - { offsetInCU: 0x2E336, offset: 0x382BF8, size: 0x8, addend: 0x0, symName: __ZNSt3__120__shared_ptr_emplaceIN3sdc4core37BarcodeCountDeserializerListenerProxyENS_9allocatorIS3_EEE21__on_zero_shared_weakEv, symObjAddr: 0x49A8, symBinAddr: 0x49268, symSize: 0x4 }
  - { offsetInCU: 0x2E35B, offset: 0x382C1D, size: 0x8, addend: 0x0, symName: __ZNSt3__120__shared_ptr_emplaceIN3sdc4core37BarcodeCountDeserializerListenerProxyENS_9allocatorIS3_EEE21__on_zero_shared_weakEv, symObjAddr: 0x49A8, symBinAddr: 0x49268, symSize: 0x4 }
  - { offsetInCU: 0x2E380, offset: 0x382C42, size: 0x8, addend: 0x0, symName: __ZNSt3__120__shared_ptr_emplaceIN3sdc4core37BarcodeCountDeserializerListenerProxyENS_9allocatorIS3_EEE21__on_zero_shared_weakEv, symObjAddr: 0x49A8, symBinAddr: 0x49268, symSize: 0x4 }
  - { offsetInCU: 0x2E3B0, offset: 0x382C72, size: 0x8, addend: 0x0, symName: __ZNSt3__120__shared_ptr_emplaceIN3sdc4core37BarcodeCountDeserializerListenerProxyENS_9allocatorIS3_EEE21__on_zero_shared_weakEv, symObjAddr: 0x49A8, symBinAddr: 0x49268, symSize: 0x4 }
  - { offsetInCU: 0x2E3DA, offset: 0x382C9C, size: 0x8, addend: 0x0, symName: __ZNSt3__120__shared_ptr_emplaceIN3sdc4core37BarcodeCountDeserializerListenerProxyENS_9allocatorIS3_EEE21__on_zero_shared_weakEv, symObjAddr: 0x49A8, symBinAddr: 0x49268, symSize: 0x4 }
  - { offsetInCU: 0x2E525, offset: 0x382DE7, size: 0x8, addend: 0x0, symName: __ZN3sdc4core37BarcodeCountDeserializerListenerProxyD1Ev, symObjAddr: 0x4A70, symBinAddr: 0x49330, symSize: 0x78 }
  - { offsetInCU: 0x2E638, offset: 0x382EFA, size: 0x8, addend: 0x0, symName: __ZN3sdc4core37BarcodeCountDeserializerListenerProxyD0Ev, symObjAddr: 0x4AE8, symBinAddr: 0x493A8, symSize: 0x78 }
  - { offsetInCU: 0x2E772, offset: 0x383034, size: 0x8, addend: 0x0, symName: __ZN3sdc4core37BarcodeCountDeserializerListenerProxy28onModeDeserializationStartedERKNSt3__110shared_ptrINS_24BarcodeCountDeserializerEEERKNS3_INS_12BarcodeCountEEERKNS3_INS0_9JsonValueEEE, symObjAddr: 0x4B60, symBinAddr: 0x49420, symSize: 0xF0 }
  - { offsetInCU: 0x2E8A1, offset: 0x383163, size: 0x8, addend: 0x0, symName: __ZN3sdc4core37BarcodeCountDeserializerListenerProxy29onModeDeserializationFinishedERKNSt3__110shared_ptrINS_24BarcodeCountDeserializerEEERKNS3_INS_12BarcodeCountEEERKNS3_INS0_9JsonValueEEE, symObjAddr: 0x4C50, symBinAddr: 0x49510, symSize: 0xF0 }
  - { offsetInCU: 0x2E9D0, offset: 0x383292, size: 0x8, addend: 0x0, symName: __ZN3sdc4core37BarcodeCountDeserializerListenerProxy32onSettingsDeserializationStartedERKNSt3__110shared_ptrINS_24BarcodeCountDeserializerEEERKNS3_INS_20BarcodeCountSettingsEEERKNS3_INS0_9JsonValueEEE, symObjAddr: 0x4D40, symBinAddr: 0x49600, symSize: 0xF0 }
  - { offsetInCU: 0x2EAFF, offset: 0x3833C1, size: 0x8, addend: 0x0, symName: __ZN3sdc4core37BarcodeCountDeserializerListenerProxy33onSettingsDeserializationFinishedERKNSt3__110shared_ptrINS_24BarcodeCountDeserializerEEERKNS3_INS_20BarcodeCountSettingsEEERKNS3_INS0_9JsonValueEEE, symObjAddr: 0x4E30, symBinAddr: 0x496F0, symSize: 0xF0 }
  - { offsetInCU: 0x2EC2E, offset: 0x3834F0, size: 0x8, addend: 0x0, symName: __ZN3sdc4core37BarcodeCountDeserializerListenerProxy36onBasicOverlayDeserializationStartedERKNSt3__110shared_ptrINS_24BarcodeCountDeserializerEEERKNS3_INS_24BarcodeCountBasicOverlayEEERKNS3_INS0_9JsonValueEEE, symObjAddr: 0x4F20, symBinAddr: 0x497E0, symSize: 0x104 }
  - { offsetInCU: 0x2ED64, offset: 0x383626, size: 0x8, addend: 0x0, symName: __ZN3sdc4core37BarcodeCountDeserializerListenerProxy37onBasicOverlayDeserializationFinishedERKNSt3__110shared_ptrINS_24BarcodeCountDeserializerEEERKNS3_INS_24BarcodeCountBasicOverlayEEERKNS3_INS0_9JsonValueEEE, symObjAddr: 0x5024, symBinAddr: 0x498E4, symSize: 0x104 }
  - { offsetInCU: 0x2EE9A, offset: 0x38375C, size: 0x8, addend: 0x0, symName: __ZN11proxy_cache13ListenerProxyIU8__strongPU46objcproto35SDCBarcodeCountDeserializerDelegate11objc_objectN3sdc32BarcodeCountDeserializerListenerEED1Ev, symObjAddr: 0x5128, symBinAddr: 0x271FF4, symSize: 0x4 }
  - { offsetInCU: 0x2EEC5, offset: 0x383787, size: 0x8, addend: 0x0, symName: __ZN11proxy_cache13ListenerProxyIU8__strongPU46objcproto35SDCBarcodeCountDeserializerDelegate11objc_objectN3sdc32BarcodeCountDeserializerListenerEED0Ev, symObjAddr: 0x512C, symBinAddr: 0x271FF8, symSize: 0x4 }
  - { offsetInCU: 0x2F06D, offset: 0x38392F, size: 0x8, addend: 0x0, symName: __ZZN6djinni18get_cpp_proxy_implI27SDCBarcodeCountDeserializerN3sdc24BarcodeCountDeserializerEEEPT_RKNSt3__110shared_ptrIT0_EEENUlRKNS7_IvEEE_8__invokeESE_, symObjAddr: 0x5310, symBinAddr: 0x49BC8, symSize: 0xE0 }
  - { offsetInCU: 0x2F31F, offset: 0x383BE1, size: 0x8, addend: 0x0, symName: __ZZN6djinni18get_cpp_proxy_implI27SDCBarcodeCountDeserializerN3sdc24BarcodeCountDeserializerEEEPT_RKNSt3__110shared_ptrIT0_EEENUlRKNS7_IvEEE_8__invokeESE_.cold.1, symObjAddr: 0x5C7C, symBinAddr: 0x2720B0, symSize: 0x2C }
  - { offsetInCU: 0x2F68E, offset: 0x383F50, size: 0x8, addend: 0x0, symName: __ZNKSt3__16vectorINS_10shared_ptrIN3sdc4core37BarcodeCountDeserializerListenerProxyEEENS_9allocatorIS5_EEE20__throw_length_errorB8ue170006Ev, symObjAddr: 0x5570, symBinAddr: 0x49E28, symSize: 0x14 }
  - { offsetInCU: 0x2F6C3, offset: 0x383F85, size: 0x8, addend: 0x0, symName: _OUTLINED_FUNCTION_0, symObjAddr: 0x5CA8, symBinAddr: 0x4A2D0, symSize: 0x10 }
  - { offsetInCU: 0x2F6DB, offset: 0x383F9D, size: 0x8, addend: 0x0, symName: _OUTLINED_FUNCTION_1, symObjAddr: 0x5CB8, symBinAddr: 0x4A2E0, symSize: 0x10 }
  - { offsetInCU: 0x2F6F3, offset: 0x383FB5, size: 0x8, addend: 0x0, symName: _OUTLINED_FUNCTION_2, symObjAddr: 0x5CC8, symBinAddr: 0x4A2F0, symSize: 0x8 }
  - { offsetInCU: 0x2F70B, offset: 0x383FCD, size: 0x8, addend: 0x0, symName: _OUTLINED_FUNCTION_3, symObjAddr: 0x5CD0, symBinAddr: 0x4A2F8, symSize: 0x8 }
  - { offsetInCU: 0x2F723, offset: 0x383FE5, size: 0x8, addend: 0x0, symName: _OUTLINED_FUNCTION_4, symObjAddr: 0x5CD8, symBinAddr: 0x4A300, symSize: 0xC }
  - { offsetInCU: 0x27, offset: 0x3840C6, size: 0x8, addend: 0x0, symName: '-[SDCBarcodeCountDotOverlayView initWithFrame:brush:overlayType:]', symObjAddr: 0x0, symBinAddr: 0x4A30C, symSize: 0x98C }
  - { offsetInCU: 0x286, offset: 0x384325, size: 0x8, addend: 0x0, symName: '-[SDCBarcodeCountDotOverlayView initWithFrame:brush:overlayType:]', symObjAddr: 0x0, symBinAddr: 0x4A30C, symSize: 0x98C }
  - { offsetInCU: 0x2E9, offset: 0x384388, size: 0x8, addend: 0x0, symName: '-[SDCBarcodeCountDotOverlayView didMoveToSuperview]', symObjAddr: 0x98C, symBinAddr: 0x4AC98, symSize: 0xFC }
  - { offsetInCU: 0x31C, offset: 0x3843BB, size: 0x8, addend: 0x0, symName: '-[SDCBarcodeCountDotOverlayView layoutSubviews]', symObjAddr: 0xA88, symBinAddr: 0x4AD94, symSize: 0x1E4 }
  - { offsetInCU: 0x399, offset: 0x384438, size: 0x8, addend: 0x0, symName: '-[SDCBarcodeCountDotOverlayView setBrush:]', symObjAddr: 0xC6C, symBinAddr: 0x4AF78, symSize: 0x1E4 }
  - { offsetInCU: 0x3DC, offset: 0x38447B, size: 0x8, addend: 0x0, symName: '-[SDCBarcodeCountDotOverlayView brush]', symObjAddr: 0xE50, symBinAddr: 0x4B15C, symSize: 0x10 }
  - { offsetInCU: 0x413, offset: 0x3844B2, size: 0x8, addend: 0x0, symName: '-[SDCBarcodeCountDotOverlayView animationLayer]', symObjAddr: 0xE60, symBinAddr: 0x4B16C, symSize: 0x10 }
  - { offsetInCU: 0x44A, offset: 0x3844E9, size: 0x8, addend: 0x0, symName: '-[SDCBarcodeCountDotOverlayView setAnimationLayer:]', symObjAddr: 0xE70, symBinAddr: 0x4B17C, symSize: 0x14 }
  - { offsetInCU: 0x48B, offset: 0x38452A, size: 0x8, addend: 0x0, symName: '-[SDCBarcodeCountDotOverlayView dotView]', symObjAddr: 0xE84, symBinAddr: 0x4B190, symSize: 0x10 }
  - { offsetInCU: 0x4C2, offset: 0x384561, size: 0x8, addend: 0x0, symName: '-[SDCBarcodeCountDotOverlayView setDotView:]', symObjAddr: 0xE94, symBinAddr: 0x4B1A0, symSize: 0x14 }
  - { offsetInCU: 0x503, offset: 0x3845A2, size: 0x8, addend: 0x0, symName: '-[SDCBarcodeCountDotOverlayView iconView]', symObjAddr: 0xEA8, symBinAddr: 0x4B1B4, symSize: 0x10 }
  - { offsetInCU: 0x53A, offset: 0x3845D9, size: 0x8, addend: 0x0, symName: '-[SDCBarcodeCountDotOverlayView setIconView:]', symObjAddr: 0xEB8, symBinAddr: 0x4B1C4, symSize: 0x14 }
  - { offsetInCU: 0x57B, offset: 0x38461A, size: 0x8, addend: 0x0, symName: '-[SDCBarcodeCountDotOverlayView shadowLayer]', symObjAddr: 0xECC, symBinAddr: 0x4B1D8, symSize: 0x10 }
  - { offsetInCU: 0x5B2, offset: 0x384651, size: 0x8, addend: 0x0, symName: '-[SDCBarcodeCountDotOverlayView setShadowLayer:]', symObjAddr: 0xEDC, symBinAddr: 0x4B1E8, symSize: 0x14 }
  - { offsetInCU: 0x5F3, offset: 0x384692, size: 0x8, addend: 0x0, symName: '-[SDCBarcodeCountDotOverlayView .cxx_destruct]', symObjAddr: 0xEF0, symBinAddr: 0x4B1FC, symSize: 0x7C }
  - { offsetInCU: 0x1390E, offset: 0x397FDD, size: 0x8, addend: 0x0, symName: '+[SDCBarcodeCountFeedback defaultFeedback]', symObjAddr: 0x0, symBinAddr: 0x4B278, symSize: 0x2C4 }
  - { offsetInCU: 0x13985, offset: 0x398054, size: 0x8, addend: 0x0, symName: '+[SDCBarcodeCountFeedback audioFileNamed:]', symObjAddr: 0x2C4, symBinAddr: 0x4B53C, symSize: 0xA0 }
  - { offsetInCU: 0x139DC, offset: 0x3980AB, size: 0x8, addend: 0x0, symName: '-[SDCBarcodeCountFeedback init]', symObjAddr: 0x364, symBinAddr: 0x4B5DC, symSize: 0xCC }
  - { offsetInCU: 0x13A13, offset: 0x3980E2, size: 0x8, addend: 0x0, symName: '-[SDCBarcodeCountFeedback initWithSuccessFeedback:unrecognizedFeedback:failureFeedback:]', symObjAddr: 0x430, symBinAddr: 0x4B6A8, symSize: 0x120 }
  - { offsetInCU: 0x13D90, offset: 0x39845F, size: 0x8, addend: 0x0, symName: '-[SDCBarcodeCountFeedback JSONString]', symObjAddr: 0x550, symBinAddr: 0x4B7C8, symSize: 0x47C }
  - { offsetInCU: 0x15038, offset: 0x399707, size: 0x8, addend: 0x0, symName: __ZN3sdc4core9JsonValue11emptyObjectEv, symObjAddr: 0x9CC, symBinAddr: 0x4BC44, symSize: 0x174 }
  - { offsetInCU: 0x16A0D, offset: 0x39B0DC, size: 0x8, addend: 0x0, symName: '-[SDCBarcodeCountFeedback success]', symObjAddr: 0xBA8, symBinAddr: 0x4BDB8, symSize: 0x8 }
  - { offsetInCU: 0x16A44, offset: 0x39B113, size: 0x8, addend: 0x0, symName: '-[SDCBarcodeCountFeedback setSuccess:]', symObjAddr: 0xBB0, symBinAddr: 0x4BDC0, symSize: 0xC }
  - { offsetInCU: 0x16A85, offset: 0x39B154, size: 0x8, addend: 0x0, symName: '-[SDCBarcodeCountFeedback unrecognized]', symObjAddr: 0xBBC, symBinAddr: 0x4BDCC, symSize: 0x8 }
  - { offsetInCU: 0x16ABC, offset: 0x39B18B, size: 0x8, addend: 0x0, symName: '-[SDCBarcodeCountFeedback setUnrecognized:]', symObjAddr: 0xBC4, symBinAddr: 0x4BDD4, symSize: 0xC }
  - { offsetInCU: 0x16AFD, offset: 0x39B1CC, size: 0x8, addend: 0x0, symName: '-[SDCBarcodeCountFeedback failure]', symObjAddr: 0xBD0, symBinAddr: 0x4BDE0, symSize: 0x8 }
  - { offsetInCU: 0x16B34, offset: 0x39B203, size: 0x8, addend: 0x0, symName: '-[SDCBarcodeCountFeedback setFailure:]', symObjAddr: 0xBD8, symBinAddr: 0x4BDE8, symSize: 0xC }
  - { offsetInCU: 0x16B75, offset: 0x39B244, size: 0x8, addend: 0x0, symName: '-[SDCBarcodeCountFeedback .cxx_destruct]', symObjAddr: 0xBE4, symBinAddr: 0x4BDF4, symSize: 0x3C }
  - { offsetInCU: 0x27, offset: 0x3A5AE1, size: 0x8, addend: 0x0, symName: '-[SDCBarcodeCountFloatingShutterContainer initWithFrame:buttonSize:stateStorage:]', symObjAddr: 0x0, symBinAddr: 0x4BE30, symSize: 0x138 }
  - { offsetInCU: 0x3A8, offset: 0x3A5E62, size: 0x8, addend: 0x0, symName: '-[SDCBarcodeCountFloatingShutterContainer initWithFrame:buttonSize:stateStorage:]', symObjAddr: 0x0, symBinAddr: 0x4BE30, symSize: 0x138 }
  - { offsetInCU: 0x40B, offset: 0x3A5EC5, size: 0x8, addend: 0x0, symName: '-[SDCBarcodeCountFloatingShutterContainer layoutSubviews]', symObjAddr: 0x138, symBinAddr: 0x4BF68, symSize: 0x74 }
  - { offsetInCU: 0x43E, offset: 0x3A5EF8, size: 0x8, addend: 0x0, symName: '-[SDCBarcodeCountFloatingShutterContainer willMoveToWindow:]', symObjAddr: 0x1AC, symBinAddr: 0x4BFDC, symSize: 0xAC }
  - { offsetInCU: 0x481, offset: 0x3A5F3B, size: 0x8, addend: 0x0, symName: '-[SDCBarcodeCountFloatingShutterContainer setButtonAnimationEnabled:]', symObjAddr: 0x258, symBinAddr: 0x4C088, symSize: 0x4C }
  - { offsetInCU: 0x4C4, offset: 0x3A5F7E, size: 0x8, addend: 0x0, symName: '-[SDCBarcodeCountFloatingShutterContainer buttonAnimationEnabled]', symObjAddr: 0x2A4, symBinAddr: 0x4C0D4, symSize: 0x50 }
  - { offsetInCU: 0x4FB, offset: 0x3A5FB5, size: 0x8, addend: 0x0, symName: '-[SDCBarcodeCountFloatingShutterContainer setButtonDimmed:]', symObjAddr: 0x2F4, symBinAddr: 0x4C124, symSize: 0x4C }
  - { offsetInCU: 0x53E, offset: 0x3A5FF8, size: 0x8, addend: 0x0, symName: '-[SDCBarcodeCountFloatingShutterContainer buttonDimmed]', symObjAddr: 0x340, symBinAddr: 0x4C170, symSize: 0x50 }
  - { offsetInCU: 0x575, offset: 0x3A602F, size: 0x8, addend: 0x0, symName: '-[SDCBarcodeCountFloatingShutterContainer setButtonEnabled:]', symObjAddr: 0x390, symBinAddr: 0x4C1C0, symSize: 0xB4C }
  - { offsetInCU: 0x5F6, offset: 0x3A60B0, size: 0x8, addend: 0x0, symName: '-[SDCBarcodeCountFloatingShutterContainer setButtonAccessibilityHint:]', symObjAddr: 0xEDC, symBinAddr: 0x4CD0C, symSize: 0x98 }
  - { offsetInCU: 0x639, offset: 0x3A60F3, size: 0x8, addend: 0x0, symName: '-[SDCBarcodeCountFloatingShutterContainer setButtonAccessibilityLabel:]', symObjAddr: 0xF74, symBinAddr: 0x4CDA4, symSize: 0x98 }
  - { offsetInCU: 0x67C, offset: 0x3A6136, size: 0x8, addend: 0x0, symName: '-[SDCBarcodeCountFloatingShutterContainer buttonPressed]', symObjAddr: 0x100C, symBinAddr: 0x4CE3C, symSize: 0x74 }
  - { offsetInCU: 0x6BB, offset: 0x3A6175, size: 0x8, addend: 0x0, symName: '-[SDCBarcodeCountFloatingShutterContainer panGestureUpdated:]', symObjAddr: 0x1080, symBinAddr: 0x4CEB0, symSize: 0xC4 }
  - { offsetInCU: 0x70E, offset: 0x3A61C8, size: 0x8, addend: 0x0, symName: '-[SDCBarcodeCountFloatingShutterContainer updateFloatingShutterButtonPosition:]', symObjAddr: 0x1144, symBinAddr: 0x4CF74, symSize: 0x8C }
  - { offsetInCU: 0x751, offset: 0x3A620B, size: 0x8, addend: 0x0, symName: '-[SDCBarcodeCountFloatingShutterContainer applySavedFloatingShutterButtonPosition]', symObjAddr: 0x11D0, symBinAddr: 0x4D000, symSize: 0x104 }
  - { offsetInCU: 0x7A7, offset: 0x3A6261, size: 0x8, addend: 0x0, symName: '-[SDCBarcodeCountFloatingShutterContainer saveFloatingShutterButtonPosition:]', symObjAddr: 0x12D4, symBinAddr: 0x4D104, symSize: 0x94 }
  - { offsetInCU: 0x7EA, offset: 0x3A62A4, size: 0x8, addend: 0x0, symName: '-[SDCBarcodeCountFloatingShutterContainer getSavedFloatingShutterButtonPositionOrZero]', symObjAddr: 0x1368, symBinAddr: 0x4D198, symSize: 0xA0 }
  - { offsetInCU: 0x841, offset: 0x3A62FB, size: 0x8, addend: 0x0, symName: '-[SDCBarcodeCountFloatingShutterContainer buttonEnabled]', symObjAddr: 0x1408, symBinAddr: 0x4D238, symSize: 0x10 }
  - { offsetInCU: 0x878, offset: 0x3A6332, size: 0x8, addend: 0x0, symName: '-[SDCBarcodeCountFloatingShutterContainer buttonAccessibilityLabel]', symObjAddr: 0x1418, symBinAddr: 0x4D248, symSize: 0x10 }
  - { offsetInCU: 0x8AF, offset: 0x3A6369, size: 0x8, addend: 0x0, symName: '-[SDCBarcodeCountFloatingShutterContainer buttonAccessibilityHint]', symObjAddr: 0x1428, symBinAddr: 0x4D258, symSize: 0x10 }
  - { offsetInCU: 0x8E6, offset: 0x3A63A0, size: 0x8, addend: 0x0, symName: '-[SDCBarcodeCountFloatingShutterContainer onButtonPressed]', symObjAddr: 0x1438, symBinAddr: 0x4D268, symSize: 0x10 }
  - { offsetInCU: 0x91D, offset: 0x3A63D7, size: 0x8, addend: 0x0, symName: '-[SDCBarcodeCountFloatingShutterContainer setOnButtonPressed:]', symObjAddr: 0x1448, symBinAddr: 0x4D278, symSize: 0xC }
  - { offsetInCU: 0x95C, offset: 0x3A6416, size: 0x8, addend: 0x0, symName: '-[SDCBarcodeCountFloatingShutterContainer buttonSize]', symObjAddr: 0x1454, symBinAddr: 0x4D284, symSize: 0x10 }
  - { offsetInCU: 0x991, offset: 0x3A644B, size: 0x8, addend: 0x0, symName: '-[SDCBarcodeCountFloatingShutterContainer internalButtonSideLength]', symObjAddr: 0x1464, symBinAddr: 0x4D294, symSize: 0x10 }
  - { offsetInCU: 0x9C6, offset: 0x3A6480, size: 0x8, addend: 0x0, symName: '-[SDCBarcodeCountFloatingShutterContainer stateStorage]', symObjAddr: 0x1474, symBinAddr: 0x4D2A4, symSize: 0x10 }
  - { offsetInCU: 0x9FD, offset: 0x3A64B7, size: 0x8, addend: 0x0, symName: '-[SDCBarcodeCountFloatingShutterContainer setStateStorage:]', symObjAddr: 0x1484, symBinAddr: 0x4D2B4, symSize: 0x14 }
  - { offsetInCU: 0xA3E, offset: 0x3A64F8, size: 0x8, addend: 0x0, symName: '-[SDCBarcodeCountFloatingShutterContainer floatingShutterButton]', symObjAddr: 0x1498, symBinAddr: 0x4D2C8, symSize: 0x10 }
  - { offsetInCU: 0xA75, offset: 0x3A652F, size: 0x8, addend: 0x0, symName: '-[SDCBarcodeCountFloatingShutterContainer setFloatingShutterButton:]', symObjAddr: 0x14A8, symBinAddr: 0x4D2D8, symSize: 0x14 }
  - { offsetInCU: 0xAB6, offset: 0x3A6570, size: 0x8, addend: 0x0, symName: '-[SDCBarcodeCountFloatingShutterContainer panRecognizer]', symObjAddr: 0x14BC, symBinAddr: 0x4D2EC, symSize: 0x10 }
  - { offsetInCU: 0xAED, offset: 0x3A65A7, size: 0x8, addend: 0x0, symName: '-[SDCBarcodeCountFloatingShutterContainer setPanRecognizer:]', symObjAddr: 0x14CC, symBinAddr: 0x4D2FC, symSize: 0x14 }
  - { offsetInCU: 0xB2E, offset: 0x3A65E8, size: 0x8, addend: 0x0, symName: '-[SDCBarcodeCountFloatingShutterContainer floatingShutterButtonCenterXConstraint]', symObjAddr: 0x14E0, symBinAddr: 0x4D310, symSize: 0x10 }
  - { offsetInCU: 0xB65, offset: 0x3A661F, size: 0x8, addend: 0x0, symName: '-[SDCBarcodeCountFloatingShutterContainer setFloatingShutterButtonCenterXConstraint:]', symObjAddr: 0x14F0, symBinAddr: 0x4D320, symSize: 0x14 }
  - { offsetInCU: 0xBA6, offset: 0x3A6660, size: 0x8, addend: 0x0, symName: '-[SDCBarcodeCountFloatingShutterContainer floatingShutterButtonCenterYConstraint]', symObjAddr: 0x1504, symBinAddr: 0x4D334, symSize: 0x10 }
  - { offsetInCU: 0xBDD, offset: 0x3A6697, size: 0x8, addend: 0x0, symName: '-[SDCBarcodeCountFloatingShutterContainer setFloatingShutterButtonCenterYConstraint:]', symObjAddr: 0x1514, symBinAddr: 0x4D344, symSize: 0x14 }
  - { offsetInCU: 0xC1E, offset: 0x3A66D8, size: 0x8, addend: 0x0, symName: '-[SDCBarcodeCountFloatingShutterContainer floatingShutterButtonPosition]', symObjAddr: 0x1528, symBinAddr: 0x4D358, symSize: 0x14 }
  - { offsetInCU: 0xC53, offset: 0x3A670D, size: 0x8, addend: 0x0, symName: '-[SDCBarcodeCountFloatingShutterContainer setFloatingShutterButtonPosition:]', symObjAddr: 0x153C, symBinAddr: 0x4D36C, symSize: 0x14 }
  - { offsetInCU: 0xC92, offset: 0x3A674C, size: 0x8, addend: 0x0, symName: '-[SDCBarcodeCountFloatingShutterContainer .cxx_destruct]', symObjAddr: 0x1550, symBinAddr: 0x4D380, symSize: 0xB8 }
  - { offsetInCU: 0x27, offset: 0x3A67C6, size: 0x8, addend: 0x0, symName: '+[SDCBarcodeCountHighlightData dataWithBarcode:view:type:]', symObjAddr: 0x0, symBinAddr: 0x4D438, symSize: 0x90 }
  - { offsetInCU: 0x2BC, offset: 0x3A6A5B, size: 0x8, addend: 0x0, symName: '+[SDCBarcodeCountHighlightData dataWithBarcode:view:type:]', symObjAddr: 0x0, symBinAddr: 0x4D438, symSize: 0x90 }
  - { offsetInCU: 0x31F, offset: 0x3A6ABE, size: 0x8, addend: 0x0, symName: '-[SDCBarcodeCountHighlightData initWithBarcode:view:type:]', symObjAddr: 0x90, symBinAddr: 0x4D4C8, symSize: 0xF4 }
  - { offsetInCU: 0x386, offset: 0x3A6B25, size: 0x8, addend: 0x0, symName: '-[SDCBarcodeCountHighlightData trackedBarcode]', symObjAddr: 0x184, symBinAddr: 0x4D5BC, symSize: 0x8 }
  - { offsetInCU: 0x3BD, offset: 0x3A6B5C, size: 0x8, addend: 0x0, symName: '-[SDCBarcodeCountHighlightData setTrackedBarcode:]', symObjAddr: 0x18C, symBinAddr: 0x4D5C4, symSize: 0xC }
  - { offsetInCU: 0x3FE, offset: 0x3A6B9D, size: 0x8, addend: 0x0, symName: '-[SDCBarcodeCountHighlightData view]', symObjAddr: 0x198, symBinAddr: 0x4D5D0, symSize: 0x8 }
  - { offsetInCU: 0x435, offset: 0x3A6BD4, size: 0x8, addend: 0x0, symName: '-[SDCBarcodeCountHighlightData setView:]', symObjAddr: 0x1A0, symBinAddr: 0x4D5D8, symSize: 0xC }
  - { offsetInCU: 0x476, offset: 0x3A6C15, size: 0x8, addend: 0x0, symName: '-[SDCBarcodeCountHighlightData type]', symObjAddr: 0x1AC, symBinAddr: 0x4D5E4, symSize: 0x8 }
  - { offsetInCU: 0x4AD, offset: 0x3A6C4C, size: 0x8, addend: 0x0, symName: '-[SDCBarcodeCountHighlightData setType:]', symObjAddr: 0x1B4, symBinAddr: 0x4D5EC, symSize: 0x8 }
  - { offsetInCU: 0x4EA, offset: 0x3A6C89, size: 0x8, addend: 0x0, symName: '-[SDCBarcodeCountHighlightData .cxx_destruct]', symObjAddr: 0x1BC, symBinAddr: 0x4D5F4, symSize: 0x30 }
  - { offsetInCU: 0x51D, offset: 0x3A6CBC, size: 0x8, addend: 0x0, symName: '-[SDCBarcodeCountHighlightDataHandler init]', symObjAddr: 0x1EC, symBinAddr: 0x4D624, symSize: 0x140 }
  - { offsetInCU: 0x554, offset: 0x3A6CF3, size: 0x8, addend: 0x0, symName: '-[SDCBarcodeCountHighlightDataHandler allDictionaries]', symObjAddr: 0x32C, symBinAddr: 0x4D764, symSize: 0x1CC }
  - { offsetInCU: 0x58B, offset: 0x3A6D2A, size: 0x8, addend: 0x0, symName: '-[SDCBarcodeCountHighlightDataHandler dictionaryForOverlayType:]', symObjAddr: 0x4F8, symBinAddr: 0x4D930, symSize: 0xA8 }
  - { offsetInCU: 0x5D2, offset: 0x3A6D71, size: 0x8, addend: 0x0, symName: '-[SDCBarcodeCountHighlightDataHandler allTrackedIdsOfType:]', symObjAddr: 0x5A0, symBinAddr: 0x4D9D8, symSize: 0x58 }
  - { offsetInCU: 0x619, offset: 0x3A6DB8, size: 0x8, addend: 0x0, symName: '-[SDCBarcodeCountHighlightDataHandler addTrackedData:]', symObjAddr: 0x5F8, symBinAddr: 0x4DA30, symSize: 0x100 }
  - { offsetInCU: 0x67C, offset: 0x3A6E1B, size: 0x8, addend: 0x0, symName: '-[SDCBarcodeCountHighlightDataHandler trackedDataForBarcodeId:]', symObjAddr: 0x6F8, symBinAddr: 0x4DB30, symSize: 0x160 }
  - { offsetInCU: 0x6F9, offset: 0x3A6E98, size: 0x8, addend: 0x0, symName: '-[SDCBarcodeCountHighlightDataHandler removeTrackedDataForBarcodeId:]', symObjAddr: 0x858, symBinAddr: 0x4DC90, symSize: 0x188 }
  - { offsetInCU: 0x772, offset: 0x3A6F11, size: 0x8, addend: 0x0, symName: '-[SDCBarcodeCountHighlightDataHandler enumerateDataUsingBlock:]', symObjAddr: 0x9E0, symBinAddr: 0x4DE18, symSize: 0x1B4 }
  - { offsetInCU: 0x7CC, offset: 0x3A6F6B, size: 0x8, addend: 0x0, symName: '___63-[SDCBarcodeCountHighlightDataHandler enumerateDataUsingBlock:]_block_invoke', symObjAddr: 0xB94, symBinAddr: 0x4DFCC, symSize: 0x10 }
  - { offsetInCU: 0x844, offset: 0x3A6FE3, size: 0x8, addend: 0x0, symName: ___copy_helper_block_ea8_32b, symObjAddr: 0xBA4, symBinAddr: 0x4DFDC, symSize: 0x10 }
  - { offsetInCU: 0x86D, offset: 0x3A700C, size: 0x8, addend: 0x0, symName: '-[SDCBarcodeCountHighlightDataHandler clear]', symObjAddr: 0xBBC, symBinAddr: 0x4DFEC, symSize: 0x10C }
  - { offsetInCU: 0x8B7, offset: 0x3A7056, size: 0x8, addend: 0x0, symName: '-[SDCBarcodeCountHighlightDataHandler scannedBarcodeOverlays]', symObjAddr: 0xCC8, symBinAddr: 0x4E0F8, symSize: 0x8 }
  - { offsetInCU: 0x8EE, offset: 0x3A708D, size: 0x8, addend: 0x0, symName: '-[SDCBarcodeCountHighlightDataHandler setScannedBarcodeOverlays:]', symObjAddr: 0xCD0, symBinAddr: 0x4E100, symSize: 0xC }
  - { offsetInCU: 0x92F, offset: 0x3A70CE, size: 0x8, addend: 0x0, symName: '-[SDCBarcodeCountHighlightDataHandler wrongBarcodeOverlays]', symObjAddr: 0xCDC, symBinAddr: 0x4E10C, symSize: 0x8 }
  - { offsetInCU: 0x966, offset: 0x3A7105, size: 0x8, addend: 0x0, symName: '-[SDCBarcodeCountHighlightDataHandler setWrongBarcodeOverlays:]', symObjAddr: 0xCE4, symBinAddr: 0x4E114, symSize: 0xC }
  - { offsetInCU: 0x9A7, offset: 0x3A7146, size: 0x8, addend: 0x0, symName: '-[SDCBarcodeCountHighlightDataHandler unscannedBarcodeOverlays]', symObjAddr: 0xCF0, symBinAddr: 0x4E120, symSize: 0x8 }
  - { offsetInCU: 0x9DE, offset: 0x3A717D, size: 0x8, addend: 0x0, symName: '-[SDCBarcodeCountHighlightDataHandler setUnscannedBarcodeOverlays:]', symObjAddr: 0xCF8, symBinAddr: 0x4E128, symSize: 0xC }
  - { offsetInCU: 0xA1F, offset: 0x3A71BE, size: 0x8, addend: 0x0, symName: '-[SDCBarcodeCountHighlightDataHandler acceptedBarcodeOverlays]', symObjAddr: 0xD04, symBinAddr: 0x4E134, symSize: 0x8 }
  - { offsetInCU: 0xA56, offset: 0x3A71F5, size: 0x8, addend: 0x0, symName: '-[SDCBarcodeCountHighlightDataHandler setAcceptedBarcodeOverlays:]', symObjAddr: 0xD0C, symBinAddr: 0x4E13C, symSize: 0xC }
  - { offsetInCU: 0xA97, offset: 0x3A7236, size: 0x8, addend: 0x0, symName: '-[SDCBarcodeCountHighlightDataHandler rejectedBarcodeOverlays]', symObjAddr: 0xD18, symBinAddr: 0x4E148, symSize: 0x8 }
  - { offsetInCU: 0xACE, offset: 0x3A726D, size: 0x8, addend: 0x0, symName: '-[SDCBarcodeCountHighlightDataHandler setRejectedBarcodeOverlays:]', symObjAddr: 0xD20, symBinAddr: 0x4E150, symSize: 0xC }
  - { offsetInCU: 0xB0F, offset: 0x3A72AE, size: 0x8, addend: 0x0, symName: '-[SDCBarcodeCountHighlightDataHandler filteredBarcodeOverlays]', symObjAddr: 0xD2C, symBinAddr: 0x4E15C, symSize: 0x8 }
  - { offsetInCU: 0xB46, offset: 0x3A72E5, size: 0x8, addend: 0x0, symName: '-[SDCBarcodeCountHighlightDataHandler setFilteredBarcodeOverlays:]', symObjAddr: 0xD34, symBinAddr: 0x4E164, symSize: 0xC }
  - { offsetInCU: 0xB87, offset: 0x3A7326, size: 0x8, addend: 0x0, symName: '-[SDCBarcodeCountHighlightDataHandler .cxx_destruct]', symObjAddr: 0xD40, symBinAddr: 0x4E170, symSize: 0x60 }
  - { offsetInCU: 0x27, offset: 0x3A7485, size: 0x8, addend: 0x0, symName: '+[SDCBarcodeCountIconOverlayView imageNameBarcodeType:colorScheme:]', symObjAddr: 0x0, symBinAddr: 0x4E1D0, symSize: 0xD4 }
  - { offsetInCU: 0x268, offset: 0x3A76C6, size: 0x8, addend: 0x0, symName: '+[SDCBarcodeCountIconOverlayView imageNameBarcodeType:colorScheme:]', symObjAddr: 0x0, symBinAddr: 0x4E1D0, symSize: 0xD4 }
  - { offsetInCU: 0x2BB, offset: 0x3A7719, size: 0x8, addend: 0x0, symName: '+[SDCBarcodeCountIconOverlayView animationColorForColorScheme:]', symObjAddr: 0xD4, symBinAddr: 0x4E2A4, symSize: 0x6C }
  - { offsetInCU: 0x2FE, offset: 0x3A775C, size: 0x8, addend: 0x0, symName: '-[SDCBarcodeCountIconOverlayView initWithFrame:overlayType:colorScheme:]', symObjAddr: 0x140, symBinAddr: 0x4E310, symSize: 0x564 }
  - { offsetInCU: 0x39F, offset: 0x3A77FD, size: 0x8, addend: 0x0, symName: '-[SDCBarcodeCountIconOverlayView didMoveToSuperview]', symObjAddr: 0x6A4, symBinAddr: 0x4E874, symSize: 0xFC }
  - { offsetInCU: 0x3D2, offset: 0x3A7830, size: 0x8, addend: 0x0, symName: '-[SDCBarcodeCountIconOverlayView layoutSubviews]', symObjAddr: 0x7A0, symBinAddr: 0x4E970, symSize: 0x198 }
  - { offsetInCU: 0x44F, offset: 0x3A78AD, size: 0x8, addend: 0x0, symName: '-[SDCBarcodeCountIconOverlayView setColorScheme:]', symObjAddr: 0x938, symBinAddr: 0x4EB08, symSize: 0x170 }
  - { offsetInCU: 0x4B2, offset: 0x3A7910, size: 0x8, addend: 0x0, symName: '-[SDCBarcodeCountIconOverlayView colorScheme]', symObjAddr: 0xAA8, symBinAddr: 0x4EC78, symSize: 0x10 }
  - { offsetInCU: 0x4E9, offset: 0x3A7947, size: 0x8, addend: 0x0, symName: '-[SDCBarcodeCountIconOverlayView iconImageView]', symObjAddr: 0xAB8, symBinAddr: 0x4EC88, symSize: 0x10 }
  - { offsetInCU: 0x520, offset: 0x3A797E, size: 0x8, addend: 0x0, symName: '-[SDCBarcodeCountIconOverlayView setIconImageView:]', symObjAddr: 0xAC8, symBinAddr: 0x4EC98, symSize: 0x14 }
  - { offsetInCU: 0x561, offset: 0x3A79BF, size: 0x8, addend: 0x0, symName: '-[SDCBarcodeCountIconOverlayView animationLayer]', symObjAddr: 0xADC, symBinAddr: 0x4ECAC, symSize: 0x10 }
  - { offsetInCU: 0x598, offset: 0x3A79F6, size: 0x8, addend: 0x0, symName: '-[SDCBarcodeCountIconOverlayView setAnimationLayer:]', symObjAddr: 0xAEC, symBinAddr: 0x4ECBC, symSize: 0x14 }
  - { offsetInCU: 0x5D9, offset: 0x3A7A37, size: 0x8, addend: 0x0, symName: '-[SDCBarcodeCountIconOverlayView overlayType]', symObjAddr: 0xB00, symBinAddr: 0x4ECD0, symSize: 0x10 }
  - { offsetInCU: 0x610, offset: 0x3A7A6E, size: 0x8, addend: 0x0, symName: '-[SDCBarcodeCountIconOverlayView setOverlayType:]', symObjAddr: 0xB10, symBinAddr: 0x4ECE0, symSize: 0x10 }
  - { offsetInCU: 0x64D, offset: 0x3A7AAB, size: 0x8, addend: 0x0, symName: '-[SDCBarcodeCountIconOverlayView shadowLayer]', symObjAddr: 0xB20, symBinAddr: 0x4ECF0, symSize: 0x10 }
  - { offsetInCU: 0x684, offset: 0x3A7AE2, size: 0x8, addend: 0x0, symName: '-[SDCBarcodeCountIconOverlayView setShadowLayer:]', symObjAddr: 0xB30, symBinAddr: 0x4ED00, symSize: 0x14 }
  - { offsetInCU: 0x6C5, offset: 0x3A7B23, size: 0x8, addend: 0x0, symName: '-[SDCBarcodeCountIconOverlayView .cxx_destruct]', symObjAddr: 0xB44, symBinAddr: 0x4ED14, symSize: 0x54 }
  - { offsetInCU: 0x27, offset: 0x3A7B8C, size: 0x8, addend: 0x0, symName: '+[SDCBarcodeCountIconResources imageNameForRecognizedBarcode:]', symObjAddr: 0x0, symBinAddr: 0x4ED68, symSize: 0x1C }
  - { offsetInCU: 0x170, offset: 0x3A7CD5, size: 0x8, addend: 0x0, symName: '+[SDCBarcodeCountIconResources imageNameForRecognizedBarcode:]', symObjAddr: 0x0, symBinAddr: 0x4ED68, symSize: 0x1C }
  - { offsetInCU: 0x1B1, offset: 0x3A7D16, size: 0x8, addend: 0x0, symName: '+[SDCBarcodeCountIconResources imageNameForUnrecognizedBarcode:]', symObjAddr: 0x1C, symBinAddr: 0x4ED84, symSize: 0x1C }
  - { offsetInCU: 0x1F2, offset: 0x3A7D57, size: 0x8, addend: 0x0, symName: '+[SDCBarcodeCountIconResources imageNameForNotInListBarcode:]', symObjAddr: 0x38, symBinAddr: 0x4EDA0, symSize: 0x1C }
  - { offsetInCU: 0x233, offset: 0x3A7D98, size: 0x8, addend: 0x0, symName: '+[SDCBarcodeCountIconResources imageNameForAcceptedBarcode:]', symObjAddr: 0x54, symBinAddr: 0x4EDBC, symSize: 0x1C }
  - { offsetInCU: 0x274, offset: 0x3A7DD9, size: 0x8, addend: 0x0, symName: '+[SDCBarcodeCountIconResources imageNameForRejectedBarcode:]', symObjAddr: 0x70, symBinAddr: 0x4EDD8, symSize: 0xC }
  - { offsetInCU: 0x8BB9, offset: 0x3B09DB, size: 0x8, addend: 0x0, symName: __ZN6djinni13set_cpp_proxyIU8__strongP38SDCBarcodeCountNotInListActionSettingsNSt3__110shared_ptrIN3sdc35BarcodeCountNotInListActionSettingsEEEEEvRKT0_T_b, symObjAddr: 0x1C0, symBinAddr: 0x4EFA4, symSize: 0x104 }
  - { offsetInCU: 0xB1BD, offset: 0x3B2FDF, size: 0x8, addend: 0x0, symName: '-[SDCBarcodeCountNotInListActionSettings init]', symObjAddr: 0x0, symBinAddr: 0x4EDE4, symSize: 0x158 }
  - { offsetInCU: 0xB466, offset: 0x3B3288, size: 0x8, addend: 0x0, symName: __ZNSt3__110shared_ptrIN3sdc35BarcodeCountNotInListActionSettingsEED1B8ue170006Ev, symObjAddr: 0x158, symBinAddr: 0x4EF3C, symSize: 0x68 }
  - { offsetInCU: 0xB6D8, offset: 0x3B34FA, size: 0x8, addend: 0x0, symName: '-[SDCBarcodeCountNotInListActionSettings initWithCpp:]', symObjAddr: 0x2C4, symBinAddr: 0x4F0A8, symSize: 0x148 }
  - { offsetInCU: 0xB924, offset: 0x3B3746, size: 0x8, addend: 0x0, symName: '-[SDCBarcodeCountNotInListActionSettings setEnabled:]', symObjAddr: 0x40C, symBinAddr: 0x4F1F0, symSize: 0x28 }
  - { offsetInCU: 0xB985, offset: 0x3B37A7, size: 0x8, addend: 0x0, symName: '-[SDCBarcodeCountNotInListActionSettings enabled]', symObjAddr: 0x434, symBinAddr: 0x4F218, symSize: 0x18 }
  - { offsetInCU: 0xBAA1, offset: 0x3B38C3, size: 0x8, addend: 0x0, symName: '-[SDCBarcodeCountNotInListActionSettings setAcceptButtonText:]', symObjAddr: 0x44C, symBinAddr: 0x4F230, symSize: 0xD4 }
  - { offsetInCU: 0xBDA4, offset: 0x3B3BC6, size: 0x8, addend: 0x0, symName: '-[SDCBarcodeCountNotInListActionSettings acceptButtonText]', symObjAddr: 0x520, symBinAddr: 0x4F304, symSize: 0xA0 }
  - { offsetInCU: 0xC067, offset: 0x3B3E89, size: 0x8, addend: 0x0, symName: '-[SDCBarcodeCountNotInListActionSettings setRejectButtonText:]', symObjAddr: 0x5C0, symBinAddr: 0x4F3A4, symSize: 0xD4 }
  - { offsetInCU: 0xC35F, offset: 0x3B4181, size: 0x8, addend: 0x0, symName: '-[SDCBarcodeCountNotInListActionSettings rejectButtonText]', symObjAddr: 0x694, symBinAddr: 0x4F478, symSize: 0xA0 }
  - { offsetInCU: 0xC622, offset: 0x3B4444, size: 0x8, addend: 0x0, symName: '-[SDCBarcodeCountNotInListActionSettings setCancelButtonText:]', symObjAddr: 0x734, symBinAddr: 0x4F518, symSize: 0xD4 }
  - { offsetInCU: 0xC91A, offset: 0x3B473C, size: 0x8, addend: 0x0, symName: '-[SDCBarcodeCountNotInListActionSettings cancelButtonText]', symObjAddr: 0x808, symBinAddr: 0x4F5EC, symSize: 0xA0 }
  - { offsetInCU: 0xCBDD, offset: 0x3B49FF, size: 0x8, addend: 0x0, symName: '-[SDCBarcodeCountNotInListActionSettings setBarcodeAcceptedHint:]', symObjAddr: 0x8A8, symBinAddr: 0x4F68C, symSize: 0xD4 }
  - { offsetInCU: 0xCED5, offset: 0x3B4CF7, size: 0x8, addend: 0x0, symName: '-[SDCBarcodeCountNotInListActionSettings barcodeAcceptedHint]', symObjAddr: 0x97C, symBinAddr: 0x4F760, symSize: 0xA0 }
  - { offsetInCU: 0xD198, offset: 0x3B4FBA, size: 0x8, addend: 0x0, symName: '-[SDCBarcodeCountNotInListActionSettings setBarcodeRejectedHint:]', symObjAddr: 0xA1C, symBinAddr: 0x4F800, symSize: 0xD4 }
  - { offsetInCU: 0xD490, offset: 0x3B52B2, size: 0x8, addend: 0x0, symName: '-[SDCBarcodeCountNotInListActionSettings barcodeRejectedHint]', symObjAddr: 0xAF0, symBinAddr: 0x4F8D4, symSize: 0xA0 }
  - { offsetInCU: 0xD76E, offset: 0x3B5590, size: 0x8, addend: 0x0, symName: '-[SDCBarcodeCountNotInListActionSettings cppImpl]', symObjAddr: 0xB90, symBinAddr: 0x4F974, symSize: 0x8 }
  - { offsetInCU: 0xD7A8, offset: 0x3B55CA, size: 0x8, addend: 0x0, symName: '-[SDCBarcodeCountNotInListActionSettings cppImpl]', symObjAddr: 0xB90, symBinAddr: 0x4F974, symSize: 0x8 }
  - { offsetInCU: 0xD7C5, offset: 0x3B55E7, size: 0x8, addend: 0x0, symName: '-[SDCBarcodeCountNotInListActionSettings typeErasedCppImpl]', symObjAddr: 0xB98, symBinAddr: 0x4F97C, symSize: 0x24 }
  - { offsetInCU: 0xD7FD, offset: 0x3B561F, size: 0x8, addend: 0x0, symName: '-[SDCBarcodeCountNotInListActionSettings typeErasedCppImpl]', symObjAddr: 0xB98, symBinAddr: 0x4F97C, symSize: 0x24 }
  - { offsetInCU: 0xD826, offset: 0x3B5648, size: 0x8, addend: 0x0, symName: '-[SDCBarcodeCountNotInListActionSettings typeErasedCppImpl]', symObjAddr: 0xB98, symBinAddr: 0x4F97C, symSize: 0x24 }
  - { offsetInCU: 0xD8AE, offset: 0x3B56D0, size: 0x8, addend: 0x0, symName: '-[SDCBarcodeCountNotInListActionSettings acceptButtonAccessibilityLabel]', symObjAddr: 0xBBC, symBinAddr: 0x4F9A0, symSize: 0x8 }
  - { offsetInCU: 0xD8E5, offset: 0x3B5707, size: 0x8, addend: 0x0, symName: '-[SDCBarcodeCountNotInListActionSettings setAcceptButtonAccessibilityLabel:]', symObjAddr: 0xBC4, symBinAddr: 0x4F9A8, symSize: 0xC }
  - { offsetInCU: 0xD926, offset: 0x3B5748, size: 0x8, addend: 0x0, symName: '-[SDCBarcodeCountNotInListActionSettings acceptButtonAccessibilityHint]', symObjAddr: 0xBD0, symBinAddr: 0x4F9B4, symSize: 0x8 }
  - { offsetInCU: 0xD95D, offset: 0x3B577F, size: 0x8, addend: 0x0, symName: '-[SDCBarcodeCountNotInListActionSettings setAcceptButtonAccessibilityHint:]', symObjAddr: 0xBD8, symBinAddr: 0x4F9BC, symSize: 0xC }
  - { offsetInCU: 0xD99E, offset: 0x3B57C0, size: 0x8, addend: 0x0, symName: '-[SDCBarcodeCountNotInListActionSettings rejectButtonAccessibilityLabel]', symObjAddr: 0xBE4, symBinAddr: 0x4F9C8, symSize: 0x8 }
  - { offsetInCU: 0xD9D5, offset: 0x3B57F7, size: 0x8, addend: 0x0, symName: '-[SDCBarcodeCountNotInListActionSettings setRejectButtonAccessibilityLabel:]', symObjAddr: 0xBEC, symBinAddr: 0x4F9D0, symSize: 0xC }
  - { offsetInCU: 0xDA16, offset: 0x3B5838, size: 0x8, addend: 0x0, symName: '-[SDCBarcodeCountNotInListActionSettings rejectButtonAccessibilityHint]', symObjAddr: 0xBF8, symBinAddr: 0x4F9DC, symSize: 0x8 }
  - { offsetInCU: 0xDA4D, offset: 0x3B586F, size: 0x8, addend: 0x0, symName: '-[SDCBarcodeCountNotInListActionSettings setRejectButtonAccessibilityHint:]', symObjAddr: 0xC00, symBinAddr: 0x4F9E4, symSize: 0xC }
  - { offsetInCU: 0xDA8E, offset: 0x3B58B0, size: 0x8, addend: 0x0, symName: '-[SDCBarcodeCountNotInListActionSettings cancelButtonAccessibilityLabel]', symObjAddr: 0xC0C, symBinAddr: 0x4F9F0, symSize: 0x8 }
  - { offsetInCU: 0xDAC5, offset: 0x3B58E7, size: 0x8, addend: 0x0, symName: '-[SDCBarcodeCountNotInListActionSettings setCancelButtonAccessibilityLabel:]', symObjAddr: 0xC14, symBinAddr: 0x4F9F8, symSize: 0xC }
  - { offsetInCU: 0xDB06, offset: 0x3B5928, size: 0x8, addend: 0x0, symName: '-[SDCBarcodeCountNotInListActionSettings cancelButtonAccessibilityHint]', symObjAddr: 0xC20, symBinAddr: 0x4FA04, symSize: 0x8 }
  - { offsetInCU: 0xDB3D, offset: 0x3B595F, size: 0x8, addend: 0x0, symName: '-[SDCBarcodeCountNotInListActionSettings setCancelButtonAccessibilityHint:]', symObjAddr: 0xC28, symBinAddr: 0x4FA0C, symSize: 0xC }
  - { offsetInCU: 0xDC17, offset: 0x3B5A39, size: 0x8, addend: 0x0, symName: '-[SDCBarcodeCountNotInListActionSettings .cxx_destruct]', symObjAddr: 0xC34, symBinAddr: 0x4FA18, symSize: 0x12C }
  - { offsetInCU: 0xDF2D, offset: 0x3B5D4F, size: 0x8, addend: 0x0, symName: '-[SDCBarcodeCountNotInListActionSettings .cxx_construct]', symObjAddr: 0xD60, symBinAddr: 0x4FB44, symSize: 0x48 }
  - { offsetInCU: 0x27, offset: 0x3B5EF2, size: 0x8, addend: 0x0, symName: '-[SDCBarcodeCountOnPreviewButtonsView initWithFrame:]', symObjAddr: 0x0, symBinAddr: 0x4FB8C, symSize: 0xE0 }
  - { offsetInCU: 0x417, offset: 0x3B62E2, size: 0x8, addend: 0x0, symName: '-[SDCBarcodeCountOnPreviewButtonsView initWithFrame:]', symObjAddr: 0x0, symBinAddr: 0x4FB8C, symSize: 0xE0 }
  - { offsetInCU: 0x45A, offset: 0x3B6325, size: 0x8, addend: 0x0, symName: '-[SDCBarcodeCountOnPreviewButtonsView isPortrait]', symObjAddr: 0xE0, symBinAddr: 0x4FC6C, symSize: 0x3C }
  - { offsetInCU: 0x491, offset: 0x3B635C, size: 0x8, addend: 0x0, symName: '-[SDCBarcodeCountOnPreviewButtonsView layoutSubviews]', symObjAddr: 0x11C, symBinAddr: 0x4FCA8, symSize: 0x1C8 }
  - { offsetInCU: 0x4EC, offset: 0x3B63B7, size: 0x8, addend: 0x0, symName: '-[SDCBarcodeCountOnPreviewButtonsView didMoveToSuperview]', symObjAddr: 0x2E4, symBinAddr: 0x4FE70, symSize: 0x84 }
  - { offsetInCU: 0x51F, offset: 0x3B63EA, size: 0x8, addend: 0x0, symName: '-[SDCBarcodeCountOnPreviewButtonsView setClearHighlightsButtonText:]', symObjAddr: 0x368, symBinAddr: 0x4FEF4, symSize: 0x98 }
  - { offsetInCU: 0x562, offset: 0x3B642D, size: 0x8, addend: 0x0, symName: '-[SDCBarcodeCountOnPreviewButtonsView setShowClearHighlightsButton:]', symObjAddr: 0x400, symBinAddr: 0x4FF8C, symSize: 0x20 }
  - { offsetInCU: 0x5A3, offset: 0x3B646E, size: 0x8, addend: 0x0, symName: '-[SDCBarcodeCountOnPreviewButtonsView setShowSingleScanButton:]', symObjAddr: 0x420, symBinAddr: 0x4FFAC, symSize: 0x20 }
  - { offsetInCU: 0x5E4, offset: 0x3B64AF, size: 0x8, addend: 0x0, symName: '-[SDCBarcodeCountOnPreviewButtonsView setShowStatusModeButton:]', symObjAddr: 0x440, symBinAddr: 0x4FFCC, symSize: 0x20 }
  - { offsetInCU: 0x625, offset: 0x3B64F0, size: 0x8, addend: 0x0, symName: '-[SDCBarcodeCountOnPreviewButtonsView setClearHighlightsButtonEnabled:]', symObjAddr: 0x460, symBinAddr: 0x4FFEC, symSize: 0x4C }
  - { offsetInCU: 0x668, offset: 0x3B6533, size: 0x8, addend: 0x0, symName: '-[SDCBarcodeCountOnPreviewButtonsView clearHighlightsButtonEnabled]', symObjAddr: 0x4AC, symBinAddr: 0x50038, symSize: 0x50 }
  - { offsetInCU: 0x69F, offset: 0x3B656A, size: 0x8, addend: 0x0, symName: '-[SDCBarcodeCountOnPreviewButtonsView setStatusModeButtonEnabled:]', symObjAddr: 0x4FC, symBinAddr: 0x50088, symSize: 0x4C }
  - { offsetInCU: 0x6E2, offset: 0x3B65AD, size: 0x8, addend: 0x0, symName: '-[SDCBarcodeCountOnPreviewButtonsView statusModeButtonEnabled]', symObjAddr: 0x548, symBinAddr: 0x500D4, symSize: 0x50 }
  - { offsetInCU: 0x719, offset: 0x3B65E4, size: 0x8, addend: 0x0, symName: '-[SDCBarcodeCountOnPreviewButtonsView setClearHighlightsButtonAccessibilityHint:]', symObjAddr: 0x598, symBinAddr: 0x50124, symSize: 0x88 }
  - { offsetInCU: 0x75C, offset: 0x3B6627, size: 0x8, addend: 0x0, symName: '-[SDCBarcodeCountOnPreviewButtonsView setSingleScanButtonAccessibilityHint:]', symObjAddr: 0x620, symBinAddr: 0x501AC, symSize: 0x88 }
  - { offsetInCU: 0x79F, offset: 0x3B666A, size: 0x8, addend: 0x0, symName: '-[SDCBarcodeCountOnPreviewButtonsView setStatusModeButtonAccessibilityHint:]', symObjAddr: 0x6A8, symBinAddr: 0x50234, symSize: 0x88 }
  - { offsetInCU: 0x7E2, offset: 0x3B66AD, size: 0x8, addend: 0x0, symName: '-[SDCBarcodeCountOnPreviewButtonsView setClearHighlightsButtonAccessibilityLabel:]', symObjAddr: 0x730, symBinAddr: 0x502BC, symSize: 0x88 }
  - { offsetInCU: 0x825, offset: 0x3B66F0, size: 0x8, addend: 0x0, symName: '-[SDCBarcodeCountOnPreviewButtonsView setSingleScanButtonAccessibilityLabel:]', symObjAddr: 0x7B8, symBinAddr: 0x50344, symSize: 0x88 }
  - { offsetInCU: 0x868, offset: 0x3B6733, size: 0x8, addend: 0x0, symName: '-[SDCBarcodeCountOnPreviewButtonsView setStatusModeButtonAccessibilityLabel:]', symObjAddr: 0x840, symBinAddr: 0x503CC, symSize: 0x88 }
  - { offsetInCU: 0x8AB, offset: 0x3B6776, size: 0x8, addend: 0x0, symName: '-[SDCBarcodeCountOnPreviewButtonsView updateSingleScanButton]', symObjAddr: 0x8C8, symBinAddr: 0x50454, symSize: 0x82C }
  - { offsetInCU: 0x8FE, offset: 0x3B67C9, size: 0x8, addend: 0x0, symName: '-[SDCBarcodeCountOnPreviewButtonsView updateClearHighlightsButton]', symObjAddr: 0x10F4, symBinAddr: 0x50C80, symSize: 0x80C }
  - { offsetInCU: 0x951, offset: 0x3B681C, size: 0x8, addend: 0x0, symName: '-[SDCBarcodeCountOnPreviewButtonsView updateStatusModeButton]', symObjAddr: 0x1900, symBinAddr: 0x5148C, symSize: 0x904 }
  - { offsetInCU: 0x9CB, offset: 0x3B6896, size: 0x8, addend: 0x0, symName: '-[SDCBarcodeCountOnPreviewButtonsView removeConstraintsInvolvingView:]', symObjAddr: 0x2204, symBinAddr: 0x51D90, symSize: 0x270 }
  - { offsetInCU: 0xA60, offset: 0x3B692B, size: 0x8, addend: 0x0, symName: '___70-[SDCBarcodeCountOnPreviewButtonsView removeConstraintsInvolvingView:]_block_invoke', symObjAddr: 0x2474, symBinAddr: 0x52000, symSize: 0xAC }
  - { offsetInCU: 0xACC, offset: 0x3B6997, size: 0x8, addend: 0x0, symName: '-[SDCBarcodeCountOnPreviewButtonsView clearHighlightsButtonPressed]', symObjAddr: 0x2530, symBinAddr: 0x520AC, symSize: 0x58 }
  - { offsetInCU: 0xB11, offset: 0x3B69DC, size: 0x8, addend: 0x0, symName: '-[SDCBarcodeCountOnPreviewButtonsView singleScanButtonPressed]', symObjAddr: 0x2588, symBinAddr: 0x52104, symSize: 0x58 }
  - { offsetInCU: 0xB56, offset: 0x3B6A21, size: 0x8, addend: 0x0, symName: '-[SDCBarcodeCountOnPreviewButtonsView statusModeButtonPressed]', symObjAddr: 0x25E0, symBinAddr: 0x5215C, symSize: 0x58 }
  - { offsetInCU: 0xB9B, offset: 0x3B6A66, size: 0x8, addend: 0x0, symName: '-[SDCBarcodeCountOnPreviewButtonsView delegate]', symObjAddr: 0x2638, symBinAddr: 0x521B4, symSize: 0x20 }
  - { offsetInCU: 0xBD2, offset: 0x3B6A9D, size: 0x8, addend: 0x0, symName: '-[SDCBarcodeCountOnPreviewButtonsView setDelegate:]', symObjAddr: 0x2658, symBinAddr: 0x521D4, symSize: 0x14 }
  - { offsetInCU: 0xC13, offset: 0x3B6ADE, size: 0x8, addend: 0x0, symName: '-[SDCBarcodeCountOnPreviewButtonsView showClearHighlightsButton]', symObjAddr: 0x266C, symBinAddr: 0x521E8, symSize: 0x10 }
  - { offsetInCU: 0xC4A, offset: 0x3B6B15, size: 0x8, addend: 0x0, symName: '-[SDCBarcodeCountOnPreviewButtonsView showSingleScanButton]', symObjAddr: 0x267C, symBinAddr: 0x521F8, symSize: 0x10 }
  - { offsetInCU: 0xC81, offset: 0x3B6B4C, size: 0x8, addend: 0x0, symName: '-[SDCBarcodeCountOnPreviewButtonsView showStatusModeButton]', symObjAddr: 0x268C, symBinAddr: 0x52208, symSize: 0x10 }
  - { offsetInCU: 0xCB8, offset: 0x3B6B83, size: 0x8, addend: 0x0, symName: '-[SDCBarcodeCountOnPreviewButtonsView statusModeEnabled]', symObjAddr: 0x269C, symBinAddr: 0x52218, symSize: 0x10 }
  - { offsetInCU: 0xCEF, offset: 0x3B6BBA, size: 0x8, addend: 0x0, symName: '-[SDCBarcodeCountOnPreviewButtonsView setStatusModeEnabled:]', symObjAddr: 0x26AC, symBinAddr: 0x52228, symSize: 0x10 }
  - { offsetInCU: 0xD2A, offset: 0x3B6BF5, size: 0x8, addend: 0x0, symName: '-[SDCBarcodeCountOnPreviewButtonsView clearHighlightsButtonText]', symObjAddr: 0x26BC, symBinAddr: 0x52238, symSize: 0x10 }
  - { offsetInCU: 0xD61, offset: 0x3B6C2C, size: 0x8, addend: 0x0, symName: '-[SDCBarcodeCountOnPreviewButtonsView clearHighlightsButtonAccessibilityLabel]', symObjAddr: 0x26CC, symBinAddr: 0x52248, symSize: 0x10 }
  - { offsetInCU: 0xD98, offset: 0x3B6C63, size: 0x8, addend: 0x0, symName: '-[SDCBarcodeCountOnPreviewButtonsView singleScanButtonAccessibilityLabel]', symObjAddr: 0x26DC, symBinAddr: 0x52258, symSize: 0x10 }
  - { offsetInCU: 0xDCF, offset: 0x3B6C9A, size: 0x8, addend: 0x0, symName: '-[SDCBarcodeCountOnPreviewButtonsView statusModeButtonAccessibilityLabel]', symObjAddr: 0x26EC, symBinAddr: 0x52268, symSize: 0x10 }
  - { offsetInCU: 0xE06, offset: 0x3B6CD1, size: 0x8, addend: 0x0, symName: '-[SDCBarcodeCountOnPreviewButtonsView clearHighlightsButtonAccessibilityHint]', symObjAddr: 0x26FC, symBinAddr: 0x52278, symSize: 0x10 }
  - { offsetInCU: 0xE3D, offset: 0x3B6D08, size: 0x8, addend: 0x0, symName: '-[SDCBarcodeCountOnPreviewButtonsView singleScanButtonAccessibilityHint]', symObjAddr: 0x270C, symBinAddr: 0x52288, symSize: 0x10 }
  - { offsetInCU: 0xE74, offset: 0x3B6D3F, size: 0x8, addend: 0x0, symName: '-[SDCBarcodeCountOnPreviewButtonsView statusModeButtonAccessibilityHint]', symObjAddr: 0x271C, symBinAddr: 0x52298, symSize: 0x10 }
  - { offsetInCU: 0xEAB, offset: 0x3B6D76, size: 0x8, addend: 0x0, symName: '-[SDCBarcodeCountOnPreviewButtonsView singleScanButton]', symObjAddr: 0x272C, symBinAddr: 0x522A8, symSize: 0x10 }
  - { offsetInCU: 0xEE2, offset: 0x3B6DAD, size: 0x8, addend: 0x0, symName: '-[SDCBarcodeCountOnPreviewButtonsView setSingleScanButton:]', symObjAddr: 0x273C, symBinAddr: 0x522B8, symSize: 0x14 }
  - { offsetInCU: 0xF23, offset: 0x3B6DEE, size: 0x8, addend: 0x0, symName: '-[SDCBarcodeCountOnPreviewButtonsView clearHighlightsButton]', symObjAddr: 0x2750, symBinAddr: 0x522CC, symSize: 0x10 }
  - { offsetInCU: 0xF5A, offset: 0x3B6E25, size: 0x8, addend: 0x0, symName: '-[SDCBarcodeCountOnPreviewButtonsView setClearHighlightsButton:]', symObjAddr: 0x2760, symBinAddr: 0x522DC, symSize: 0x14 }
  - { offsetInCU: 0xF9B, offset: 0x3B6E66, size: 0x8, addend: 0x0, symName: '-[SDCBarcodeCountOnPreviewButtonsView statusModeButton]', symObjAddr: 0x2774, symBinAddr: 0x522F0, symSize: 0x10 }
  - { offsetInCU: 0xFD2, offset: 0x3B6E9D, size: 0x8, addend: 0x0, symName: '-[SDCBarcodeCountOnPreviewButtonsView setStatusModeButton:]', symObjAddr: 0x2784, symBinAddr: 0x52300, symSize: 0x14 }
  - { offsetInCU: 0x1013, offset: 0x3B6EDE, size: 0x8, addend: 0x0, symName: '-[SDCBarcodeCountOnPreviewButtonsView portraitConstraints]', symObjAddr: 0x2798, symBinAddr: 0x52314, symSize: 0x10 }
  - { offsetInCU: 0x104A, offset: 0x3B6F15, size: 0x8, addend: 0x0, symName: '-[SDCBarcodeCountOnPreviewButtonsView setPortraitConstraints:]', symObjAddr: 0x27A8, symBinAddr: 0x52324, symSize: 0x14 }
  - { offsetInCU: 0x108B, offset: 0x3B6F56, size: 0x8, addend: 0x0, symName: '-[SDCBarcodeCountOnPreviewButtonsView landscapeConstraints]', symObjAddr: 0x27BC, symBinAddr: 0x52338, symSize: 0x10 }
  - { offsetInCU: 0x10C2, offset: 0x3B6F8D, size: 0x8, addend: 0x0, symName: '-[SDCBarcodeCountOnPreviewButtonsView setLandscapeConstraints:]', symObjAddr: 0x27CC, symBinAddr: 0x52348, symSize: 0x14 }
  - { offsetInCU: 0x1103, offset: 0x3B6FCE, size: 0x8, addend: 0x0, symName: '-[SDCBarcodeCountOnPreviewButtonsView .cxx_destruct]', symObjAddr: 0x27E0, symBinAddr: 0x5235C, symSize: 0x118 }
  - { offsetInCU: 0x17A9, offset: 0x3B88B3, size: 0x8, addend: 0x0, symName: __ZN3sdc4core20nsarrayWithCppVectorIiU8__strongU13block_pointerFP8NSNumberiEEEP7NSArrayRKNSt3__16vectorIT_NS9_9allocatorISB_EEEEOT0_, symObjAddr: 0x6E8, symBinAddr: 0x529FC, symSize: 0xC8 }
  - { offsetInCU: 0x1F57F, offset: 0x3D6689, size: 0x8, addend: 0x0, symName: __ZN6djinni18get_cpp_proxy_implI21SDCBarcodeSpatialGridN3sdc18BarcodeSpatialGridEEEPT_RKNSt3__110shared_ptrIT0_EE, symObjAddr: 0x1430, symBinAddr: 0x53428, symSize: 0xE8 }
  - { offsetInCU: 0x21A8B, offset: 0x3D8B95, size: 0x8, addend: 0x0, symName: '-[SDCBarcodeCountSession initWithCpp:]', symObjAddr: 0x0, symBinAddr: 0x52474, symSize: 0xD0 }
  - { offsetInCU: 0x21CD7, offset: 0x3D8DE1, size: 0x8, addend: 0x0, symName: '-[SDCBarcodeCountSession reset]', symObjAddr: 0xD0, symBinAddr: 0x52544, symSize: 0x8 }
  - { offsetInCU: 0x21D0C, offset: 0x3D8E16, size: 0x8, addend: 0x0, symName: '-[SDCBarcodeCountSession reset]', symObjAddr: 0xD0, symBinAddr: 0x52544, symSize: 0x8 }
  - { offsetInCU: 0x21D2A, offset: 0x3D8E34, size: 0x8, addend: 0x0, symName: '-[SDCBarcodeCountSession spatialMap]', symObjAddr: 0xD8, symBinAddr: 0x5254C, symSize: 0xC }
  - { offsetInCU: 0x21E08, offset: 0x3D8F12, size: 0x8, addend: 0x0, symName: '-[SDCBarcodeCountSession spatialMapWithExpectedNumberOfRows:expectedNumberOfColumns:]', symObjAddr: 0xE4, symBinAddr: 0x52558, symSize: 0xDC }
  - { offsetInCU: 0x21FF3, offset: 0x3D90FD, size: 0x8, addend: 0x0, symName: __ZNSt3__110shared_ptrIN3sdc18BarcodeSpatialGridEED1B8ue170006Ev, symObjAddr: 0x1C0, symBinAddr: 0x52634, symSize: 0x68 }
  - { offsetInCU: 0x2225B, offset: 0x3D9365, size: 0x8, addend: 0x0, symName: '-[SDCBarcodeCountSession addedRecognizedBarcodes]', symObjAddr: 0x228, symBinAddr: 0x5269C, symSize: 0x120 }
  - { offsetInCU: 0x229E4, offset: 0x3D9AEE, size: 0x8, addend: 0x0, symName: '___49-[SDCBarcodeCountSession addedRecognizedBarcodes]_block_invoke', symObjAddr: 0x410, symBinAddr: 0x527BC, symSize: 0x8 }
  - { offsetInCU: 0x22A6A, offset: 0x3D9B74, size: 0x8, addend: 0x0, symName: '-[SDCBarcodeCountSession unrecognizedBarcodes]', symObjAddr: 0x4B0, symBinAddr: 0x527C4, symSize: 0x120 }
  - { offsetInCU: 0x22D9C, offset: 0x3D9EA6, size: 0x8, addend: 0x0, symName: '___46-[SDCBarcodeCountSession unrecognizedBarcodes]_block_invoke', symObjAddr: 0x5D0, symBinAddr: 0x528E4, symSize: 0x8 }
  - { offsetInCU: 0x23159, offset: 0x3DA263, size: 0x8, addend: 0x0, symName: '-[SDCBarcodeCountSession removedRecognizedBarcodes]', symObjAddr: 0x5D8, symBinAddr: 0x528EC, symSize: 0x110 }
  - { offsetInCU: 0x236B0, offset: 0x3DA7BA, size: 0x8, addend: 0x0, symName: __ZNKSt3__16vectorIiNS_9allocatorIiEEE20__throw_length_errorB8ue170006Ev, symObjAddr: 0x1998, symBinAddr: 0x535F0, symSize: 0x14 }
  - { offsetInCU: 0x236DA, offset: 0x3DA7E4, size: 0x8, addend: 0x0, symName: __ZNSt3__113unordered_mapIiNS_10shared_ptrIN3sdc4core14TrackedBarcodeEEENS_4hashIiEENS_8equal_toIiEENS_9allocatorINS_4pairIKiS5_EEEEEC2ERKSF_, symObjAddr: 0x19AC, symBinAddr: 0x53604, symSize: 0x130 }
  - { offsetInCU: 0x23774, offset: 0x3DA87E, size: 0x8, addend: 0x0, symName: '___51-[SDCBarcodeCountSession removedRecognizedBarcodes]_block_invoke', symObjAddr: 0x7B0, symBinAddr: 0x52AC4, symSize: 0x10 }
  - { offsetInCU: 0x237C5, offset: 0x3DA8CF, size: 0x8, addend: 0x0, symName: '-[SDCBarcodeCountSession updatedRecognizedBarcodes]', symObjAddr: 0x7C0, symBinAddr: 0x52AD4, symSize: 0x120 }
  - { offsetInCU: 0x23AF7, offset: 0x3DAC01, size: 0x8, addend: 0x0, symName: '___51-[SDCBarcodeCountSession updatedRecognizedBarcodes]_block_invoke', symObjAddr: 0x8E0, symBinAddr: 0x52BF4, symSize: 0x8 }
  - { offsetInCU: 0x23E20, offset: 0x3DAF2A, size: 0x8, addend: 0x0, symName: '-[SDCBarcodeCountSession recognizedBarcodes]', symObjAddr: 0x8E8, symBinAddr: 0x52BFC, symSize: 0x1B0 }
  - { offsetInCU: 0x24340, offset: 0x3DB44A, size: 0x8, addend: 0x0, symName: __ZNSt3__113unordered_mapIiNS_10shared_ptrIN3sdc4core14TrackedBarcodeEEENS_4hashIiEENS_8equal_toIiEENS_9allocatorINS_4pairIKiS5_EEEEEC2ERKSF_, symObjAddr: 0x19AC, symBinAddr: 0x53604, symSize: 0x130 }
  - { offsetInCU: 0x249A3, offset: 0x3DBAAD, size: 0x8, addend: 0x0, symName: '___44-[SDCBarcodeCountSession recognizedBarcodes]_block_invoke', symObjAddr: 0xB98, symBinAddr: 0x52DAC, symSize: 0x10 }
  - { offsetInCU: 0x249DE, offset: 0x3DBAE8, size: 0x8, addend: 0x0, symName: '___44-[SDCBarcodeCountSession recognizedBarcodes]_block_invoke_2', symObjAddr: 0xBA8, symBinAddr: 0x52DBC, symSize: 0x8 }
  - { offsetInCU: 0x24A4E, offset: 0x3DBB58, size: 0x8, addend: 0x0, symName: '-[SDCBarcodeCountSession clearedBarcodes]', symObjAddr: 0xC40, symBinAddr: 0x52DC4, symSize: 0x138 }
  - { offsetInCU: 0x24F30, offset: 0x3DC03A, size: 0x8, addend: 0x0, symName: '___41-[SDCBarcodeCountSession clearedBarcodes]_block_invoke', symObjAddr: 0xD78, symBinAddr: 0x52EFC, symSize: 0x10 }
  - { offsetInCU: 0x24F6B, offset: 0x3DC075, size: 0x8, addend: 0x0, symName: '___41-[SDCBarcodeCountSession clearedBarcodes]_block_invoke_2', symObjAddr: 0xD88, symBinAddr: 0x52F0C, symSize: 0x8 }
  - { offsetInCU: 0x24FF1, offset: 0x3DC0FB, size: 0x8, addend: 0x0, symName: '-[SDCBarcodeCountSession filteredTrackedBarcodes]', symObjAddr: 0xD90, symBinAddr: 0x52F14, symSize: 0x134 }
  - { offsetInCU: 0x254F1, offset: 0x3DC5FB, size: 0x8, addend: 0x0, symName: '___49-[SDCBarcodeCountSession filteredTrackedBarcodes]_block_invoke', symObjAddr: 0xEC4, symBinAddr: 0x53048, symSize: 0x10 }
  - { offsetInCU: 0x2552C, offset: 0x3DC636, size: 0x8, addend: 0x0, symName: '___49-[SDCBarcodeCountSession filteredTrackedBarcodes]_block_invoke_2', symObjAddr: 0xED4, symBinAddr: 0x53058, symSize: 0x8 }
  - { offsetInCU: 0x255B2, offset: 0x3DC6BC, size: 0x8, addend: 0x0, symName: '-[SDCBarcodeCountSession frameSequenceId]', symObjAddr: 0xEDC, symBinAddr: 0x53060, symSize: 0xC }
  - { offsetInCU: 0x255FB, offset: 0x3DC705, size: 0x8, addend: 0x0, symName: '-[SDCBarcodeCountSession frameSequenceId]', symObjAddr: 0xEDC, symBinAddr: 0x53060, symSize: 0xC }
  - { offsetInCU: 0x25637, offset: 0x3DC741, size: 0x8, addend: 0x0, symName: '-[SDCBarcodeCountSession hasScanningFailed]', symObjAddr: 0xEE8, symBinAddr: 0x5306C, symSize: 0x8 }
  - { offsetInCU: 0x25670, offset: 0x3DC77A, size: 0x8, addend: 0x0, symName: '-[SDCBarcodeCountSession hasScanningFailed]', symObjAddr: 0xEE8, symBinAddr: 0x5306C, symSize: 0x8 }
  - { offsetInCU: 0x25865, offset: 0x3DC96F, size: 0x8, addend: 0x0, symName: '-[SDCBarcodeCountSession additionalBarcodes]', symObjAddr: 0xEF0, symBinAddr: 0x53074, symSize: 0x128 }
  - { offsetInCU: 0x25CCC, offset: 0x3DCDD6, size: 0x8, addend: 0x0, symName: '___44-[SDCBarcodeCountSession additionalBarcodes]_block_invoke', symObjAddr: 0x1018, symBinAddr: 0x5319C, symSize: 0x8 }
  - { offsetInCU: 0x25F35, offset: 0x3DD03F, size: 0x8, addend: 0x0, symName: '-[SDCBarcodeCountSession JSONString]', symObjAddr: 0x11A0, symBinAddr: 0x531A4, symSize: 0x9C }
  - { offsetInCU: 0x26224, offset: 0x3DD32E, size: 0x8, addend: 0x0, symName: '-[SDCBarcodeCountSession cppImpl]', symObjAddr: 0x123C, symBinAddr: 0x53240, symSize: 0x8 }
  - { offsetInCU: 0x2625D, offset: 0x3DD367, size: 0x8, addend: 0x0, symName: '-[SDCBarcodeCountSession cppImpl]', symObjAddr: 0x123C, symBinAddr: 0x53240, symSize: 0x8 }
  - { offsetInCU: 0x262E1, offset: 0x3DD3EB, size: 0x8, addend: 0x0, symName: '-[SDCBarcodeCountSession typeErasedCppImpl]', symObjAddr: 0x1244, symBinAddr: 0x53248, symSize: 0x24 }
  - { offsetInCU: 0x26318, offset: 0x3DD422, size: 0x8, addend: 0x0, symName: '-[SDCBarcodeCountSession typeErasedCppImpl]', symObjAddr: 0x1244, symBinAddr: 0x53248, symSize: 0x24 }
  - { offsetInCU: 0x26341, offset: 0x3DD44B, size: 0x8, addend: 0x0, symName: '-[SDCBarcodeCountSession typeErasedCppImpl]', symObjAddr: 0x1244, symBinAddr: 0x53248, symSize: 0x24 }
  - { offsetInCU: 0x26463, offset: 0x3DD56D, size: 0x8, addend: 0x0, symName: '-[SDCBarcodeCountSession .cxx_destruct]', symObjAddr: 0x1268, symBinAddr: 0x5326C, symSize: 0xE4 }
  - { offsetInCU: 0x26779, offset: 0x3DD883, size: 0x8, addend: 0x0, symName: '-[SDCBarcodeCountSession .cxx_construct]', symObjAddr: 0x134C, symBinAddr: 0x53350, symSize: 0x48 }
  - { offsetInCU: 0x268E1, offset: 0x3DD9EB, size: 0x8, addend: 0x0, symName: __ZNSt3__112__hash_tableINS_17__hash_value_typeIiNS_10shared_ptrIN3sdc4core14TrackedBarcodeEEEEENS_22__unordered_map_hasherIiS7_NS_4hashIiEENS_8equal_toIiEELb1EEENS_21__unordered_map_equalIiS7_SC_SA_Lb1EEENS_9allocatorIS7_EEED1Ev, symObjAddr: 0x13A0, symBinAddr: 0x53398, symSize: 0x90 }
  - { offsetInCU: 0x26E81, offset: 0x3DDF8B, size: 0x8, addend: 0x0, symName: __ZZN6djinni18get_cpp_proxy_implI21SDCBarcodeSpatialGridN3sdc18BarcodeSpatialGridEEEPT_RKNSt3__110shared_ptrIT0_EEENUlRKNS7_IvEEE_8__invokeESE_, symObjAddr: 0x1580, symBinAddr: 0x53510, symSize: 0xE0 }
  - { offsetInCU: 0x27133, offset: 0x3DE23D, size: 0x8, addend: 0x0, symName: __ZZN6djinni18get_cpp_proxy_implI21SDCBarcodeSpatialGridN3sdc18BarcodeSpatialGridEEEPT_RKNSt3__110shared_ptrIT0_EEENUlRKNS7_IvEEE_8__invokeESE_.cold.1, symObjAddr: 0x232C, symBinAddr: 0x2720DC, symSize: 0x30 }
  - { offsetInCU: 0x27A23, offset: 0x3DEB2D, size: 0x8, addend: 0x0, symName: __ZNSt3__112__hash_tableINS_17__hash_value_typeIiNS_10shared_ptrIN3sdc4core14TrackedBarcodeEEEEENS_22__unordered_map_hasherIiS7_NS_4hashIiEENS_8equal_toIiEELb1EEENS_21__unordered_map_equalIiS7_SC_SA_Lb1EEENS_9allocatorIS7_EEE11__do_rehashILb1EEEvm, symObjAddr: 0x1ADC, symBinAddr: 0x53734, symSize: 0x1AC }
  - { offsetInCU: 0x27ECB, offset: 0x3DEFD5, size: 0x8, addend: 0x0, symName: __ZNSt3__112__hash_tableINS_17__hash_value_typeIiNS_10shared_ptrIN3sdc4core14TrackedBarcodeEEEEENS_22__unordered_map_hasherIiS7_NS_4hashIiEENS_8equal_toIiEELb1EEENS_21__unordered_map_equalIiS7_SC_SA_Lb1EEENS_9allocatorIS7_EEE25__emplace_unique_key_argsIiJRKNS_4pairIKiS6_EEEEENSK_INS_15__hash_iteratorIPNS_11__hash_nodeIS7_PvEEEEbEERKT_DpOT0_, symObjAddr: 0x1C88, symBinAddr: 0x538E0, symSize: 0x37C }
  - { offsetInCU: 0x27EE1, offset: 0x3DEFEB, size: 0x8, addend: 0x0, symName: __ZNSt3__112__hash_tableINS_17__hash_value_typeIiNS_10shared_ptrIN3sdc4core14TrackedBarcodeEEEEENS_22__unordered_map_hasherIiS7_NS_4hashIiEENS_8equal_toIiEELb1EEENS_21__unordered_map_equalIiS7_SC_SA_Lb1EEENS_9allocatorIS7_EEE25__emplace_unique_key_argsIiJRKNS_4pairIKiS6_EEEEENSK_INS_15__hash_iteratorIPNS_11__hash_nodeIS7_PvEEEEbEERKT_DpOT0_, symObjAddr: 0x1C88, symBinAddr: 0x538E0, symSize: 0x37C }
  - { offsetInCU: 0x28AB6, offset: 0x3DFBC0, size: 0x8, addend: 0x0, symName: __ZNSt3__110unique_ptrINS_11__hash_nodeINS_17__hash_value_typeIiNS_10shared_ptrIN3sdc4core14TrackedBarcodeEEEEEPvEENS_22__hash_node_destructorINS_9allocatorISA_EEEEED1B8ue170006Ev, symObjAddr: 0x2004, symBinAddr: 0x53C5C, symSize: 0x7C }
  - { offsetInCU: 0x28EB9, offset: 0x3DFFC3, size: 0x8, addend: 0x0, symName: _OUTLINED_FUNCTION_0, symObjAddr: 0x2444, symBinAddr: 0x53CD8, symSize: 0x10 }
  - { offsetInCU: 0x28ED1, offset: 0x3DFFDB, size: 0x8, addend: 0x0, symName: _OUTLINED_FUNCTION_1, symObjAddr: 0x2454, symBinAddr: 0x53CE8, symSize: 0x10 }
  - { offsetInCU: 0x28EE9, offset: 0x3DFFF3, size: 0x8, addend: 0x0, symName: _OUTLINED_FUNCTION_2, symObjAddr: 0x2464, symBinAddr: 0x53CF8, symSize: 0x8 }
  - { offsetInCU: 0x28F01, offset: 0x3E000B, size: 0x8, addend: 0x0, symName: _OUTLINED_FUNCTION_3, symObjAddr: 0x246C, symBinAddr: 0x53D00, symSize: 0x8 }
  - { offsetInCU: 0x15025, offset: 0x3F544B, size: 0x8, addend: 0x0, symName: __ZN6djinni13set_cpp_proxyIU8__strongP23SDCBarcodeCountSettingsNSt3__110shared_ptrIN3sdc20BarcodeCountSettingsEEEEEvRKT0_T_b, symObjAddr: 0x348, symBinAddr: 0x53F18, symSize: 0x104 }
  - { offsetInCU: 0x153D9, offset: 0x3F57FF, size: 0x8, addend: 0x0, symName: __ZN6djinni18get_cpp_proxy_implI24SDCBarcodeFilterSettingsN3sdc21BarcodeFilterSettingsEEEPT_RKNSt3__110shared_ptrIT0_EE, symObjAddr: 0x24B8, symBinAddr: 0x55600, symSize: 0xE8 }
  - { offsetInCU: 0x17790, offset: 0x3F7BB6, size: 0x8, addend: 0x0, symName: '-[SDCBarcodeCountSettings init]', symObjAddr: 0x0, symBinAddr: 0x53D08, symSize: 0x210 }
  - { offsetInCU: 0x17EE2, offset: 0x3F8308, size: 0x8, addend: 0x0, symName: '-[SDCBarcodeCountSettings initWithCpp:]', symObjAddr: 0x44C, symBinAddr: 0x5401C, symSize: 0xD0 }
  - { offsetInCU: 0x181A9, offset: 0x3F85CF, size: 0x8, addend: 0x0, symName: '-[SDCBarcodeCountSettings settingsForSymbology:]', symObjAddr: 0x51C, symBinAddr: 0x540EC, symSize: 0xD0 }
  - { offsetInCU: 0x1847E, offset: 0x3F88A4, size: 0x8, addend: 0x0, symName: '-[SDCBarcodeCountSettings setValue:forProperty:]', symObjAddr: 0x654, symBinAddr: 0x541BC, symSize: 0x110 }
  - { offsetInCU: 0x1866F, offset: 0x3F8A95, size: 0x8, addend: 0x0, symName: __Z40SDCEnginePropertyApplyToTrackingSettingsIN3sdc20BarcodeCountSettingsEEvP11objc_objectP8NSStringNSt3__110shared_ptrINS0_28BasicBarcodeTrackingSettingsIT_EEEE, symObjAddr: 0x764, symBinAddr: 0x542CC, symSize: 0x328 }
  - { offsetInCU: 0x191C6, offset: 0x3F95EC, size: 0x8, addend: 0x0, symName: __ZNSt3__110shared_ptrIN3sdc28BasicBarcodeTrackingSettingsINS1_20BarcodeCountSettingsEEEED1B8ue170006Ev, symObjAddr: 0xA8C, symBinAddr: 0x545F4, symSize: 0x68 }
  - { offsetInCU: 0x1942A, offset: 0x3F9850, size: 0x8, addend: 0x0, symName: '-[SDCBarcodeCountSettings valueForProperty:]', symObjAddr: 0xAF4, symBinAddr: 0x5465C, symSize: 0xFC }
  - { offsetInCU: 0x19608, offset: 0x3F9A2E, size: 0x8, addend: 0x0, symName: __Z40SDCEnginePropertyGetFromTrackingSettingsIN3sdc20BarcodeCountSettingsEEP11objc_objectP8NSStringNSt3__110shared_ptrINS0_28BasicBarcodeTrackingSettingsIT_EEEE, symObjAddr: 0xBF0, symBinAddr: 0x54758, symSize: 0x21C }
  - { offsetInCU: 0x1A67D, offset: 0x3FAAA3, size: 0x8, addend: 0x0, symName: '-[SDCBarcodeCountSettings enabledSymbologies]', symObjAddr: 0xE0C, symBinAddr: 0x54974, symSize: 0x138 }
  - { offsetInCU: 0x1ACE4, offset: 0x3FB10A, size: 0x8, addend: 0x0, symName: '-[SDCBarcodeCountSettings enableSymbologies:]', symObjAddr: 0xF8C, symBinAddr: 0x54AAC, symSize: 0x128 }
  - { offsetInCU: 0x1BD2F, offset: 0x3FC155, size: 0x8, addend: 0x0, symName: '___45-[SDCBarcodeCountSettings enableSymbologies:]_block_invoke', symObjAddr: 0x12E4, symBinAddr: 0x54BD4, symSize: 0x8C }
  - { offsetInCU: 0x1BDAE, offset: 0x3FC1D4, size: 0x8, addend: 0x0, symName: '-[SDCBarcodeCountSettings setSymbology:enabled:]', symObjAddr: 0x1370, symBinAddr: 0x54C60, symSize: 0x70 }
  - { offsetInCU: 0x1BE7D, offset: 0x3FC2A3, size: 0x8, addend: 0x0, symName: '-[SDCBarcodeCountSettings expectsOnlyUniqueBarcodes]', symObjAddr: 0x13E0, symBinAddr: 0x54CD0, symSize: 0x8 }
  - { offsetInCU: 0x1BEB7, offset: 0x3FC2DD, size: 0x8, addend: 0x0, symName: '-[SDCBarcodeCountSettings expectsOnlyUniqueBarcodes]', symObjAddr: 0x13E0, symBinAddr: 0x54CD0, symSize: 0x8 }
  - { offsetInCU: 0x1BED4, offset: 0x3FC2FA, size: 0x8, addend: 0x0, symName: '-[SDCBarcodeCountSettings setExpectsOnlyUniqueBarcodes:]', symObjAddr: 0x13E8, symBinAddr: 0x54CD8, symSize: 0xC }
  - { offsetInCU: 0x1BFD4, offset: 0x3FC3FA, size: 0x8, addend: 0x0, symName: '-[SDCBarcodeCountSettings filterSettings]', symObjAddr: 0x13F4, symBinAddr: 0x54CE4, symSize: 0xD4 }
  - { offsetInCU: 0x1C20A, offset: 0x3FC630, size: 0x8, addend: 0x0, symName: __ZNSt3__110shared_ptrIN3sdc21BarcodeFilterSettingsEED1B8ue170006Ev, symObjAddr: 0x14C8, symBinAddr: 0x54DB8, symSize: 0x68 }
  - { offsetInCU: 0x1C2C4, offset: 0x3FC6EA, size: 0x8, addend: 0x0, symName: '-[SDCBarcodeCountSettings setFilterSettings:]', symObjAddr: 0x1530, symBinAddr: 0x54E20, symSize: 0xF4 }
  - { offsetInCU: 0x1C4D3, offset: 0x3FC8F9, size: 0x8, addend: 0x0, symName: '-[SDCBarcodeCountSettings setMappingEnabled:]', symObjAddr: 0x1624, symBinAddr: 0x54F14, symSize: 0xC }
  - { offsetInCU: 0x1C536, offset: 0x3FC95C, size: 0x8, addend: 0x0, symName: '-[SDCBarcodeCountSettings mappingEnabled]', symObjAddr: 0x1630, symBinAddr: 0x54F20, symSize: 0x8 }
  - { offsetInCU: 0x1C570, offset: 0x3FC996, size: 0x8, addend: 0x0, symName: '-[SDCBarcodeCountSettings mappingEnabled]', symObjAddr: 0x1630, symBinAddr: 0x54F20, symSize: 0x8 }
  - { offsetInCU: 0x1C58D, offset: 0x3FC9B3, size: 0x8, addend: 0x0, symName: '-[SDCBarcodeCountSettings setShouldUseImuData:]', symObjAddr: 0x1638, symBinAddr: 0x54F28, symSize: 0x28 }
  - { offsetInCU: 0x1C5EE, offset: 0x3FCA14, size: 0x8, addend: 0x0, symName: '-[SDCBarcodeCountSettings shouldUseImuData]', symObjAddr: 0x1660, symBinAddr: 0x54F50, symSize: 0x18 }
  - { offsetInCU: 0x1C643, offset: 0x3FCA69, size: 0x8, addend: 0x0, symName: '-[SDCBarcodeCountSettings disableModeWhenCaptureListCompleted]', symObjAddr: 0x1678, symBinAddr: 0x54F68, symSize: 0x8 }
  - { offsetInCU: 0x1C67D, offset: 0x3FCAA3, size: 0x8, addend: 0x0, symName: '-[SDCBarcodeCountSettings disableModeWhenCaptureListCompleted]', symObjAddr: 0x1678, symBinAddr: 0x54F68, symSize: 0x8 }
  - { offsetInCU: 0x1C69A, offset: 0x3FCAC0, size: 0x8, addend: 0x0, symName: '-[SDCBarcodeCountSettings setDisableModeWhenCaptureListCompleted:]', symObjAddr: 0x1680, symBinAddr: 0x54F70, symSize: 0xC }
  - { offsetInCU: 0x1C6FD, offset: 0x3FCB23, size: 0x8, addend: 0x0, symName: '-[SDCBarcodeCountSettings enableUnrecognizedBarcodeDetection]', symObjAddr: 0x168C, symBinAddr: 0x54F7C, symSize: 0x8 }
  - { offsetInCU: 0x1C737, offset: 0x3FCB5D, size: 0x8, addend: 0x0, symName: '-[SDCBarcodeCountSettings enableUnrecognizedBarcodeDetection]', symObjAddr: 0x168C, symBinAddr: 0x54F7C, symSize: 0x8 }
  - { offsetInCU: 0x1C754, offset: 0x3FCB7A, size: 0x8, addend: 0x0, symName: '-[SDCBarcodeCountSettings setEnableUnrecognizedBarcodeDetection:]', symObjAddr: 0x1694, symBinAddr: 0x54F84, symSize: 0xC }
  - { offsetInCU: 0x1C7B7, offset: 0x3FCBDD, size: 0x8, addend: 0x0, symName: '-[SDCBarcodeCountSettings tapToUncountEnabled]', symObjAddr: 0x16A0, symBinAddr: 0x54F90, symSize: 0x18 }
  - { offsetInCU: 0x1C80C, offset: 0x3FCC32, size: 0x8, addend: 0x0, symName: '-[SDCBarcodeCountSettings setTapToUncountEnabled:]', symObjAddr: 0x16B8, symBinAddr: 0x54FA8, symSize: 0x28 }
  - { offsetInCU: 0x1C888, offset: 0x3FCCAE, size: 0x8, addend: 0x0, symName: '-[SDCBarcodeCountSettings cppImpl]', symObjAddr: 0x16E0, symBinAddr: 0x54FD0, symSize: 0x8 }
  - { offsetInCU: 0x1C8C2, offset: 0x3FCCE8, size: 0x8, addend: 0x0, symName: '-[SDCBarcodeCountSettings cppImpl]', symObjAddr: 0x16E0, symBinAddr: 0x54FD0, symSize: 0x8 }
  - { offsetInCU: 0x1C8DF, offset: 0x3FCD05, size: 0x8, addend: 0x0, symName: '-[SDCBarcodeCountSettings typeErasedCppImpl]', symObjAddr: 0x16E8, symBinAddr: 0x54FD8, symSize: 0x24 }
  - { offsetInCU: 0x1C917, offset: 0x3FCD3D, size: 0x8, addend: 0x0, symName: '-[SDCBarcodeCountSettings typeErasedCppImpl]', symObjAddr: 0x16E8, symBinAddr: 0x54FD8, symSize: 0x24 }
  - { offsetInCU: 0x1C940, offset: 0x3FCD66, size: 0x8, addend: 0x0, symName: '-[SDCBarcodeCountSettings typeErasedCppImpl]', symObjAddr: 0x16E8, symBinAddr: 0x54FD8, symSize: 0x24 }
  - { offsetInCU: 0x1C9CD, offset: 0x3FCDF3, size: 0x8, addend: 0x0, symName: '-[SDCBarcodeCountSettings copyWithZone:]', symObjAddr: 0x170C, symBinAddr: 0x54FFC, symSize: 0x124 }
  - { offsetInCU: 0x1CCA3, offset: 0x3FD0C9, size: 0x8, addend: 0x0, symName: __ZN3sdc20BarcodeCountSettings5cloneENSt3__110shared_ptrIS0_EE, symObjAddr: 0x1830, symBinAddr: 0x55120, symSize: 0x2A8 }
  - { offsetInCU: 0x1DB21, offset: 0x3FDF47, size: 0x8, addend: 0x0, symName: '-[SDCBarcodeCountSettings .cxx_destruct]', symObjAddr: 0x1AD8, symBinAddr: 0x553C8, symSize: 0xE4 }
  - { offsetInCU: 0x1DE37, offset: 0x3FE25D, size: 0x8, addend: 0x0, symName: '-[SDCBarcodeCountSettings .cxx_construct]', symObjAddr: 0x1BBC, symBinAddr: 0x554AC, symSize: 0x48 }
  - { offsetInCU: 0x1DFBC, offset: 0x3FE3E2, size: 0x8, addend: 0x0, symName: __ZNSt3__120__shared_ptr_emplaceIN3sdc20BarcodeCountSettingsENS_9allocatorIS2_EEED1Ev, symObjAddr: 0x1C2C, symBinAddr: 0x554F4, symSize: 0x10 }
  - { offsetInCU: 0x1DFE0, offset: 0x3FE406, size: 0x8, addend: 0x0, symName: __ZNSt3__120__shared_ptr_emplaceIN3sdc20BarcodeCountSettingsENS_9allocatorIS2_EEED1Ev, symObjAddr: 0x1C2C, symBinAddr: 0x554F4, symSize: 0x10 }
  - { offsetInCU: 0x1E019, offset: 0x3FE43F, size: 0x8, addend: 0x0, symName: __ZNSt3__120__shared_ptr_emplaceIN3sdc20BarcodeCountSettingsENS_9allocatorIS2_EEED0Ev, symObjAddr: 0x1C3C, symBinAddr: 0x55504, symSize: 0x20 }
  - { offsetInCU: 0x1E0D7, offset: 0x3FE4FD, size: 0x8, addend: 0x0, symName: __ZNSt3__120__shared_ptr_emplaceIN3sdc20BarcodeCountSettingsENS_9allocatorIS2_EEE16__on_zero_sharedEv, symObjAddr: 0x1C5C, symBinAddr: 0x55524, symSize: 0xD8 }
  - { offsetInCU: 0x1E30F, offset: 0x3FE735, size: 0x8, addend: 0x0, symName: __ZNSt3__120__shared_ptr_emplaceIN3sdc20BarcodeCountSettingsENS_9allocatorIS2_EEE21__on_zero_shared_weakEv, symObjAddr: 0x1D34, symBinAddr: 0x555FC, symSize: 0x4 }
  - { offsetInCU: 0x1E344, offset: 0x3FE76A, size: 0x8, addend: 0x0, symName: __ZNSt3__120__shared_ptr_emplaceIN3sdc20BarcodeCountSettingsENS_9allocatorIS2_EEE21__on_zero_shared_weakEv, symObjAddr: 0x1D34, symBinAddr: 0x555FC, symSize: 0x4 }
  - { offsetInCU: 0x1E369, offset: 0x3FE78F, size: 0x8, addend: 0x0, symName: __ZNSt3__120__shared_ptr_emplaceIN3sdc20BarcodeCountSettingsENS_9allocatorIS2_EEE21__on_zero_shared_weakEv, symObjAddr: 0x1D34, symBinAddr: 0x555FC, symSize: 0x4 }
  - { offsetInCU: 0x1E38E, offset: 0x3FE7B4, size: 0x8, addend: 0x0, symName: __ZNSt3__120__shared_ptr_emplaceIN3sdc20BarcodeCountSettingsENS_9allocatorIS2_EEE21__on_zero_shared_weakEv, symObjAddr: 0x1D34, symBinAddr: 0x555FC, symSize: 0x4 }
  - { offsetInCU: 0x1E3BE, offset: 0x3FE7E4, size: 0x8, addend: 0x0, symName: __ZNSt3__120__shared_ptr_emplaceIN3sdc20BarcodeCountSettingsENS_9allocatorIS2_EEE21__on_zero_shared_weakEv, symObjAddr: 0x1D34, symBinAddr: 0x555FC, symSize: 0x4 }
  - { offsetInCU: 0x1E3E8, offset: 0x3FE80E, size: 0x8, addend: 0x0, symName: __ZNSt3__120__shared_ptr_emplaceIN3sdc20BarcodeCountSettingsENS_9allocatorIS2_EEE21__on_zero_shared_weakEv, symObjAddr: 0x1D34, symBinAddr: 0x555FC, symSize: 0x4 }
  - { offsetInCU: 0x1EADC, offset: 0x3FEF02, size: 0x8, addend: 0x0, symName: __ZN6djinni18get_cpp_proxy_implI24SDCBarcodeFilterSettingsN3sdc21BarcodeFilterSettingsEEEPT_RKNSt3__110shared_ptrIT0_EE, symObjAddr: 0x24B8, symBinAddr: 0x55600, symSize: 0xE8 }
  - { offsetInCU: 0x1ED1F, offset: 0x3FF145, size: 0x8, addend: 0x0, symName: __ZZN6djinni18get_cpp_proxy_implI24SDCBarcodeFilterSettingsN3sdc21BarcodeFilterSettingsEEEPT_RKNSt3__110shared_ptrIT0_EEENUlRKNS7_IvEEE_8__invokeESE_, symObjAddr: 0x25A0, symBinAddr: 0x556E8, symSize: 0xE0 }
  - { offsetInCU: 0x1EFD1, offset: 0x3FF3F7, size: 0x8, addend: 0x0, symName: __ZZN6djinni18get_cpp_proxy_implI24SDCBarcodeFilterSettingsN3sdc21BarcodeFilterSettingsEEEPT_RKNSt3__110shared_ptrIT0_EEENUlRKNS7_IvEEE_8__invokeESE_.cold.1, symObjAddr: 0x2878, symBinAddr: 0x27210C, symSize: 0x30 }
  - { offsetInCU: 0x1F088, offset: 0x3FF4AE, size: 0x8, addend: 0x0, symName: _OUTLINED_FUNCTION_0, symObjAddr: 0x28D8, symBinAddr: 0x557C8, symSize: 0x10 }
  - { offsetInCU: 0x1F0A0, offset: 0x3FF4C6, size: 0x8, addend: 0x0, symName: _OUTLINED_FUNCTION_1, symObjAddr: 0x28E8, symBinAddr: 0x557D8, symSize: 0x10 }
  - { offsetInCU: 0x1F0B8, offset: 0x3FF4DE, size: 0x8, addend: 0x0, symName: _OUTLINED_FUNCTION_2, symObjAddr: 0x28F8, symBinAddr: 0x557E8, symSize: 0x8 }
  - { offsetInCU: 0x1F0D0, offset: 0x3FF4F6, size: 0x8, addend: 0x0, symName: _OUTLINED_FUNCTION_3, symObjAddr: 0x2900, symBinAddr: 0x557F0, symSize: 0x8 }
  - { offsetInCU: 0x27, offset: 0x3FF60E, size: 0x8, addend: 0x0, symName: _SDCBarcodeCountStatusToString, symObjAddr: 0x0, symBinAddr: 0x557F8, symSize: 0xA4 }
  - { offsetInCU: 0x50B9, offset: 0x4046A0, size: 0x8, addend: 0x0, symName: _SDCBarcodeCountStatusToString, symObjAddr: 0x0, symBinAddr: 0x557F8, symSize: 0xA4 }
  - { offsetInCU: 0x57EA, offset: 0x404DD1, size: 0x8, addend: 0x0, symName: _SDCBarcodeCountStatusFromString, symObjAddr: 0xA4, symBinAddr: 0x5589C, symSize: 0xFC }
  - { offsetInCU: 0x5DD8, offset: 0x4053BF, size: 0x8, addend: 0x0, symName: __ZN3bar6resultIN3sdc18BarcodeCountStatusENSt3__112basic_stringIcNS3_11char_traitsIcEENS3_9allocatorIcEEEEE14value_or_throwEv, symObjAddr: 0x1A0, symBinAddr: 0x55998, symSize: 0x108 }
  - { offsetInCU: 0x6449, offset: 0x405A30, size: 0x8, addend: 0x0, symName: __ZNK3bar6resultIN3sdc18BarcodeCountStatusENSt3__112basic_stringIcNS3_11char_traitsIcEENS3_9allocatorIcEEEEE5errorEv, symObjAddr: 0x348, symBinAddr: 0x55AA0, symSize: 0x12C }
  - { offsetInCU: 0x6462, offset: 0x405A49, size: 0x8, addend: 0x0, symName: __ZNK3bar6resultIN3sdc18BarcodeCountStatusENSt3__112basic_stringIcNS3_11char_traitsIcEENS3_9allocatorIcEEEEE5errorEv, symObjAddr: 0x348, symBinAddr: 0x55AA0, symSize: 0x12C }
  - { offsetInCU: 0x27, offset: 0x406336, size: 0x8, addend: 0x0, symName: '-[SDCBarcodeCountStatusAbortResult initWithErrorMessage:]', symObjAddr: 0x0, symBinAddr: 0x55BCC, symSize: 0x1E0 }
  - { offsetInCU: 0xC7BE, offset: 0x412ACD, size: 0x8, addend: 0x0, symName: '-[SDCBarcodeCountStatusAbortResult initWithErrorMessage:]', symObjAddr: 0x0, symBinAddr: 0x55BCC, symSize: 0x1E0 }
  - { offsetInCU: 0xD18D, offset: 0x41349C, size: 0x8, addend: 0x0, symName: __ZNSt3__110shared_ptrIN3sdc24BarcodeCountStatusResultEED1B8ue170006Ev, symObjAddr: 0x1E0, symBinAddr: 0x55DAC, symSize: 0x68 }
  - { offsetInCU: 0x27, offset: 0x413566, size: 0x8, addend: 0x0, symName: '-[SDCBarcodeCountStatusErrorResult initWithStatusList:errorMessage:statusModeDisabledMessage:]', symObjAddr: 0x0, symBinAddr: 0x55E14, symSize: 0x360 }
  - { offsetInCU: 0x8C4A, offset: 0x41C189, size: 0x8, addend: 0x0, symName: __ZN3sdc4core20cppVectorWithNSArrayINSt3__110shared_ptrINS_22BarcodeCountStatusItemEEEU8__strongU13block_pointerFS5_P25SDCBarcodeCountStatusItemEEENS2_6vectorIT_NS2_9allocatorISC_EEEEP7NSArrayOT0_, symObjAddr: 0x360, symBinAddr: 0x56174, symSize: 0x218 }
  - { offsetInCU: 0xD77D, offset: 0x420CBC, size: 0x8, addend: 0x0, symName: '-[SDCBarcodeCountStatusErrorResult initWithStatusList:errorMessage:statusModeDisabledMessage:]', symObjAddr: 0x0, symBinAddr: 0x55E14, symSize: 0x360 }
  - { offsetInCU: 0xEB93, offset: 0x4220D2, size: 0x8, addend: 0x0, symName: __ZNSt3__16vectorINS_10shared_ptrIN3sdc22BarcodeCountStatusItemEEENS_9allocatorIS4_EEED1B8ue170006Ev, symObjAddr: 0x644, symBinAddr: 0x563F0, symSize: 0x98 }
  - { offsetInCU: 0xEFA3, offset: 0x4224E2, size: 0x8, addend: 0x0, symName: __ZNSt3__16vectorINS_10shared_ptrIN3sdc22BarcodeCountStatusItemEEENS_9allocatorIS4_EEE7reserveEm, symObjAddr: 0x6DC, symBinAddr: 0x56488, symSize: 0x110 }
  - { offsetInCU: 0xF449, offset: 0x422988, size: 0x8, addend: 0x0, symName: __ZNSt3__110shared_ptrIN3sdc22BarcodeCountStatusItemEED1B8ue170006Ev, symObjAddr: 0x7EC, symBinAddr: 0x56598, symSize: 0x68 }
  - { offsetInCU: 0xF45D, offset: 0x42299C, size: 0x8, addend: 0x0, symName: __ZNSt3__16vectorINS_10shared_ptrIN3sdc22BarcodeCountStatusItemEEENS_9allocatorIS4_EEE24__emplace_back_slow_pathIJS4_EEEvDpOT_, symObjAddr: 0x904, symBinAddr: 0x56614, symSize: 0x160 }
  - { offsetInCU: 0xFA2C, offset: 0x422F6B, size: 0x8, addend: 0x0, symName: __ZNSt3__110shared_ptrIN3sdc22BarcodeCountStatusItemEED1B8ue170006Ev, symObjAddr: 0x7EC, symBinAddr: 0x56598, symSize: 0x68 }
  - { offsetInCU: 0xFB19, offset: 0x423058, size: 0x8, addend: 0x0, symName: '___94-[SDCBarcodeCountStatusErrorResult initWithStatusList:errorMessage:statusModeDisabledMessage:]_block_invoke', symObjAddr: 0x578, symBinAddr: 0x5638C, symSize: 0x64 }
  - { offsetInCU: 0xFDA9, offset: 0x4232E8, size: 0x8, addend: 0x0, symName: __ZNKSt3__16vectorINS_10shared_ptrIN3sdc22BarcodeCountStatusItemEEENS_9allocatorIS4_EEE20__throw_length_errorB8ue170006Ev, symObjAddr: 0x854, symBinAddr: 0x56600, symSize: 0x14 }
  - { offsetInCU: 0x1340B, offset: 0x43691B, size: 0x8, addend: 0x0, symName: '-[SDCBarcodeCountStatusItem initWithBarcode:status:]', symObjAddr: 0x0, symBinAddr: 0x56774, symSize: 0x220 }
  - { offsetInCU: 0x13C0A, offset: 0x43711A, size: 0x8, addend: 0x0, symName: '-[SDCBarcodeCountStatusItem initWithCpp:]', symObjAddr: 0x2F0, symBinAddr: 0x56994, symSize: 0xD0 }
  - { offsetInCU: 0x13E56, offset: 0x437366, size: 0x8, addend: 0x0, symName: '-[SDCBarcodeCountStatusItem cppImpl]', symObjAddr: 0x3C0, symBinAddr: 0x56A64, symSize: 0x8 }
  - { offsetInCU: 0x13E90, offset: 0x4373A0, size: 0x8, addend: 0x0, symName: '-[SDCBarcodeCountStatusItem cppImpl]', symObjAddr: 0x3C0, symBinAddr: 0x56A64, symSize: 0x8 }
  - { offsetInCU: 0x13F18, offset: 0x437428, size: 0x8, addend: 0x0, symName: '-[SDCBarcodeCountStatusItem typeErasedCppImpl]', symObjAddr: 0x3C8, symBinAddr: 0x56A6C, symSize: 0x24 }
  - { offsetInCU: 0x13F50, offset: 0x437460, size: 0x8, addend: 0x0, symName: '-[SDCBarcodeCountStatusItem typeErasedCppImpl]', symObjAddr: 0x3C8, symBinAddr: 0x56A6C, symSize: 0x24 }
  - { offsetInCU: 0x13F79, offset: 0x437489, size: 0x8, addend: 0x0, symName: '-[SDCBarcodeCountStatusItem typeErasedCppImpl]', symObjAddr: 0x3C8, symBinAddr: 0x56A6C, symSize: 0x24 }
  - { offsetInCU: 0x1401C, offset: 0x43752C, size: 0x8, addend: 0x0, symName: '-[SDCBarcodeCountStatusItem status]', symObjAddr: 0x3EC, symBinAddr: 0x56A90, symSize: 0x58 }
  - { offsetInCU: 0x140A4, offset: 0x4375B4, size: 0x8, addend: 0x0, symName: '-[SDCBarcodeCountStatusItem barcode]', symObjAddr: 0x444, symBinAddr: 0x56AE8, symSize: 0xBC }
  - { offsetInCU: 0x142F0, offset: 0x437800, size: 0x8, addend: 0x0, symName: '-[SDCBarcodeCountStatusItem .cxx_destruct]', symObjAddr: 0x500, symBinAddr: 0x56BA4, symSize: 0xE4 }
  - { offsetInCU: 0x14606, offset: 0x437B16, size: 0x8, addend: 0x0, symName: '-[SDCBarcodeCountStatusItem .cxx_construct]', symObjAddr: 0x5E4, symBinAddr: 0x56C88, symSize: 0x48 }
  - { offsetInCU: 0x1478B, offset: 0x437C9B, size: 0x8, addend: 0x0, symName: __ZNSt3__120__shared_ptr_emplaceIN3sdc22BarcodeCountStatusItemENS_9allocatorIS2_EEED1Ev, symObjAddr: 0x62C, symBinAddr: 0x56CD0, symSize: 0x10 }
  - { offsetInCU: 0x147AF, offset: 0x437CBF, size: 0x8, addend: 0x0, symName: __ZNSt3__120__shared_ptr_emplaceIN3sdc22BarcodeCountStatusItemENS_9allocatorIS2_EEED1Ev, symObjAddr: 0x62C, symBinAddr: 0x56CD0, symSize: 0x10 }
  - { offsetInCU: 0x147E8, offset: 0x437CF8, size: 0x8, addend: 0x0, symName: __ZNSt3__120__shared_ptr_emplaceIN3sdc22BarcodeCountStatusItemENS_9allocatorIS2_EEED0Ev, symObjAddr: 0x63C, symBinAddr: 0x56CE0, symSize: 0x20 }
  - { offsetInCU: 0x1488A, offset: 0x437D9A, size: 0x8, addend: 0x0, symName: __ZNSt3__120__shared_ptr_emplaceIN3sdc22BarcodeCountStatusItemENS_9allocatorIS2_EEE16__on_zero_sharedEv, symObjAddr: 0x65C, symBinAddr: 0x56D00, symSize: 0x58 }
  - { offsetInCU: 0x14976, offset: 0x437E86, size: 0x8, addend: 0x0, symName: __ZNSt3__120__shared_ptr_emplaceIN3sdc22BarcodeCountStatusItemENS_9allocatorIS2_EEE21__on_zero_shared_weakEv, symObjAddr: 0x6B4, symBinAddr: 0x56D58, symSize: 0x4 }
  - { offsetInCU: 0x149AB, offset: 0x437EBB, size: 0x8, addend: 0x0, symName: __ZNSt3__120__shared_ptr_emplaceIN3sdc22BarcodeCountStatusItemENS_9allocatorIS2_EEE21__on_zero_shared_weakEv, symObjAddr: 0x6B4, symBinAddr: 0x56D58, symSize: 0x4 }
  - { offsetInCU: 0x149D0, offset: 0x437EE0, size: 0x8, addend: 0x0, symName: __ZNSt3__120__shared_ptr_emplaceIN3sdc22BarcodeCountStatusItemENS_9allocatorIS2_EEE21__on_zero_shared_weakEv, symObjAddr: 0x6B4, symBinAddr: 0x56D58, symSize: 0x4 }
  - { offsetInCU: 0x149F5, offset: 0x437F05, size: 0x8, addend: 0x0, symName: __ZNSt3__120__shared_ptr_emplaceIN3sdc22BarcodeCountStatusItemENS_9allocatorIS2_EEE21__on_zero_shared_weakEv, symObjAddr: 0x6B4, symBinAddr: 0x56D58, symSize: 0x4 }
  - { offsetInCU: 0x14A25, offset: 0x437F35, size: 0x8, addend: 0x0, symName: __ZNSt3__120__shared_ptr_emplaceIN3sdc22BarcodeCountStatusItemENS_9allocatorIS2_EEE21__on_zero_shared_weakEv, symObjAddr: 0x6B4, symBinAddr: 0x56D58, symSize: 0x4 }
  - { offsetInCU: 0x14A4F, offset: 0x437F5F, size: 0x8, addend: 0x0, symName: __ZNSt3__120__shared_ptr_emplaceIN3sdc22BarcodeCountStatusItemENS_9allocatorIS2_EEE21__on_zero_shared_weakEv, symObjAddr: 0x6B4, symBinAddr: 0x56D58, symSize: 0x4 }
  - { offsetInCU: 0x27, offset: 0x4380CF, size: 0x8, addend: 0x0, symName: '-[SDCBarcodeCountStatusModeHighlight initWithStatus:]', symObjAddr: 0x0, symBinAddr: 0x56D5C, symSize: 0x754 }
  - { offsetInCU: 0x25E, offset: 0x438306, size: 0x8, addend: 0x0, symName: '-[SDCBarcodeCountStatusModeHighlight initWithStatus:]', symObjAddr: 0x0, symBinAddr: 0x56D5C, symSize: 0x754 }
  - { offsetInCU: 0x2A1, offset: 0x438349, size: 0x8, addend: 0x0, symName: '-[SDCBarcodeCountStatusModeHighlight willMoveToSuperview:]', symObjAddr: 0x754, symBinAddr: 0x574B0, symSize: 0xA4 }
  - { offsetInCU: 0x2E4, offset: 0x43838C, size: 0x8, addend: 0x0, symName: '-[SDCBarcodeCountStatusModeHighlight layoutSubviews]', symObjAddr: 0x7F8, symBinAddr: 0x57554, symSize: 0x170 }
  - { offsetInCU: 0x317, offset: 0x4383BF, size: 0x8, addend: 0x0, symName: '-[SDCBarcodeCountStatusModeHighlight setStatus:]', symObjAddr: 0x968, symBinAddr: 0x576C4, symSize: 0x20 }
  - { offsetInCU: 0x356, offset: 0x4383FE, size: 0x8, addend: 0x0, symName: '-[SDCBarcodeCountStatusModeHighlight updateStatus]', symObjAddr: 0x988, symBinAddr: 0x576E4, symSize: 0xE0 }
  - { offsetInCU: 0x389, offset: 0x438431, size: 0x8, addend: 0x0, symName: '-[SDCBarcodeCountStatusModeHighlight switchToNoStatus]', symObjAddr: 0xA68, symBinAddr: 0x577C4, symSize: 0x74 }
  - { offsetInCU: 0x3BC, offset: 0x438464, size: 0x8, addend: 0x0, symName: '-[SDCBarcodeCountStatusModeHighlight switchToImageNamed:]', symObjAddr: 0xADC, symBinAddr: 0x57838, symSize: 0x130 }
  - { offsetInCU: 0x3FF, offset: 0x4384A7, size: 0x8, addend: 0x0, symName: '-[SDCBarcodeCountStatusModeHighlight status]', symObjAddr: 0xC0C, symBinAddr: 0x57968, symSize: 0x10 }
  - { offsetInCU: 0x436, offset: 0x4384DE, size: 0x8, addend: 0x0, symName: '-[SDCBarcodeCountStatusModeHighlight imageView]', symObjAddr: 0xC1C, symBinAddr: 0x57978, symSize: 0x10 }
  - { offsetInCU: 0x46D, offset: 0x438515, size: 0x8, addend: 0x0, symName: '-[SDCBarcodeCountStatusModeHighlight setImageView:]', symObjAddr: 0xC2C, symBinAddr: 0x57988, symSize: 0x14 }
  - { offsetInCU: 0x4AE, offset: 0x438556, size: 0x8, addend: 0x0, symName: '-[SDCBarcodeCountStatusModeHighlight imageShadowLayer]', symObjAddr: 0xC40, symBinAddr: 0x5799C, symSize: 0x10 }
  - { offsetInCU: 0x4E5, offset: 0x43858D, size: 0x8, addend: 0x0, symName: '-[SDCBarcodeCountStatusModeHighlight setImageShadowLayer:]', symObjAddr: 0xC50, symBinAddr: 0x579AC, symSize: 0x14 }
  - { offsetInCU: 0x526, offset: 0x4385CE, size: 0x8, addend: 0x0, symName: '-[SDCBarcodeCountStatusModeHighlight whiteDotView]', symObjAddr: 0xC64, symBinAddr: 0x579C0, symSize: 0x10 }
  - { offsetInCU: 0x55D, offset: 0x438605, size: 0x8, addend: 0x0, symName: '-[SDCBarcodeCountStatusModeHighlight setWhiteDotView:]', symObjAddr: 0xC74, symBinAddr: 0x579D0, symSize: 0x14 }
  - { offsetInCU: 0x59E, offset: 0x438646, size: 0x8, addend: 0x0, symName: '-[SDCBarcodeCountStatusModeHighlight whiteDotShadowLayer]', symObjAddr: 0xC88, symBinAddr: 0x579E4, symSize: 0x10 }
  - { offsetInCU: 0x5D5, offset: 0x43867D, size: 0x8, addend: 0x0, symName: '-[SDCBarcodeCountStatusModeHighlight setWhiteDotShadowLayer:]', symObjAddr: 0xC98, symBinAddr: 0x579F4, symSize: 0x14 }
  - { offsetInCU: 0x616, offset: 0x4386BE, size: 0x8, addend: 0x0, symName: '-[SDCBarcodeCountStatusModeHighlight .cxx_destruct]', symObjAddr: 0xCAC, symBinAddr: 0x57A08, symSize: 0x68 }
  - { offsetInCU: 0x27, offset: 0x438722, size: 0x8, addend: 0x0, symName: '-[SDCTrackedBarcode(DataMatching) dataMatchesBarcode:]', symObjAddr: 0x0, symBinAddr: 0x57A70, symSize: 0x18C }
  - { offsetInCU: 0xA72E, offset: 0x442E29, size: 0x8, addend: 0x0, symName: '-[SDCTrackedBarcode(DataMatching) dataMatchesBarcode:]', symObjAddr: 0x0, symBinAddr: 0x57A70, symSize: 0x18C }
  - { offsetInCU: 0xA775, offset: 0x442E70, size: 0x8, addend: 0x0, symName: '-[SDCBarcodeCountStatusModeHighlightHandler initWithView:]', symObjAddr: 0x18C, symBinAddr: 0x57BFC, symSize: 0xB4 }
  - { offsetInCU: 0xA7BC, offset: 0x442EB7, size: 0x8, addend: 0x0, symName: '-[SDCBarcodeCountStatusModeHighlightHandler setStatusItems:]', symObjAddr: 0x240, symBinAddr: 0x57CB0, symSize: 0xF8 }
  - { offsetInCU: 0xA7FF, offset: 0x442EFA, size: 0x8, addend: 0x0, symName: '___60-[SDCBarcodeCountStatusModeHighlightHandler setStatusItems:]_block_invoke', symObjAddr: 0x338, symBinAddr: 0x57DA8, symSize: 0xC }
  - { offsetInCU: 0xA84E, offset: 0x442F49, size: 0x8, addend: 0x0, symName: '-[SDCBarcodeCountStatusModeHighlightHandler addOrUpdateHighlightForBarcode:]', symObjAddr: 0x354, symBinAddr: 0x57DB4, symSize: 0x298 }
  - { offsetInCU: 0xA8D8, offset: 0x442FD3, size: 0x8, addend: 0x0, symName: '-[SDCBarcodeCountStatusModeHighlightHandler updateStatusForHighlightData:]', symObjAddr: 0x5EC, symBinAddr: 0x5804C, symSize: 0x1EC }
  - { offsetInCU: 0xA961, offset: 0x44305C, size: 0x8, addend: 0x0, symName: '-[SDCBarcodeCountStatusModeHighlightHandler colorSchemeUpdated]', symObjAddr: 0x7D8, symBinAddr: 0x58238, symSize: 0x4 }
  - { offsetInCU: 0xA990, offset: 0x44308B, size: 0x8, addend: 0x0, symName: '-[SDCBarcodeCountStatusModeHighlightHandler highlightAtPoint:]', symObjAddr: 0x7DC, symBinAddr: 0x5823C, symSize: 0x170 }
  - { offsetInCU: 0xAA01, offset: 0x4430FC, size: 0x8, addend: 0x0, symName: ___Block_byref_object_copy_, symObjAddr: 0x94C, symBinAddr: 0x583AC, symSize: 0x10 }
  - { offsetInCU: 0xAA26, offset: 0x443121, size: 0x8, addend: 0x0, symName: ___Block_byref_object_dispose_, symObjAddr: 0x95C, symBinAddr: 0x583BC, symSize: 0x8 }
  - { offsetInCU: 0xAA45, offset: 0x443140, size: 0x8, addend: 0x0, symName: '___62-[SDCBarcodeCountStatusModeHighlightHandler highlightAtPoint:]_block_invoke', symObjAddr: 0x964, symBinAddr: 0x583C4, symSize: 0x104 }
  - { offsetInCU: 0xAB55, offset: 0x443250, size: 0x8, addend: 0x0, symName: '-[SDCBarcodeCountStatusModeHighlightHandler removeAllHighlights]', symObjAddr: 0xAD4, symBinAddr: 0x584C8, symSize: 0x88 }
  - { offsetInCU: 0xAB88, offset: 0x443283, size: 0x8, addend: 0x0, symName: '___64-[SDCBarcodeCountStatusModeHighlightHandler removeAllHighlights]_block_invoke', symObjAddr: 0xB5C, symBinAddr: 0x58550, symSize: 0x48 }
  - { offsetInCU: 0xABBF, offset: 0x4432BA, size: 0x8, addend: 0x0, symName: '-[SDCBarcodeCountStatusModeHighlightHandler setDataCaptureView:]', symObjAddr: 0xBA4, symBinAddr: 0x58598, symSize: 0x4 }
  - { offsetInCU: 0xAD05, offset: 0x443400, size: 0x8, addend: 0x0, symName: '-[SDCBarcodeCountStatusModeHighlightHandler updateWithAddedRecognizedBarcodes:updatedRecognizedBarcodes:removedRecognizedBarcodes:unrecognizedBarcodes:filteredTrackedBarcodes:]', symObjAddr: 0xBA8, symBinAddr: 0x5859C, symSize: 0x2E0 }
  - { offsetInCU: 0xB19F, offset: 0x44389A, size: 0x8, addend: 0x0, symName: '-[SDCBarcodeCountStatusModeHighlightHandler updateWithWrongBarcodes:acceptedBarcodes:rejectedBarcodes:]', symObjAddr: 0xF28, symBinAddr: 0x5887C, symSize: 0x4 }
  - { offsetInCU: 0xB3C3, offset: 0x443ABE, size: 0x8, addend: 0x0, symName: '-[SDCBarcodeCountStatusModeHighlightHandler updateWithWrongBarcodes:acceptedBarcodes:rejectedBarcodes:]', symObjAddr: 0xF28, symBinAddr: 0x5887C, symSize: 0x4 }
  - { offsetInCU: 0xB416, offset: 0x443B11, size: 0x8, addend: 0x0, symName: '-[SDCBarcodeCountStatusModeHighlightHandler statusItems]', symObjAddr: 0xF2C, symBinAddr: 0x58880, symSize: 0x10 }
  - { offsetInCU: 0xB44D, offset: 0x443B48, size: 0x8, addend: 0x0, symName: '-[SDCBarcodeCountStatusModeHighlightHandler view]', symObjAddr: 0xF3C, symBinAddr: 0x58890, symSize: 0x20 }
  - { offsetInCU: 0xB484, offset: 0x443B7F, size: 0x8, addend: 0x0, symName: '-[SDCBarcodeCountStatusModeHighlightHandler setView:]', symObjAddr: 0xF5C, symBinAddr: 0x588B0, symSize: 0x14 }
  - { offsetInCU: 0xB4C5, offset: 0x443BC0, size: 0x8, addend: 0x0, symName: '-[SDCBarcodeCountStatusModeHighlightHandler .cxx_destruct]', symObjAddr: 0xF70, symBinAddr: 0x588C4, symSize: 0x3C }
  - { offsetInCU: 0x27, offset: 0x443EB3, size: 0x8, addend: 0x0, symName: '-[SDCBarcodeCountStatusProviderCallback initWithCpp:]', symObjAddr: 0x0, symBinAddr: 0x58900, symSize: 0xD0 }
  - { offsetInCU: 0x35B0, offset: 0x44743C, size: 0x8, addend: 0x0, symName: '-[SDCBarcodeCountStatusProviderCallback initWithCpp:]', symObjAddr: 0x0, symBinAddr: 0x58900, symSize: 0xD0 }
  - { offsetInCU: 0x37FC, offset: 0x447688, size: 0x8, addend: 0x0, symName: '-[SDCBarcodeCountStatusProviderCallback cppImpl]', symObjAddr: 0xD0, symBinAddr: 0x589D0, symSize: 0x8 }
  - { offsetInCU: 0x3836, offset: 0x4476C2, size: 0x8, addend: 0x0, symName: '-[SDCBarcodeCountStatusProviderCallback cppImpl]', symObjAddr: 0xD0, symBinAddr: 0x589D0, symSize: 0x8 }
  - { offsetInCU: 0x38BE, offset: 0x44774A, size: 0x8, addend: 0x0, symName: '-[SDCBarcodeCountStatusProviderCallback typeErasedCppImpl]', symObjAddr: 0xD8, symBinAddr: 0x589D8, symSize: 0x24 }
  - { offsetInCU: 0x38F6, offset: 0x447782, size: 0x8, addend: 0x0, symName: '-[SDCBarcodeCountStatusProviderCallback typeErasedCppImpl]', symObjAddr: 0xD8, symBinAddr: 0x589D8, symSize: 0x24 }
  - { offsetInCU: 0x391F, offset: 0x4477AB, size: 0x8, addend: 0x0, symName: '-[SDCBarcodeCountStatusProviderCallback typeErasedCppImpl]', symObjAddr: 0xD8, symBinAddr: 0x589D8, symSize: 0x24 }
  - { offsetInCU: 0x39C2, offset: 0x44784E, size: 0x8, addend: 0x0, symName: '-[SDCBarcodeCountStatusProviderCallback onStatusReady:]', symObjAddr: 0xFC, symBinAddr: 0x589FC, symSize: 0x54 }
  - { offsetInCU: 0x3B0F, offset: 0x44799B, size: 0x8, addend: 0x0, symName: '-[SDCBarcodeCountStatusProviderCallback .cxx_destruct]', symObjAddr: 0x150, symBinAddr: 0x58A50, symSize: 0xE4 }
  - { offsetInCU: 0x3E25, offset: 0x447CB1, size: 0x8, addend: 0x0, symName: '-[SDCBarcodeCountStatusProviderCallback .cxx_construct]', symObjAddr: 0x234, symBinAddr: 0x58B34, symSize: 0x48 }
  - { offsetInCU: 0x27, offset: 0x447E5A, size: 0x8, addend: 0x0, symName: '-[SDCBarcodeCountStatusResult initWithCpp:]', symObjAddr: 0x0, symBinAddr: 0x58B7C, symSize: 0xD0 }
  - { offsetInCU: 0xC318, offset: 0x45414B, size: 0x8, addend: 0x0, symName: '-[SDCBarcodeCountStatusResult initWithCpp:]', symObjAddr: 0x0, symBinAddr: 0x58B7C, symSize: 0xD0 }
  - { offsetInCU: 0xC564, offset: 0x454397, size: 0x8, addend: 0x0, symName: '-[SDCBarcodeCountStatusResult cppImpl]', symObjAddr: 0xD0, symBinAddr: 0x58C4C, symSize: 0x8 }
  - { offsetInCU: 0xC59E, offset: 0x4543D1, size: 0x8, addend: 0x0, symName: '-[SDCBarcodeCountStatusResult cppImpl]', symObjAddr: 0xD0, symBinAddr: 0x58C4C, symSize: 0x8 }
  - { offsetInCU: 0xC626, offset: 0x454459, size: 0x8, addend: 0x0, symName: '-[SDCBarcodeCountStatusResult typeErasedCppImpl]', symObjAddr: 0xD8, symBinAddr: 0x58C54, symSize: 0x24 }
  - { offsetInCU: 0xC65E, offset: 0x454491, size: 0x8, addend: 0x0, symName: '-[SDCBarcodeCountStatusResult typeErasedCppImpl]', symObjAddr: 0xD8, symBinAddr: 0x58C54, symSize: 0x24 }
  - { offsetInCU: 0xC687, offset: 0x4544BA, size: 0x8, addend: 0x0, symName: '-[SDCBarcodeCountStatusResult typeErasedCppImpl]', symObjAddr: 0xD8, symBinAddr: 0x58C54, symSize: 0x24 }
  - { offsetInCU: 0xC7FE, offset: 0x454631, size: 0x8, addend: 0x0, symName: '-[SDCBarcodeCountStatusResult .cxx_destruct]', symObjAddr: 0xFC, symBinAddr: 0x58C78, symSize: 0xE4 }
  - { offsetInCU: 0xCB14, offset: 0x454947, size: 0x8, addend: 0x0, symName: '-[SDCBarcodeCountStatusResult .cxx_construct]', symObjAddr: 0x1E0, symBinAddr: 0x58D5C, symSize: 0x48 }
  - { offsetInCU: 0x27, offset: 0x454AEA, size: 0x8, addend: 0x0, symName: '-[SDCBarcodeCountStatusSuccessResult initWithStatusList:statusModeEnabledMessage:statusModeDisabledMessage:]', symObjAddr: 0x0, symBinAddr: 0x58DA4, symSize: 0x360 }
  - { offsetInCU: 0x13DC0, offset: 0x468883, size: 0x8, addend: 0x0, symName: '-[SDCBarcodeCountStatusSuccessResult initWithStatusList:statusModeEnabledMessage:statusModeDisabledMessage:]', symObjAddr: 0x0, symBinAddr: 0x58DA4, symSize: 0x360 }
  - { offsetInCU: 0x15C2C, offset: 0x46A6EF, size: 0x8, addend: 0x0, symName: '___108-[SDCBarcodeCountStatusSuccessResult initWithStatusList:statusModeEnabledMessage:statusModeDisabledMessage:]_block_invoke', symObjAddr: 0x578, symBinAddr: 0x59104, symSize: 0x64 }
  - { offsetInCU: 0x27, offset: 0x46AB85, size: 0x8, addend: 0x0, symName: '+[SDCBarcodeCountToolbar imageNamed:]', symObjAddr: 0x0, symBinAddr: 0x59168, symSize: 0xB4 }
  - { offsetInCU: 0x5DE, offset: 0x46B13C, size: 0x8, addend: 0x0, symName: '+[SDCBarcodeCountToolbar imageNamed:]', symObjAddr: 0x0, symBinAddr: 0x59168, symSize: 0xB4 }
  - { offsetInCU: 0x62B, offset: 0x46B189, size: 0x8, addend: 0x0, symName: '-[SDCBarcodeCountToolbar initWithFrame:]', symObjAddr: 0xB4, symBinAddr: 0x5921C, symSize: 0x8 }
  - { offsetInCU: 0x66C, offset: 0x46B1CA, size: 0x8, addend: 0x0, symName: '-[SDCBarcodeCountToolbar initWithFrame:topLayoutAnchor:]', symObjAddr: 0xBC, symBinAddr: 0x59224, symSize: 0x1630 }
  - { offsetInCU: 0x7EF, offset: 0x46B34D, size: 0x8, addend: 0x0, symName: '___56-[SDCBarcodeCountToolbar initWithFrame:topLayoutAnchor:]_block_invoke', symObjAddr: 0x16EC, symBinAddr: 0x5A854, symSize: 0x78 }
  - { offsetInCU: 0x83A, offset: 0x46B398, size: 0x8, addend: 0x0, symName: '___56-[SDCBarcodeCountToolbar initWithFrame:topLayoutAnchor:]_block_invoke.22', symObjAddr: 0x1778, symBinAddr: 0x5A8CC, symSize: 0x78 }
  - { offsetInCU: 0x885, offset: 0x46B3E3, size: 0x8, addend: 0x0, symName: '___56-[SDCBarcodeCountToolbar initWithFrame:topLayoutAnchor:]_block_invoke_2', symObjAddr: 0x17F0, symBinAddr: 0x5A944, symSize: 0x78 }
  - { offsetInCU: 0x8D0, offset: 0x46B42E, size: 0x8, addend: 0x0, symName: '___56-[SDCBarcodeCountToolbar initWithFrame:topLayoutAnchor:]_block_invoke_3', symObjAddr: 0x1868, symBinAddr: 0x5A9BC, symSize: 0x78 }
  - { offsetInCU: 0x91B, offset: 0x46B479, size: 0x8, addend: 0x0, symName: '-[SDCBarcodeCountToolbar didMoveToSuperview]', symObjAddr: 0x18E0, symBinAddr: 0x5AA34, symSize: 0xE8 }
  - { offsetInCU: 0x94E, offset: 0x46B4AC, size: 0x8, addend: 0x0, symName: '-[SDCBarcodeCountToolbar setToolbarHiddenDiscloseButtonMargin:]', symObjAddr: 0x19C8, symBinAddr: 0x5AB1C, symSize: 0x60 }
  - { offsetInCU: 0x991, offset: 0x46B4EF, size: 0x8, addend: 0x0, symName: '-[SDCBarcodeCountToolbar setCurrentDiscloseButtonMargin:]', symObjAddr: 0x1A28, symBinAddr: 0x5AB7C, symSize: 0x134 }
  - { offsetInCU: 0x9EB, offset: 0x46B549, size: 0x8, addend: 0x0, symName: '-[SDCBarcodeCountToolbar buttonWithOnImage:offImage:action:]', symObjAddr: 0x1B5C, symBinAddr: 0x5ACB0, symSize: 0x218 }
  - { offsetInCU: 0xA5E, offset: 0x46B5BC, size: 0x8, addend: 0x0, symName: '-[SDCBarcodeCountToolbar setIsDrawerOpen:]', symObjAddr: 0x1D74, symBinAddr: 0x5AEC8, symSize: 0x1A0 }
  - { offsetInCU: 0xABD, offset: 0x46B61B, size: 0x8, addend: 0x0, symName: '___42-[SDCBarcodeCountToolbar setIsDrawerOpen:]_block_invoke', symObjAddr: 0x1F14, symBinAddr: 0x5B068, symSize: 0x80 }
  - { offsetInCU: 0xAFC, offset: 0x46B65A, size: 0x8, addend: 0x0, symName: '___42-[SDCBarcodeCountToolbar setIsDrawerOpen:]_block_invoke.34', symObjAddr: 0x1FA4, symBinAddr: 0x5B0E8, symSize: 0x84 }
  - { offsetInCU: 0xB3E, offset: 0x46B69C, size: 0x8, addend: 0x0, symName: '-[SDCBarcodeCountToolbar didTapDiscloseButton]', symObjAddr: 0x2028, symBinAddr: 0x5B16C, symSize: 0x28 }
  - { offsetInCU: 0xB72, offset: 0x46B6D0, size: 0x8, addend: 0x0, symName: '-[SDCBarcodeCountToolbar setAudioEnabled:]', symObjAddr: 0x2050, symBinAddr: 0x5B194, symSize: 0x4C }
  - { offsetInCU: 0xBB7, offset: 0x46B715, size: 0x8, addend: 0x0, symName: '-[SDCBarcodeCountToolbar audioEnabled]', symObjAddr: 0x209C, symBinAddr: 0x5B1E0, symSize: 0x50 }
  - { offsetInCU: 0xBEF, offset: 0x46B74D, size: 0x8, addend: 0x0, symName: '-[SDCBarcodeCountToolbar setVibrationEnabled:]', symObjAddr: 0x20EC, symBinAddr: 0x5B230, symSize: 0x4C }
  - { offsetInCU: 0xC34, offset: 0x46B792, size: 0x8, addend: 0x0, symName: '-[SDCBarcodeCountToolbar vibrationEnabled]', symObjAddr: 0x2138, symBinAddr: 0x5B27C, symSize: 0x50 }
  - { offsetInCU: 0xC6C, offset: 0x46B7CA, size: 0x8, addend: 0x0, symName: '-[SDCBarcodeCountToolbar setStrapModeEnabled:]', symObjAddr: 0x2188, symBinAddr: 0x5B2CC, symSize: 0x4C }
  - { offsetInCU: 0xCB1, offset: 0x46B80F, size: 0x8, addend: 0x0, symName: '-[SDCBarcodeCountToolbar strapModeEnabled]', symObjAddr: 0x21D4, symBinAddr: 0x5B318, symSize: 0x50 }
  - { offsetInCU: 0xCE9, offset: 0x46B847, size: 0x8, addend: 0x0, symName: '-[SDCBarcodeCountToolbar setColorSchemeEnabled:]', symObjAddr: 0x2224, symBinAddr: 0x5B368, symSize: 0x4C }
  - { offsetInCU: 0xD2E, offset: 0x46B88C, size: 0x8, addend: 0x0, symName: '-[SDCBarcodeCountToolbar colorSchemeEnabled]', symObjAddr: 0x2270, symBinAddr: 0x5B3B4, symSize: 0x50 }
  - { offsetInCU: 0xD66, offset: 0x46B8C4, size: 0x8, addend: 0x0, symName: '-[SDCBarcodeCountToolbar setSettings:]', symObjAddr: 0x22C0, symBinAddr: 0x5B404, symSize: 0x34 }
  - { offsetInCU: 0xDAB, offset: 0x46B909, size: 0x8, addend: 0x0, symName: '-[SDCBarcodeCountToolbar configure]', symObjAddr: 0x22F4, symBinAddr: 0x5B438, symSize: 0x5D0 }
  - { offsetInCU: 0xDDF, offset: 0x46B93D, size: 0x8, addend: 0x0, symName: '-[SDCBarcodeCountToolbar delegate]', symObjAddr: 0x28C4, symBinAddr: 0x5BA08, symSize: 0x20 }
  - { offsetInCU: 0xE16, offset: 0x46B974, size: 0x8, addend: 0x0, symName: '-[SDCBarcodeCountToolbar setDelegate:]', symObjAddr: 0x28E4, symBinAddr: 0x5BA28, symSize: 0x14 }
  - { offsetInCU: 0xE57, offset: 0x46B9B5, size: 0x8, addend: 0x0, symName: '-[SDCBarcodeCountToolbar toolbarHiddenDiscloseButtonMargin]', symObjAddr: 0x28F8, symBinAddr: 0x5BA3C, symSize: 0x10 }
  - { offsetInCU: 0xE8C, offset: 0x46B9EA, size: 0x8, addend: 0x0, symName: '-[SDCBarcodeCountToolbar settings]', symObjAddr: 0x2908, symBinAddr: 0x5BA4C, symSize: 0x10 }
  - { offsetInCU: 0xEC3, offset: 0x46BA21, size: 0x8, addend: 0x0, symName: '-[SDCBarcodeCountToolbar stackViewContainer]', symObjAddr: 0x2918, symBinAddr: 0x5BA5C, symSize: 0x10 }
  - { offsetInCU: 0xEFA, offset: 0x46BA58, size: 0x8, addend: 0x0, symName: '-[SDCBarcodeCountToolbar setStackViewContainer:]', symObjAddr: 0x2928, symBinAddr: 0x5BA6C, symSize: 0x14 }
  - { offsetInCU: 0xF3B, offset: 0x46BA99, size: 0x8, addend: 0x0, symName: '-[SDCBarcodeCountToolbar stackView]', symObjAddr: 0x293C, symBinAddr: 0x5BA80, symSize: 0x10 }
  - { offsetInCU: 0xF72, offset: 0x46BAD0, size: 0x8, addend: 0x0, symName: '-[SDCBarcodeCountToolbar setStackView:]', symObjAddr: 0x294C, symBinAddr: 0x5BA90, symSize: 0x14 }
  - { offsetInCU: 0xFB3, offset: 0x46BB11, size: 0x8, addend: 0x0, symName: '-[SDCBarcodeCountToolbar discloseButton]', symObjAddr: 0x2960, symBinAddr: 0x5BAA4, symSize: 0x10 }
  - { offsetInCU: 0xFEA, offset: 0x46BB48, size: 0x8, addend: 0x0, symName: '-[SDCBarcodeCountToolbar setDiscloseButton:]', symObjAddr: 0x2970, symBinAddr: 0x5BAB4, symSize: 0x14 }
  - { offsetInCU: 0x102B, offset: 0x46BB89, size: 0x8, addend: 0x0, symName: '-[SDCBarcodeCountToolbar audioButton]', symObjAddr: 0x2984, symBinAddr: 0x5BAC8, symSize: 0x10 }
  - { offsetInCU: 0x1062, offset: 0x46BBC0, size: 0x8, addend: 0x0, symName: '-[SDCBarcodeCountToolbar setAudioButton:]', symObjAddr: 0x2994, symBinAddr: 0x5BAD8, symSize: 0x14 }
  - { offsetInCU: 0x10A3, offset: 0x46BC01, size: 0x8, addend: 0x0, symName: '-[SDCBarcodeCountToolbar vibrationButton]', symObjAddr: 0x29A8, symBinAddr: 0x5BAEC, symSize: 0x10 }
  - { offsetInCU: 0x10DA, offset: 0x46BC38, size: 0x8, addend: 0x0, symName: '-[SDCBarcodeCountToolbar setVibrationButton:]', symObjAddr: 0x29B8, symBinAddr: 0x5BAFC, symSize: 0x14 }
  - { offsetInCU: 0x111B, offset: 0x46BC79, size: 0x8, addend: 0x0, symName: '-[SDCBarcodeCountToolbar strapModeButton]', symObjAddr: 0x29CC, symBinAddr: 0x5BB10, symSize: 0x10 }
  - { offsetInCU: 0x1152, offset: 0x46BCB0, size: 0x8, addend: 0x0, symName: '-[SDCBarcodeCountToolbar setStrapModeButton:]', symObjAddr: 0x29DC, symBinAddr: 0x5BB20, symSize: 0x14 }
  - { offsetInCU: 0x1193, offset: 0x46BCF1, size: 0x8, addend: 0x0, symName: '-[SDCBarcodeCountToolbar colorSchemeButton]', symObjAddr: 0x29F0, symBinAddr: 0x5BB34, symSize: 0x10 }
  - { offsetInCU: 0x11CA, offset: 0x46BD28, size: 0x8, addend: 0x0, symName: '-[SDCBarcodeCountToolbar setColorSchemeButton:]', symObjAddr: 0x2A00, symBinAddr: 0x5BB44, symSize: 0x14 }
  - { offsetInCU: 0x120B, offset: 0x46BD69, size: 0x8, addend: 0x0, symName: '-[SDCBarcodeCountToolbar discloseButtonMarginConstraints]', symObjAddr: 0x2A14, symBinAddr: 0x5BB58, symSize: 0x10 }
  - { offsetInCU: 0x1242, offset: 0x46BDA0, size: 0x8, addend: 0x0, symName: '-[SDCBarcodeCountToolbar setDiscloseButtonMarginConstraints:]', symObjAddr: 0x2A24, symBinAddr: 0x5BB68, symSize: 0x14 }
  - { offsetInCU: 0x1283, offset: 0x46BDE1, size: 0x8, addend: 0x0, symName: '-[SDCBarcodeCountToolbar topLayoutAnchorConstraints]', symObjAddr: 0x2A38, symBinAddr: 0x5BB7C, symSize: 0x10 }
  - { offsetInCU: 0x12BA, offset: 0x46BE18, size: 0x8, addend: 0x0, symName: '-[SDCBarcodeCountToolbar setTopLayoutAnchorConstraints:]', symObjAddr: 0x2A48, symBinAddr: 0x5BB8C, symSize: 0x14 }
  - { offsetInCU: 0x12FB, offset: 0x46BE59, size: 0x8, addend: 0x0, symName: '-[SDCBarcodeCountToolbar currentDiscloseButtonMargin]', symObjAddr: 0x2A5C, symBinAddr: 0x5BBA0, symSize: 0x10 }
  - { offsetInCU: 0x1330, offset: 0x46BE8E, size: 0x8, addend: 0x0, symName: '-[SDCBarcodeCountToolbar noInteractionAreaGuide]', symObjAddr: 0x2A6C, symBinAddr: 0x5BBB0, symSize: 0x10 }
  - { offsetInCU: 0x1367, offset: 0x46BEC5, size: 0x8, addend: 0x0, symName: '-[SDCBarcodeCountToolbar setNoInteractionAreaGuide:]', symObjAddr: 0x2A7C, symBinAddr: 0x5BBC0, symSize: 0x14 }
  - { offsetInCU: 0x13A8, offset: 0x46BF06, size: 0x8, addend: 0x0, symName: '-[SDCBarcodeCountToolbar drawerConstraint]', symObjAddr: 0x2A90, symBinAddr: 0x5BBD4, symSize: 0x10 }
  - { offsetInCU: 0x13DF, offset: 0x46BF3D, size: 0x8, addend: 0x0, symName: '-[SDCBarcodeCountToolbar setDrawerConstraint:]', symObjAddr: 0x2AA0, symBinAddr: 0x5BBE4, symSize: 0x14 }
  - { offsetInCU: 0x1420, offset: 0x46BF7E, size: 0x8, addend: 0x0, symName: '-[SDCBarcodeCountToolbar isDrawerOpen]', symObjAddr: 0x2AB4, symBinAddr: 0x5BBF8, symSize: 0x10 }
  - { offsetInCU: 0x1457, offset: 0x46BFB5, size: 0x8, addend: 0x0, symName: '-[SDCBarcodeCountToolbar .cxx_destruct]', symObjAddr: 0x2AC4, symBinAddr: 0x5BC08, symSize: 0x118 }
  - { offsetInCU: 0x27, offset: 0x46C291, size: 0x8, addend: 0x0, symName: '+[SDCBarcodeCountToolbarButton enabledColor]', symObjAddr: 0x0, symBinAddr: 0x5BD20, symSize: 0x24 }
  - { offsetInCU: 0x3C0, offset: 0x46C62A, size: 0x8, addend: 0x0, symName: '+[SDCBarcodeCountToolbarButton enabledColor]', symObjAddr: 0x0, symBinAddr: 0x5BD20, symSize: 0x24 }
  - { offsetInCU: 0x3F3, offset: 0x46C65D, size: 0x8, addend: 0x0, symName: '-[SDCBarcodeCountToolbarButton initWithFrame:]', symObjAddr: 0x24, symBinAddr: 0x5BD44, symSize: 0x7AC }
  - { offsetInCU: 0x436, offset: 0x46C6A0, size: 0x8, addend: 0x0, symName: '-[SDCBarcodeCountToolbarButton setImage:forEnabledState:]', symObjAddr: 0x7D0, symBinAddr: 0x5C4F0, symSize: 0xC0 }
  - { offsetInCU: 0x489, offset: 0x46C6F3, size: 0x8, addend: 0x0, symName: '-[SDCBarcodeCountToolbarButton configureWithOnTitle:offTitle:accessibilityLabel:accessibilityHint:]', symObjAddr: 0x890, symBinAddr: 0x5C5B0, symSize: 0x12C }
  - { offsetInCU: 0x4FC, offset: 0x46C766, size: 0x8, addend: 0x0, symName: '-[SDCBarcodeCountToolbarButton observeValueForKeyPath:ofObject:change:context:]', symObjAddr: 0x9BC, symBinAddr: 0x5C6DC, symSize: 0xE8 }
  - { offsetInCU: 0x563, offset: 0x46C7CD, size: 0x8, addend: 0x0, symName: '-[SDCBarcodeCountToolbarButton hitTest:withEvent:]', symObjAddr: 0xAA4, symBinAddr: 0x5C7C4, symSize: 0x64 }
  - { offsetInCU: 0x5D7, offset: 0x46C841, size: 0x8, addend: 0x0, symName: '-[SDCBarcodeCountToolbarButton willMoveToSuperview:]', symObjAddr: 0xB08, symBinAddr: 0x5C828, symSize: 0xA4 }
  - { offsetInCU: 0x61A, offset: 0x46C884, size: 0x8, addend: 0x0, symName: '-[SDCBarcodeCountToolbarButton updateUI]', symObjAddr: 0xBAC, symBinAddr: 0x5C8CC, symSize: 0x2A0 }
  - { offsetInCU: 0x64D, offset: 0x46C8B7, size: 0x8, addend: 0x0, symName: '-[SDCBarcodeCountToolbarButton setIsEnabled:]', symObjAddr: 0xE4C, symBinAddr: 0x5CB6C, symSize: 0x20 }
  - { offsetInCU: 0x68E, offset: 0x46C8F8, size: 0x8, addend: 0x0, symName: '-[SDCBarcodeCountToolbarButton didTap]', symObjAddr: 0xE6C, symBinAddr: 0x5CB8C, symSize: 0x70 }
  - { offsetInCU: 0x6D5, offset: 0x46C93F, size: 0x8, addend: 0x0, symName: '-[SDCBarcodeCountToolbarButton imageButton]', symObjAddr: 0xEDC, symBinAddr: 0x5CBFC, symSize: 0x10 }
  - { offsetInCU: 0x70C, offset: 0x46C976, size: 0x8, addend: 0x0, symName: '-[SDCBarcodeCountToolbarButton setImageButton:]', symObjAddr: 0xEEC, symBinAddr: 0x5CC0C, symSize: 0x14 }
  - { offsetInCU: 0x74D, offset: 0x46C9B7, size: 0x8, addend: 0x0, symName: '-[SDCBarcodeCountToolbarButton buttonLabel]', symObjAddr: 0xF00, symBinAddr: 0x5CC20, symSize: 0x10 }
  - { offsetInCU: 0x784, offset: 0x46C9EE, size: 0x8, addend: 0x0, symName: '-[SDCBarcodeCountToolbarButton setButtonLabel:]', symObjAddr: 0xF10, symBinAddr: 0x5CC30, symSize: 0x14 }
  - { offsetInCU: 0x7C5, offset: 0x46CA2F, size: 0x8, addend: 0x0, symName: '-[SDCBarcodeCountToolbarButton isEnabled]', symObjAddr: 0xF24, symBinAddr: 0x5CC44, symSize: 0x10 }
  - { offsetInCU: 0x7FC, offset: 0x46CA66, size: 0x8, addend: 0x0, symName: '-[SDCBarcodeCountToolbarButton onButtonToggle]', symObjAddr: 0xF34, symBinAddr: 0x5CC54, symSize: 0x10 }
  - { offsetInCU: 0x833, offset: 0x46CA9D, size: 0x8, addend: 0x0, symName: '-[SDCBarcodeCountToolbarButton setOnButtonToggle:]', symObjAddr: 0xF44, symBinAddr: 0x5CC64, symSize: 0xC }
  - { offsetInCU: 0x872, offset: 0x46CADC, size: 0x8, addend: 0x0, symName: '-[SDCBarcodeCountToolbarButton onImage]', symObjAddr: 0xF50, symBinAddr: 0x5CC70, symSize: 0x10 }
  - { offsetInCU: 0x8A9, offset: 0x46CB13, size: 0x8, addend: 0x0, symName: '-[SDCBarcodeCountToolbarButton setOnImage:]', symObjAddr: 0xF60, symBinAddr: 0x5CC80, symSize: 0x14 }
  - { offsetInCU: 0x8EA, offset: 0x46CB54, size: 0x8, addend: 0x0, symName: '-[SDCBarcodeCountToolbarButton offImage]', symObjAddr: 0xF74, symBinAddr: 0x5CC94, symSize: 0x10 }
  - { offsetInCU: 0x921, offset: 0x46CB8B, size: 0x8, addend: 0x0, symName: '-[SDCBarcodeCountToolbarButton setOffImage:]', symObjAddr: 0xF84, symBinAddr: 0x5CCA4, symSize: 0x14 }
  - { offsetInCU: 0x962, offset: 0x46CBCC, size: 0x8, addend: 0x0, symName: '-[SDCBarcodeCountToolbarButton onTitleString]', symObjAddr: 0xF98, symBinAddr: 0x5CCB8, symSize: 0x10 }
  - { offsetInCU: 0x999, offset: 0x46CC03, size: 0x8, addend: 0x0, symName: '-[SDCBarcodeCountToolbarButton setOnTitleString:]', symObjAddr: 0xFA8, symBinAddr: 0x5CCC8, symSize: 0x14 }
  - { offsetInCU: 0x9DA, offset: 0x46CC44, size: 0x8, addend: 0x0, symName: '-[SDCBarcodeCountToolbarButton offTitleString]', symObjAddr: 0xFBC, symBinAddr: 0x5CCDC, symSize: 0x10 }
  - { offsetInCU: 0xA11, offset: 0x46CC7B, size: 0x8, addend: 0x0, symName: '-[SDCBarcodeCountToolbarButton setOffTitleString:]', symObjAddr: 0xFCC, symBinAddr: 0x5CCEC, symSize: 0x14 }
  - { offsetInCU: 0xA52, offset: 0x46CCBC, size: 0x8, addend: 0x0, symName: '-[SDCBarcodeCountToolbarButton .cxx_destruct]', symObjAddr: 0xFE0, symBinAddr: 0x5CD00, symSize: 0xA4 }
  - { offsetInCU: 0x27, offset: 0x46CD9F, size: 0x8, addend: 0x0, symName: '+[SDCBarcodeCountToolbarDefaults audioOnButtonText]', symObjAddr: 0x0, symBinAddr: 0x5CDA4, symSize: 0xC }
  - { offsetInCU: 0x175, offset: 0x46CEED, size: 0x8, addend: 0x0, symName: '+[SDCBarcodeCountToolbarDefaults audioOnButtonText]', symObjAddr: 0x0, symBinAddr: 0x5CDA4, symSize: 0xC }
  - { offsetInCU: 0x1A8, offset: 0x46CF20, size: 0x8, addend: 0x0, symName: '+[SDCBarcodeCountToolbarDefaults audioOffButtonText]', symObjAddr: 0xC, symBinAddr: 0x5CDB0, symSize: 0xC }
  - { offsetInCU: 0x1DB, offset: 0x46CF53, size: 0x8, addend: 0x0, symName: '+[SDCBarcodeCountToolbarDefaults audioButtonAccessibilityHint]', symObjAddr: 0x18, symBinAddr: 0x5CDBC, symSize: 0xC }
  - { offsetInCU: 0x20E, offset: 0x46CF86, size: 0x8, addend: 0x0, symName: '+[SDCBarcodeCountToolbarDefaults audioButtonAccessibilityLabel]', symObjAddr: 0x24, symBinAddr: 0x5CDC8, symSize: 0xC }
  - { offsetInCU: 0x241, offset: 0x46CFB9, size: 0x8, addend: 0x0, symName: '+[SDCBarcodeCountToolbarDefaults vibrationOnButtonText]', symObjAddr: 0x30, symBinAddr: 0x5CDD4, symSize: 0xC }
  - { offsetInCU: 0x274, offset: 0x46CFEC, size: 0x8, addend: 0x0, symName: '+[SDCBarcodeCountToolbarDefaults vibrationOffButtonText]', symObjAddr: 0x3C, symBinAddr: 0x5CDE0, symSize: 0xC }
  - { offsetInCU: 0x2A7, offset: 0x46D01F, size: 0x8, addend: 0x0, symName: '+[SDCBarcodeCountToolbarDefaults vibrationButtonAccessibilityHint]', symObjAddr: 0x48, symBinAddr: 0x5CDEC, symSize: 0xC }
  - { offsetInCU: 0x2DA, offset: 0x46D052, size: 0x8, addend: 0x0, symName: '+[SDCBarcodeCountToolbarDefaults vibrationButtonAccessibilityLabel]', symObjAddr: 0x54, symBinAddr: 0x5CDF8, symSize: 0xC }
  - { offsetInCU: 0x30D, offset: 0x46D085, size: 0x8, addend: 0x0, symName: '+[SDCBarcodeCountToolbarDefaults strapModeOnButtonText]', symObjAddr: 0x60, symBinAddr: 0x5CE04, symSize: 0xC }
  - { offsetInCU: 0x340, offset: 0x46D0B8, size: 0x8, addend: 0x0, symName: '+[SDCBarcodeCountToolbarDefaults strapModeOffButtonText]', symObjAddr: 0x6C, symBinAddr: 0x5CE10, symSize: 0xC }
  - { offsetInCU: 0x373, offset: 0x46D0EB, size: 0x8, addend: 0x0, symName: '+[SDCBarcodeCountToolbarDefaults strapModeButtonAccessibilityHint]', symObjAddr: 0x78, symBinAddr: 0x5CE1C, symSize: 0xC }
  - { offsetInCU: 0x3A6, offset: 0x46D11E, size: 0x8, addend: 0x0, symName: '+[SDCBarcodeCountToolbarDefaults strapModeButtonAccessibilityLabel]', symObjAddr: 0x84, symBinAddr: 0x5CE28, symSize: 0xC }
  - { offsetInCU: 0x3D9, offset: 0x46D151, size: 0x8, addend: 0x0, symName: '+[SDCBarcodeCountToolbarDefaults colorSchemeOnButtonText]', symObjAddr: 0x90, symBinAddr: 0x5CE34, symSize: 0xC }
  - { offsetInCU: 0x40C, offset: 0x46D184, size: 0x8, addend: 0x0, symName: '+[SDCBarcodeCountToolbarDefaults colorSchemeOffButtonText]', symObjAddr: 0x9C, symBinAddr: 0x5CE40, symSize: 0xC }
  - { offsetInCU: 0x43F, offset: 0x46D1B7, size: 0x8, addend: 0x0, symName: '+[SDCBarcodeCountToolbarDefaults colorSchemeButtonAccessibilityHint]', symObjAddr: 0xA8, symBinAddr: 0x5CE4C, symSize: 0xC }
  - { offsetInCU: 0x472, offset: 0x46D1EA, size: 0x8, addend: 0x0, symName: '+[SDCBarcodeCountToolbarDefaults colorSchemeButtonAccessibilityLabel]', symObjAddr: 0xB4, symBinAddr: 0x5CE58, symSize: 0xC }
  - { offsetInCU: 0x27, offset: 0x46D249, size: 0x8, addend: 0x0, symName: '-[SDCBarcodeCountToolbarSettings value:orDefault:]', symObjAddr: 0x0, symBinAddr: 0x5CE64, symSize: 0xC }
  - { offsetInCU: 0x346, offset: 0x46D568, size: 0x8, addend: 0x0, symName: '-[SDCBarcodeCountToolbarSettings value:orDefault:]', symObjAddr: 0x0, symBinAddr: 0x5CE64, symSize: 0xC }
  - { offsetInCU: 0x395, offset: 0x46D5B7, size: 0x8, addend: 0x0, symName: '-[SDCBarcodeCountToolbarSettings audioOnButtonTextOrDefault]', symObjAddr: 0xC, symBinAddr: 0x5CE70, symSize: 0xA0 }
  - { offsetInCU: 0x3CC, offset: 0x46D5EE, size: 0x8, addend: 0x0, symName: '-[SDCBarcodeCountToolbarSettings audioOffButtonTextOrDefault]', symObjAddr: 0xAC, symBinAddr: 0x5CF10, symSize: 0xA0 }
  - { offsetInCU: 0x403, offset: 0x46D625, size: 0x8, addend: 0x0, symName: '-[SDCBarcodeCountToolbarSettings audioButtonAccessibilityHintOrDefault]', symObjAddr: 0x14C, symBinAddr: 0x5CFB0, symSize: 0xA0 }
  - { offsetInCU: 0x43A, offset: 0x46D65C, size: 0x8, addend: 0x0, symName: '-[SDCBarcodeCountToolbarSettings audioButtonAccessibilityLabelOrDefault]', symObjAddr: 0x1EC, symBinAddr: 0x5D050, symSize: 0xA0 }
  - { offsetInCU: 0x471, offset: 0x46D693, size: 0x8, addend: 0x0, symName: '-[SDCBarcodeCountToolbarSettings vibrationOnButtonTextOrDefault]', symObjAddr: 0x28C, symBinAddr: 0x5D0F0, symSize: 0xA0 }
  - { offsetInCU: 0x4A8, offset: 0x46D6CA, size: 0x8, addend: 0x0, symName: '-[SDCBarcodeCountToolbarSettings vibrationOffButtonTextOrDefault]', symObjAddr: 0x32C, symBinAddr: 0x5D190, symSize: 0xA0 }
  - { offsetInCU: 0x4DF, offset: 0x46D701, size: 0x8, addend: 0x0, symName: '-[SDCBarcodeCountToolbarSettings vibrationButtonAccessibilityHintOrDefault]', symObjAddr: 0x3CC, symBinAddr: 0x5D230, symSize: 0xA0 }
  - { offsetInCU: 0x516, offset: 0x46D738, size: 0x8, addend: 0x0, symName: '-[SDCBarcodeCountToolbarSettings vibrationButtonAccessibilityLabelOrDefault]', symObjAddr: 0x46C, symBinAddr: 0x5D2D0, symSize: 0xA0 }
  - { offsetInCU: 0x54D, offset: 0x46D76F, size: 0x8, addend: 0x0, symName: '-[SDCBarcodeCountToolbarSettings strapModeOnButtonTextOrDefault]', symObjAddr: 0x50C, symBinAddr: 0x5D370, symSize: 0xA0 }
  - { offsetInCU: 0x584, offset: 0x46D7A6, size: 0x8, addend: 0x0, symName: '-[SDCBarcodeCountToolbarSettings strapModeOffButtonTextOrDefault]', symObjAddr: 0x5AC, symBinAddr: 0x5D410, symSize: 0xA0 }
  - { offsetInCU: 0x5BB, offset: 0x46D7DD, size: 0x8, addend: 0x0, symName: '-[SDCBarcodeCountToolbarSettings strapModeButtonAccessibilityHintOrDefault]', symObjAddr: 0x64C, symBinAddr: 0x5D4B0, symSize: 0xA0 }
  - { offsetInCU: 0x5F2, offset: 0x46D814, size: 0x8, addend: 0x0, symName: '-[SDCBarcodeCountToolbarSettings strapModeButtonAccessibilityLabelOrDefault]', symObjAddr: 0x6EC, symBinAddr: 0x5D550, symSize: 0xA0 }
  - { offsetInCU: 0x629, offset: 0x46D84B, size: 0x8, addend: 0x0, symName: '-[SDCBarcodeCountToolbarSettings colorSchemeOnButtonTextOrDefault]', symObjAddr: 0x78C, symBinAddr: 0x5D5F0, symSize: 0xA0 }
  - { offsetInCU: 0x660, offset: 0x46D882, size: 0x8, addend: 0x0, symName: '-[SDCBarcodeCountToolbarSettings colorSchemeOffButtonTextOrDefault]', symObjAddr: 0x82C, symBinAddr: 0x5D690, symSize: 0xA0 }
  - { offsetInCU: 0x697, offset: 0x46D8B9, size: 0x8, addend: 0x0, symName: '-[SDCBarcodeCountToolbarSettings colorSchemeButtonAccessibilityHintOrDefault]', symObjAddr: 0x8CC, symBinAddr: 0x5D730, symSize: 0xA0 }
  - { offsetInCU: 0x6CE, offset: 0x46D8F0, size: 0x8, addend: 0x0, symName: '-[SDCBarcodeCountToolbarSettings colorSchemeButtonAccessibilityLabelOrDefault]', symObjAddr: 0x96C, symBinAddr: 0x5D7D0, symSize: 0xA0 }
  - { offsetInCU: 0x705, offset: 0x46D927, size: 0x8, addend: 0x0, symName: '-[SDCBarcodeCountToolbarSettings audioOnButtonText]', symObjAddr: 0xA0C, symBinAddr: 0x5D870, symSize: 0x8 }
  - { offsetInCU: 0x73C, offset: 0x46D95E, size: 0x8, addend: 0x0, symName: '-[SDCBarcodeCountToolbarSettings setAudioOnButtonText:]', symObjAddr: 0xA14, symBinAddr: 0x5D878, symSize: 0xC }
  - { offsetInCU: 0x77D, offset: 0x46D99F, size: 0x8, addend: 0x0, symName: '-[SDCBarcodeCountToolbarSettings audioOffButtonText]', symObjAddr: 0xA20, symBinAddr: 0x5D884, symSize: 0x8 }
  - { offsetInCU: 0x7B4, offset: 0x46D9D6, size: 0x8, addend: 0x0, symName: '-[SDCBarcodeCountToolbarSettings setAudioOffButtonText:]', symObjAddr: 0xA28, symBinAddr: 0x5D88C, symSize: 0xC }
  - { offsetInCU: 0x7F5, offset: 0x46DA17, size: 0x8, addend: 0x0, symName: '-[SDCBarcodeCountToolbarSettings audioButtonAccessibilityHint]', symObjAddr: 0xA34, symBinAddr: 0x5D898, symSize: 0x8 }
  - { offsetInCU: 0x82C, offset: 0x46DA4E, size: 0x8, addend: 0x0, symName: '-[SDCBarcodeCountToolbarSettings setAudioButtonAccessibilityHint:]', symObjAddr: 0xA3C, symBinAddr: 0x5D8A0, symSize: 0xC }
  - { offsetInCU: 0x86D, offset: 0x46DA8F, size: 0x8, addend: 0x0, symName: '-[SDCBarcodeCountToolbarSettings audioButtonAccessibilityLabel]', symObjAddr: 0xA48, symBinAddr: 0x5D8AC, symSize: 0x8 }
  - { offsetInCU: 0x8A4, offset: 0x46DAC6, size: 0x8, addend: 0x0, symName: '-[SDCBarcodeCountToolbarSettings setAudioButtonAccessibilityLabel:]', symObjAddr: 0xA50, symBinAddr: 0x5D8B4, symSize: 0xC }
  - { offsetInCU: 0x8E5, offset: 0x46DB07, size: 0x8, addend: 0x0, symName: '-[SDCBarcodeCountToolbarSettings vibrationOnButtonText]', symObjAddr: 0xA5C, symBinAddr: 0x5D8C0, symSize: 0x8 }
  - { offsetInCU: 0x91C, offset: 0x46DB3E, size: 0x8, addend: 0x0, symName: '-[SDCBarcodeCountToolbarSettings setVibrationOnButtonText:]', symObjAddr: 0xA64, symBinAddr: 0x5D8C8, symSize: 0xC }
  - { offsetInCU: 0x95D, offset: 0x46DB7F, size: 0x8, addend: 0x0, symName: '-[SDCBarcodeCountToolbarSettings vibrationOffButtonText]', symObjAddr: 0xA70, symBinAddr: 0x5D8D4, symSize: 0x8 }
  - { offsetInCU: 0x994, offset: 0x46DBB6, size: 0x8, addend: 0x0, symName: '-[SDCBarcodeCountToolbarSettings setVibrationOffButtonText:]', symObjAddr: 0xA78, symBinAddr: 0x5D8DC, symSize: 0xC }
  - { offsetInCU: 0x9D5, offset: 0x46DBF7, size: 0x8, addend: 0x0, symName: '-[SDCBarcodeCountToolbarSettings vibrationButtonAccessibilityHint]', symObjAddr: 0xA84, symBinAddr: 0x5D8E8, symSize: 0x8 }
  - { offsetInCU: 0xA0C, offset: 0x46DC2E, size: 0x8, addend: 0x0, symName: '-[SDCBarcodeCountToolbarSettings setVibrationButtonAccessibilityHint:]', symObjAddr: 0xA8C, symBinAddr: 0x5D8F0, symSize: 0xC }
  - { offsetInCU: 0xA4D, offset: 0x46DC6F, size: 0x8, addend: 0x0, symName: '-[SDCBarcodeCountToolbarSettings vibrationButtonAccessibilityLabel]', symObjAddr: 0xA98, symBinAddr: 0x5D8FC, symSize: 0x8 }
  - { offsetInCU: 0xA84, offset: 0x46DCA6, size: 0x8, addend: 0x0, symName: '-[SDCBarcodeCountToolbarSettings setVibrationButtonAccessibilityLabel:]', symObjAddr: 0xAA0, symBinAddr: 0x5D904, symSize: 0xC }
  - { offsetInCU: 0xAC5, offset: 0x46DCE7, size: 0x8, addend: 0x0, symName: '-[SDCBarcodeCountToolbarSettings strapModeOnButtonText]', symObjAddr: 0xAAC, symBinAddr: 0x5D910, symSize: 0x8 }
  - { offsetInCU: 0xAFC, offset: 0x46DD1E, size: 0x8, addend: 0x0, symName: '-[SDCBarcodeCountToolbarSettings setStrapModeOnButtonText:]', symObjAddr: 0xAB4, symBinAddr: 0x5D918, symSize: 0xC }
  - { offsetInCU: 0xB3D, offset: 0x46DD5F, size: 0x8, addend: 0x0, symName: '-[SDCBarcodeCountToolbarSettings strapModeOffButtonText]', symObjAddr: 0xAC0, symBinAddr: 0x5D924, symSize: 0x8 }
  - { offsetInCU: 0xB74, offset: 0x46DD96, size: 0x8, addend: 0x0, symName: '-[SDCBarcodeCountToolbarSettings setStrapModeOffButtonText:]', symObjAddr: 0xAC8, symBinAddr: 0x5D92C, symSize: 0xC }
  - { offsetInCU: 0xBB5, offset: 0x46DDD7, size: 0x8, addend: 0x0, symName: '-[SDCBarcodeCountToolbarSettings strapModeButtonAccessibilityHint]', symObjAddr: 0xAD4, symBinAddr: 0x5D938, symSize: 0x8 }
  - { offsetInCU: 0xBEC, offset: 0x46DE0E, size: 0x8, addend: 0x0, symName: '-[SDCBarcodeCountToolbarSettings setStrapModeButtonAccessibilityHint:]', symObjAddr: 0xADC, symBinAddr: 0x5D940, symSize: 0xC }
  - { offsetInCU: 0xC2D, offset: 0x46DE4F, size: 0x8, addend: 0x0, symName: '-[SDCBarcodeCountToolbarSettings strapModeButtonAccessibilityLabel]', symObjAddr: 0xAE8, symBinAddr: 0x5D94C, symSize: 0x8 }
  - { offsetInCU: 0xC64, offset: 0x46DE86, size: 0x8, addend: 0x0, symName: '-[SDCBarcodeCountToolbarSettings setStrapModeButtonAccessibilityLabel:]', symObjAddr: 0xAF0, symBinAddr: 0x5D954, symSize: 0xC }
  - { offsetInCU: 0xCA5, offset: 0x46DEC7, size: 0x8, addend: 0x0, symName: '-[SDCBarcodeCountToolbarSettings colorSchemeOnButtonText]', symObjAddr: 0xAFC, symBinAddr: 0x5D960, symSize: 0x8 }
  - { offsetInCU: 0xCDC, offset: 0x46DEFE, size: 0x8, addend: 0x0, symName: '-[SDCBarcodeCountToolbarSettings setColorSchemeOnButtonText:]', symObjAddr: 0xB04, symBinAddr: 0x5D968, symSize: 0xC }
  - { offsetInCU: 0xD1D, offset: 0x46DF3F, size: 0x8, addend: 0x0, symName: '-[SDCBarcodeCountToolbarSettings colorSchemeOffButtonText]', symObjAddr: 0xB10, symBinAddr: 0x5D974, symSize: 0x8 }
  - { offsetInCU: 0xD54, offset: 0x46DF76, size: 0x8, addend: 0x0, symName: '-[SDCBarcodeCountToolbarSettings setColorSchemeOffButtonText:]', symObjAddr: 0xB18, symBinAddr: 0x5D97C, symSize: 0xC }
  - { offsetInCU: 0xD95, offset: 0x46DFB7, size: 0x8, addend: 0x0, symName: '-[SDCBarcodeCountToolbarSettings colorSchemeButtonAccessibilityHint]', symObjAddr: 0xB24, symBinAddr: 0x5D988, symSize: 0x8 }
  - { offsetInCU: 0xDCC, offset: 0x46DFEE, size: 0x8, addend: 0x0, symName: '-[SDCBarcodeCountToolbarSettings setColorSchemeButtonAccessibilityHint:]', symObjAddr: 0xB2C, symBinAddr: 0x5D990, symSize: 0xC }
  - { offsetInCU: 0xE0D, offset: 0x46E02F, size: 0x8, addend: 0x0, symName: '-[SDCBarcodeCountToolbarSettings colorSchemeButtonAccessibilityLabel]', symObjAddr: 0xB38, symBinAddr: 0x5D99C, symSize: 0x8 }
  - { offsetInCU: 0xE44, offset: 0x46E066, size: 0x8, addend: 0x0, symName: '-[SDCBarcodeCountToolbarSettings setColorSchemeButtonAccessibilityLabel:]', symObjAddr: 0xB40, symBinAddr: 0x5D9A4, symSize: 0xC }
  - { offsetInCU: 0xE85, offset: 0x46E0A7, size: 0x8, addend: 0x0, symName: '-[SDCBarcodeCountToolbarSettings .cxx_destruct]', symObjAddr: 0xB4C, symBinAddr: 0x5D9B0, symSize: 0xD8 }
  - { offsetInCU: 0x31E, offset: 0x46E402, size: 0x8, addend: 0x0, symName: '-[SDCBarcodeCountUserGuidanceView initWithFrame:]', symObjAddr: 0x0, symBinAddr: 0x5DA88, symSize: 0xBC }
  - { offsetInCU: 0x361, offset: 0x46E445, size: 0x8, addend: 0x0, symName: '-[SDCBarcodeCountUserGuidanceView dealloc]', symObjAddr: 0xBC, symBinAddr: 0x5DB44, symSize: 0xA0 }
  - { offsetInCU: 0x394, offset: 0x46E478, size: 0x8, addend: 0x0, symName: '-[SDCBarcodeCountUserGuidanceView setupOwnProps]', symObjAddr: 0x168, symBinAddr: 0x5DBE4, symSize: 0x94 }
  - { offsetInCU: 0x3C7, offset: 0x46E4AB, size: 0x8, addend: 0x0, symName: '-[SDCBarcodeCountUserGuidanceView setupHintLabel]', symObjAddr: 0x1FC, symBinAddr: 0x5DC78, symSize: 0x718 }
  - { offsetInCU: 0x3FA, offset: 0x46E4DE, size: 0x8, addend: 0x0, symName: '-[SDCBarcodeCountUserGuidanceView setupLoadingRingView]', symObjAddr: 0x914, symBinAddr: 0x5E390, symSize: 0x348 }
  - { offsetInCU: 0x42D, offset: 0x46E511, size: 0x8, addend: 0x0, symName: '-[SDCBarcodeCountUserGuidanceView setupMoveHintViews]', symObjAddr: 0xC5C, symBinAddr: 0x5E6D8, symSize: 0x478 }
  - { offsetInCU: 0x487, offset: 0x46E56B, size: 0x8, addend: 0x0, symName: '-[SDCBarcodeCountUserGuidanceView startClearAnimationsTimer]', symObjAddr: 0x10D4, symBinAddr: 0x5EB50, symSize: 0x120 }
  - { offsetInCU: 0x4CA, offset: 0x46E5AE, size: 0x8, addend: 0x0, symName: '___60-[SDCBarcodeCountUserGuidanceView startClearAnimationsTimer]_block_invoke', symObjAddr: 0x11F4, symBinAddr: 0x5EC70, symSize: 0x40 }
  - { offsetInCU: 0x511, offset: 0x46E5F5, size: 0x8, addend: 0x0, symName: '-[SDCBarcodeCountUserGuidanceView fadeOutAndClear]', symObjAddr: 0x1248, symBinAddr: 0x5ECB0, symSize: 0xB8 }
  - { offsetInCU: 0x544, offset: 0x46E628, size: 0x8, addend: 0x0, symName: '___50-[SDCBarcodeCountUserGuidanceView fadeOutAndClear]_block_invoke', symObjAddr: 0x1300, symBinAddr: 0x5ED68, symSize: 0xC }
  - { offsetInCU: 0x583, offset: 0x46E667, size: 0x8, addend: 0x0, symName: '___50-[SDCBarcodeCountUserGuidanceView fadeOutAndClear]_block_invoke.12', symObjAddr: 0x131C, symBinAddr: 0x5ED74, symSize: 0x2C }
  - { offsetInCU: 0x5CE, offset: 0x46E6B2, size: 0x8, addend: 0x0, symName: '-[SDCBarcodeCountUserGuidanceView stopClearAnimationsTimer]', symObjAddr: 0x1348, symBinAddr: 0x5EDA0, symSize: 0x7C }
  - { offsetInCU: 0x601, offset: 0x46E6E5, size: 0x8, addend: 0x0, symName: '-[SDCBarcodeCountUserGuidanceView clear]', symObjAddr: 0x13C4, symBinAddr: 0x5EE1C, symSize: 0x64 }
  - { offsetInCU: 0x634, offset: 0x46E718, size: 0x8, addend: 0x0, symName: '-[SDCBarcodeCountUserGuidanceView scanProgressEnabled:]', symObjAddr: 0x1428, symBinAddr: 0x5EE80, symSize: 0x4C }
  - { offsetInCU: 0x677, offset: 0x46E75B, size: 0x8, addend: 0x0, symName: '-[SDCBarcodeCountUserGuidanceView setScanProgress:]', symObjAddr: 0x1474, symBinAddr: 0x5EECC, symSize: 0x60 }
  - { offsetInCU: 0x6CA, offset: 0x46E7AE, size: 0x8, addend: 0x0, symName: '-[SDCBarcodeCountUserGuidanceView startInfiniteProgress]', symObjAddr: 0x14D4, symBinAddr: 0x5EF2C, symSize: 0x44 }
  - { offsetInCU: 0x6FD, offset: 0x46E7E1, size: 0x8, addend: 0x0, symName: '-[SDCBarcodeCountUserGuidanceView stopInfiniteProgress]', symObjAddr: 0x1518, symBinAddr: 0x5EF70, symSize: 0x44 }
  - { offsetInCU: 0x730, offset: 0x46E814, size: 0x8, addend: 0x0, symName: '-[SDCBarcodeCountUserGuidanceView moveCloserAnimationEnabled:hintText:]', symObjAddr: 0x155C, symBinAddr: 0x5EFB4, symSize: 0x158 }
  - { offsetInCU: 0x783, offset: 0x46E867, size: 0x8, addend: 0x0, symName: '-[SDCBarcodeCountUserGuidanceView moveFurtherAnimationEnabled:hintText:]', symObjAddr: 0x16B4, symBinAddr: 0x5F10C, symSize: 0x158 }
  - { offsetInCU: 0x7D6, offset: 0x46E8BA, size: 0x8, addend: 0x0, symName: '-[SDCBarcodeCountUserGuidanceView setText:]', symObjAddr: 0x180C, symBinAddr: 0x5F264, symSize: 0x84 }
  - { offsetInCU: 0x819, offset: 0x46E8FD, size: 0x8, addend: 0x0, symName: '-[SDCBarcodeCountUserGuidanceView hintLabel]', symObjAddr: 0x1890, symBinAddr: 0x5F2E8, symSize: 0x10 }
  - { offsetInCU: 0x850, offset: 0x46E934, size: 0x8, addend: 0x0, symName: '-[SDCBarcodeCountUserGuidanceView setHintLabel:]', symObjAddr: 0x18A0, symBinAddr: 0x5F2F8, symSize: 0x14 }
